
Helloworld.elf:     file format elf32-littleriscv
Helloworld.elf
architecture: riscv:rv32, flags 0x00000112:
EXEC_P, HAS_SYMS, D_PAGED
start address 0x80000000

Program Header:
    LOAD off    0x00001000 vaddr 0x80000000 paddr 0x80000000 align 2**12
         filesz 0x00005d8c memsz 0x00005d8c flags r-x
    LOAD off    0x00007000 vaddr 0x90000000 paddr 0x80005d8c align 2**12
         filesz 0x00000234 memsz 0x00000234 flags rw-
    LOAD off    0x00000234 vaddr 0x90000234 paddr 0x90000234 align 2**12
         filesz 0x00000000 memsz 0x000001c4 flags rw-
    LOAD off    0x00000800 vaddr 0x9000f800 paddr 0x900003f8 align 2**12
         filesz 0x00000000 memsz 0x00000800 flags rw-

Sections:
Idx Name              Size      VMA       LMA       File off  Algn  Flags
  0 .init             000000b8  80000000  80000000  00001000  2**0  CONTENTS, ALLOC, LOAD, READONLY, CODE
  1 .ilalign          00000000  800000b8  800000b8  00007234  2**0  CONTENTS
  2 .text             00005642  800000c0  800000c0  000010c0  2**6  CONTENTS, ALLOC, LOAD, READONLY, CODE
  3 .rodata           00000684  80005708  80005708  00006708  2**3  CONTENTS, ALLOC, LOAD, READONLY, DATA
  4 .lalign           00000000  80005d8c  80005d8c  00007234  2**0  CONTENTS
  5 .dalign           00000000  90000000  90000000  00007234  2**0  CONTENTS
  6 .data             00000234  90000000  80005d8c  00007000  2**3  CONTENTS, ALLOC, LOAD, DATA
  7 .bss              000001c4  90000234  90000234  00007234  2**2  ALLOC
  8 .stack            00000800  9000f800  900003f8  00007800  2**0  ALLOC
  9 .debug_info       000062cb  00000000  00000000  00007234  2**0  CONTENTS, READONLY, DEBUGGING, OCTETS
 10 .debug_abbrev     00002352  00000000  00000000  0000d4ff  2**0  CONTENTS, READONLY, DEBUGGING, OCTETS
 11 .debug_loc        00007366  00000000  00000000  0000f851  2**0  CONTENTS, READONLY, DEBUGGING, OCTETS
 12 .debug_aranges    00000520  00000000  00000000  00016bb8  2**3  CONTENTS, READONLY, DEBUGGING, OCTETS
 13 .debug_ranges     00000fb8  00000000  00000000  000170d8  2**0  CONTENTS, READONLY, DEBUGGING, OCTETS
 14 .debug_line       00009396  00000000  00000000  00018090  2**0  CONTENTS, READONLY, DEBUGGING, OCTETS
 15 .debug_str        00001eef  00000000  00000000  00021426  2**0  CONTENTS, READONLY, DEBUGGING, OCTETS
 16 .comment          00000012  00000000  00000000  00023315  2**0  CONTENTS, READONLY
 17 .riscv.attributes 0000002f  00000000  00000000  00023327  2**0  CONTENTS, READONLY
 18 .debug_frame      000007a4  00000000  00000000  00023358  2**2  CONTENTS, READONLY, DEBUGGING, OCTETS
SYMBOL TABLE:
80000000 l    d  .init	00000000 .init
800000b8 l    d  .ilalign	00000000 .ilalign
800000c0 l    d  .text	00000000 .text
80005708 l    d  .rodata	00000000 .rodata
80005d8c l    d  .lalign	00000000 .lalign
90000000 l    d  .dalign	00000000 .dalign
90000000 l    d  .data	00000000 .data
90000234 l    d  .bss	00000000 .bss
9000f800 l    d  .stack	00000000 .stack
00000000 l    d  .debug_info	00000000 .debug_info
00000000 l    d  .debug_abbrev	00000000 .debug_abbrev
00000000 l    d  .debug_loc	00000000 .debug_loc
00000000 l    d  .debug_aranges	00000000 .debug_aranges
00000000 l    d  .debug_ranges	00000000 .debug_ranges
00000000 l    d  .debug_line	00000000 .debug_line
00000000 l    d  .debug_str	00000000 .debug_str
00000000 l    d  .comment	00000000 .comment
00000000 l    d  .riscv.attributes	00000000 .riscv.attributes
00000000 l    d  .debug_frame	00000000 .debug_frame
00000000 l    df *ABS*	00000000 main.c
00000000 l    df *ABS*	00000000 close.c
00000000 l    df *ABS*	00000000 exit.c
00000000 l    df *ABS*	00000000 fstat.c
00000000 l    df *ABS*	00000000 getpid.c
00000000 l    df *ABS*	00000000 isatty.c
00000000 l    df *ABS*	00000000 kill.c
00000000 l    df *ABS*	00000000 lseek.c
00000000 l    df *ABS*	00000000 read.c
00000000 l    df *ABS*	00000000 sbrk.c
900001d0 l     O .data	00000004 curbrk.0
00000000 l    df *ABS*	00000000 write.c
00000000 l    df *ABS*	00000000 hbird_gpio.c
00000000 l    df *ABS*	00000000 hbird_uart.c
00000000 l    df *ABS*	00000000 hbird_common.c
00000000 l    df *ABS*	00000000 system_hbird.c
800003d2 l     F .text	00000044 system_default_exception_handler
80000416 l     F .text	00000048 system_default_interrupt_handler
90000244 l     O .bss	00000028 SystemCoreInterruptHandlers
9000026c l     O .bss	0000002c SystemExceptionHandlers
90000298 l     O .bss	000000d4 SystemExtInterruptHandlers
00000000 l    df *ABS*	00000000 libgcc2.c
00000000 l    df *ABS*	00000000 atexit.c
00000000 l    df *ABS*	00000000 fini.c
00000000 l    df *ABS*	00000000 init.c
00000000 l    df *ABS*	00000000 nano-vfprintf_float.c
00000000 l    df *ABS*	00000000 nano-vfprintf_i.c
00000000 l    df *ABS*	00000000 printf.c
00000000 l    df *ABS*	00000000 puts.c
00000000 l    df *ABS*	00000000 strlen.c
00000000 l    df *ABS*	00000000 sysisatty.c
00000000 l    df *ABS*	00000000 wbuf.c
00000000 l    df *ABS*	00000000 wsetup.c
00000000 l    df *ABS*	00000000 __atexit.c
9000036c l     O .bss	0000008c _global_atexit0
00000000 l    df *ABS*	00000000 dtoa.c
80001768 l     F .text	0000012c quorem
00000000 l    df *ABS*	00000000 fflush.c
00000000 l    df *ABS*	00000000 findfp.c
80002694 l     F .text	00000068 std
00000000 l    df *ABS*	00000000 fwalk.c
00000000 l    df *ABS*	00000000 localeconv.c
00000000 l    df *ABS*	00000000 makebuf.c
00000000 l    df *ABS*	00000000 malloc.c
00000000 l    df *ABS*	00000000 memchr.c
00000000 l    df *ABS*	00000000 memcpy.c
00000000 l    df *ABS*	00000000 mprec.c
80005ba0 l     O .rodata	0000000c p05.0
00000000 l    df *ABS*	00000000 nano-mallocr.c
00000000 l    df *ABS*	00000000 nano-mallocr.c
00000000 l    df *ABS*	00000000 nano-mallocr.c
00000000 l    df *ABS*	00000000 nano-vfprintf.c
80003588 l     F .text	0000002a __sfputc_r
00000000 l    df *ABS*	00000000 sbrkr.c
00000000 l    df *ABS*	00000000 stdio.c
00000000 l    df *ABS*	00000000 writer.c
00000000 l    df *ABS*	00000000 assert.c
00000000 l    df *ABS*	00000000 closer.c
00000000 l    df *ABS*	00000000 fprintf.c
00000000 l    df *ABS*	00000000 fstatr.c
00000000 l    df *ABS*	00000000 isattyr.c
00000000 l    df *ABS*	00000000 lseekr.c
00000000 l    df *ABS*	00000000 mbtowc_r.c
00000000 l    df *ABS*	00000000 mlock.c
00000000 l    df *ABS*	00000000 readr.c
00000000 l    df *ABS*	00000000 wctomb_r.c
00000000 l    df *ABS*	00000000 abort.c
00000000 l    df *ABS*	00000000 signal.c
00000000 l    df *ABS*	00000000 signalr.c
00000000 l    df *ABS*	00000000 adddf3.c
00000000 l    df *ABS*	00000000 divdf3.c
00000000 l    df *ABS*	00000000 eqdf2.c
00000000 l    df *ABS*	00000000 gedf2.c
00000000 l    df *ABS*	00000000 ledf2.c
00000000 l    df *ABS*	00000000 muldf3.c
00000000 l    df *ABS*	00000000 subdf3.c
00000000 l    df *ABS*	00000000 unorddf2.c
00000000 l    df *ABS*	00000000 fixdfsi.c
00000000 l    df *ABS*	00000000 floatsidf.c
00000000 l    df *ABS*	00000000 floatunsidf.c
00000000 l    df *ABS*	00000000 trunctfdf2.c
00000000 l    df *ABS*	00000000 libgcc2.c
00000000 l    df *ABS*	00000000 libgcc2.c
00000000 l    df *ABS*	00000000 locale.c
00000000 l    df *ABS*	00000000 ctype_.c
00000000 l    df *ABS*	00000000 impure.c
90000000 l     O .data	00000060 impure_data
00000000 l    df *ABS*	00000000 
80005d8c l       .rodata	00000000 __fini_array_end
80005d8c l       .rodata	00000000 __fini_array_start
80005d8c l       .rodata	00000000 __init_array_end
80005d8c l       .rodata	00000000 __preinit_array_end
80005d8c l       .rodata	00000000 __init_array_start
80005d8c l       .rodata	00000000 __preinit_array_start
80000a04 g     F .text	000000ec __cvt
80003a56 g     F .text	00000028 _isatty_r
80000160  w    F .text	00000004 _getpid
8000141e g     F .text	000000de _puts_r
80003a7e g     F .text	0000002c _lseek_r
80004728 g     F .text	0000006a .hidden __eqdf2
80003bb0 g     F .text	0000002a _kill_r
800013de g     F .text	00000040 printf
900009d0 g       .data	00000000 __global_pointer$
80003938 g     F .text	00000036 __sseek
8000274c g     F .text	00000066 __sinit
8000151e g     F .text	000000c6 __swbuf_r
80002706 g     F .text	00000046 __sfmoreglue
80003ae6 g     F .text	00000002 __malloc_unlock
80002b66 g     F .text	000000ac _Balloc
80004792 g     F .text	000000a6 .hidden __gtdf2
80003a2c g     F .text	0000002a _fstat_r
90000234 g     O .bss	00000004 errno
00000800 g       *ABS*	00000000 __stack_size
80000332 g     F .text	00000012 uart_write
80005d8c g       .rodata	00000000 __rt_init_start
80005d8c g       .rodata	00000000 __fsymtab_end
800000b8 g       .ilalign	00000000 _ilm_lma
800029e2 g     F .text	000000dc memcpy
800026fc g     F .text	0000000a _cleanup_r
800053d6 g     F .text	00000066 .hidden __floatsidf
80004838 g     F .text	000000a6 .hidden __ltdf2
800014fc g     F .text	0000000c puts
80005d8c g       .rodata	00000000 __rt_init_end
900001d4 g     O .data	00000004 SystemCoreClock
800029ba g     F .text	0000000e malloc
8000151a g     F .text	00000004 isatty
80003b42 g     F .text	00000062 _raise_r
80000146  w    F .text	0000001a _fstat
800039a0 g     F .text	0000003a __assert_func
800003c0 g     F .text	00000012 get_cpu_freq
80005ad8 g     O .rodata	000000c8 __mprec_tens
80003bda g     F .text	00000004 _getpid_r
800028b4 g     F .text	0000000a _localeconv_r
80002ddc g     F .text	00000036 __i2b
80003892 g     F .text	00000028 _sbrk_r
80003ae8 g     F .text	0000002c _read_r
80005d8c g       .rodata	00000000 _eilm
80003bde g     F .text	0000060a .hidden __adddf3
9000f800 g       .stack	00000000 _heap_end
80000164  w    F .text	00000004 _isatty
90000230 g     O .data	00000004 _global_impure_ptr
800009a6 g     F .text	0000005e __libc_init_array
80000604 g     F .text	00000360 .hidden __udivdi3
80005ab0 g     O .rodata	00000028 __mprec_bigtens
80003b34 g     F .text	0000000e abort
8000543c g     F .text	0000004e .hidden __floatunsidf
80000198  w    F .text	0000002c _sbrk
80003164 g     F .text	00000036 __mcmp
80000600 g     F .text	00000002 _init
80000970 g     F .text	00000036 __libc_fini_array
80002d2c g     F .text	00000046 __hi0bits
800000b8 g       .ilalign	00000000 _ilm
80005372 g     F .text	00000064 .hidden __fixdfsi
80000502 g     F .text	000000fc _premain_init
80003a02 g     F .text	0000002a fprintf
80004838 g     F .text	000000a6 .hidden __ledf2
80002f90 g     F .text	000000d0 __pow5mult
800059f8 g     O .rodata	00000020 __sf_fake_stderr
80000470 g     F .text	00000092 core_trap_handler
800056c6 g     F .text	0000003c .hidden __clzsi2
800035b2 g     F .text	00000042 __sfputs_r
80000306 g     F .text	0000002c uart_init
800029c8 g     F .text	0000001a memchr
80000b8c  w    F .text	000004d4 _printf_float
8000341a g     F .text	0000009e _free_r
90000238 g     O .bss	00000004 _global_atexit
90010000 g       .stack	00000000 _sp
80000000 g     F .init	00000000 _start
80000172  w    F .text	00000004 _lseek
80003060 g     F .text	00000104 __lshift
800016f4 g     F .text	00000074 __register_exitproc
80002e12 g     F .text	0000017e __multiply
800032f6 g     F .text	000000ee __d2b
800039da g     F .text	00000028 _close_r
800015e4 g     F .text	00000110 __swsetup_r
800041e8 g     F .text	00000540 .hidden __divdf3
800027b2 g     F .text	00000098 __sfp
800048de g     F .text	00000442 .hidden __muldf3
800038ba g     F .text	00000030 __sread
80003ae4 g     F .text	00000002 __malloc_lock
80002630 g     F .text	00000064 _fflush_r
800033e4 g     F .text	00000036 _calloc_r
80005a18 g     O .rodata	00000020 __sf_fake_stdin
90000234 g       .bss	00000000 __bss_start
80002abe g     F .text	000000a8 memset
800000c0 g     F .text	00000076 main
80000240  w      .text	00000000 trap_entry
8000396e g     F .text	00000006 __sclose
80001894 g     F .text	00000c54 _dtoa_r
800034b8 g     F .text	000000d0 _malloc_r
80003b14 g     F .text	00000020 __ascii_wctomb
80005d8c g       .rodata	00000000 __vsymtab_start
8000045e g     F .text	00000012 SystemInit
80004728 g     F .text	0000006a .hidden __nedf2
80000602 g     F .text	00000002 _fini
800013de g     F .text	00000040 iprintf
800057d4 g     O .rodata	00000100 .hidden __clz_tab
80000af0 g     F .text	0000009c __exponent
80000964 g     F .text	0000000c atexit
80003974 g     F .text	0000002c _write_r
80001060 g     F .text	0000010c _printf_common
900001d8 g     O .data	00000004 _impure_ptr
800024e8 g     F .text	00000148 __sflush_r
80003aaa g     F .text	0000003a __ascii_mbtowc
90000000 g       .dalign	00000000 _data
80005d8c g       .rodata	00000000 __vsymtab_end
80000358 g     F .text	00000068 measure_cpu_freq
800028be g     F .text	0000005c __swhatbuf_r
800001c4  w    F .text	00000062 _write
90000234 g       .bss	00000000 _edata
800005fe g     F .text	00000002 _postmain_fini
900003f8 g       .bss	00000000 _end
80005d8c g       .lalign	00000000 _data_lma
80000344 g     F .text	00000014 uart_read
800038ea g     F .text	0000004e __swrite
80003a02 g     F .text	0000002a fiprintf
800035f4 g     F .text	0000029e _vfiprintf_r
8000284a g     F .text	0000006a _fwalk_reent
8000319a g     F .text	0000015c __mdiff
80000168  w    F .text	0000000a _kill
80005a38 g     O .rodata	00000020 __sf_fake_stdout
80005c10 g     O .rodata	00000101 _ctype_
80000176  w    F .text	00000022 _read
80005338 g     F .text	0000003a .hidden __unorddf2
80000140  w    F .text	00000006 _exit
8000291a g     F .text	000000a0 __smakebuf_r
80001508 g     F .text	00000012 strlen
8000116c g     F .text	00000272 _printf_i
80004792 g     F .text	000000a6 .hidden __gedf2
90000240 g     O .bss	00000004 __malloc_sbrk_start
9000023c g     O .bss	00000004 __malloc_free_list
80005d8c g       .rodata	00000000 __fsymtab_start
80004d20 g     F .text	00000618 .hidden __subdf3
800035f4 g     F .text	0000029e _vfprintf_r
80002d72 g     F .text	0000006a __lo0bits
90000060 g     O .data	0000016c __global_locale
800002bc g     F .text	0000004a gpio_iof_config
8000548a g     F .text	0000023c .hidden __trunctfdf2
80003ba4 g     F .text	0000000c raise
80000136  w    F .text	0000000a _close
80002c72 g     F .text	000000ba __multadd
80002c12 g     F .text	00000060 _Bfree



Disassembly of section .init:

80000000 <_start>:
_start():
C:\Users\Michelle ZHANG\Documents\Nuclei\Nucleitest2\Helloworld\Debug/../hbird_sdk/SoC/hbird/Common/Source/GCC/startup_hbird.S:40
 * Reset Handler called on controller reset
 */
_start:
    /* ===== Startup Stage 1 ===== */
    /* Disable Global Interrupt */
    csrc CSR_MSTATUS, MSTATUS_MIE
80000000:	30047073          	csrci	mstatus,8
C:\Users\Michelle ZHANG\Documents\Nuclei\Nucleitest2\Helloworld\Debug/../hbird_sdk/SoC/hbird/Common/Source/GCC/startup_hbird.S:42
    /* Disable all interrupts controlled by CSR MIE */
    csrw CSR_MIE, 0x0
80000004:	30405073          	csrwi	mie,0
C:\Users\Michelle ZHANG\Documents\Nuclei\Nucleitest2\Helloworld\Debug/../hbird_sdk/SoC/hbird/Common/Source/GCC/startup_hbird.S:47

    /* Initialize GP and Stack Pointer SP */
    .option push
    .option norelax
    la gp, __global_pointer$
80000008:	10001197          	auipc	gp,0x10001
8000000c:	9c818193          	addi	gp,gp,-1592 # 900009d0 <__global_pointer$>
C:\Users\Michelle ZHANG\Documents\Nuclei\Nucleitest2\Helloworld\Debug/../hbird_sdk/SoC/hbird/Common/Source/GCC/startup_hbird.S:49
    .option pop
    la sp, _sp
80000010:	10010117          	auipc	sp,0x10010
80000014:	ff010113          	addi	sp,sp,-16 # 90010000 <_sp>
C:\Users\Michelle ZHANG\Documents\Nuclei\Nucleitest2\Helloworld\Debug/../hbird_sdk/SoC/hbird/Common/Source/GCC/startup_hbird.S:54

    /*
     * Set Trap Entry MTVEC to trap_entry
     */
    la t0, trap_entry
80000018:	00000297          	auipc	t0,0x0
8000001c:	22828293          	addi	t0,t0,552 # 80000240 <trap_entry>
C:\Users\Michelle ZHANG\Documents\Nuclei\Nucleitest2\Helloworld\Debug/../hbird_sdk/SoC/hbird/Common/Source/GCC/startup_hbird.S:55
    csrw CSR_MTVEC, t0
80000020:	30529073          	csrw	mtvec,t0
C:\Users\Michelle ZHANG\Documents\Nuclei\Nucleitest2\Helloworld\Debug/../hbird_sdk/SoC/hbird/Common/Source/GCC/startup_hbird.S:58

    /* Direct Mode: All exceptions set pc to BASE. */
    csrc CSR_MTVEC, 0x7
80000024:	3053f073          	csrci	mtvec,7
C:\Users\Michelle ZHANG\Documents\Nuclei\Nucleitest2\Helloworld\Debug/../hbird_sdk/SoC/hbird/Common/Source/GCC/startup_hbird.S:70
    csrs mstatus, t0
    csrw fcsr, x0
#endif

    /* Enable mcycle and minstret counter */
    csrci CSR_MCOUNTINHIBIT, 0x5
80000028:	3202f073          	csrci	mcountinhibit,5
C:\Users\Michelle ZHANG\Documents\Nuclei\Nucleitest2\Helloworld\Debug/../hbird_sdk/SoC/hbird/Common/Source/GCC/startup_hbird.S:77
    /* ===== Startup Stage 3 ===== */
    /*
     * Load code section frm FLASH to ILM
     * when code LMA is different with VMA
     */
    la a0, _ilm_lma
8000002c:	00000517          	auipc	a0,0x0
80000030:	08c50513          	addi	a0,a0,140 # 800000b8 <_ilm>
C:\Users\Michelle ZHANG\Documents\Nuclei\Nucleitest2\Helloworld\Debug/../hbird_sdk/SoC/hbird/Common/Source/GCC/startup_hbird.S:78
    la a1, _ilm
80000034:	00000597          	auipc	a1,0x0
80000038:	08458593          	addi	a1,a1,132 # 800000b8 <_ilm>
C:\Users\Michelle ZHANG\Documents\Nuclei\Nucleitest2\Helloworld\Debug/../hbird_sdk/SoC/hbird/Common/Source/GCC/startup_hbird.S:80
    /* If the ILM phy-address same as the logic-address, then quit */
    beq a0, a1, 2f
8000003c:	02b50063          	beq	a0,a1,8000005c <_start+0x5c>
C:\Users\Michelle ZHANG\Documents\Nuclei\Nucleitest2\Helloworld\Debug/../hbird_sdk/SoC/hbird/Common/Source/GCC/startup_hbird.S:81
    la a2, _eilm
80000040:	00006617          	auipc	a2,0x6
80000044:	d4c60613          	addi	a2,a2,-692 # 80005d8c <__fsymtab_end>
C:\Users\Michelle ZHANG\Documents\Nuclei\Nucleitest2\Helloworld\Debug/../hbird_sdk/SoC/hbird/Common/Source/GCC/startup_hbird.S:82
    bgeu a1, a2, 2f
80000048:	00c5fa63          	bgeu	a1,a2,8000005c <_start+0x5c>
C:\Users\Michelle ZHANG\Documents\Nuclei\Nucleitest2\Helloworld\Debug/../hbird_sdk/SoC/hbird/Common/Source/GCC/startup_hbird.S:86

1:
    /* Load code section if necessary */
    lw t0, (a0)
8000004c:	00052283          	lw	t0,0(a0)
C:\Users\Michelle ZHANG\Documents\Nuclei\Nucleitest2\Helloworld\Debug/../hbird_sdk/SoC/hbird/Common/Source/GCC/startup_hbird.S:87
    sw t0, (a1)
80000050:	0055a023          	sw	t0,0(a1)
C:\Users\Michelle ZHANG\Documents\Nuclei\Nucleitest2\Helloworld\Debug/../hbird_sdk/SoC/hbird/Common/Source/GCC/startup_hbird.S:88
    addi a0, a0, 4
80000054:	0511                	addi	a0,a0,4
C:\Users\Michelle ZHANG\Documents\Nuclei\Nucleitest2\Helloworld\Debug/../hbird_sdk/SoC/hbird/Common/Source/GCC/startup_hbird.S:89
    addi a1, a1, 4
80000056:	0591                	addi	a1,a1,4
C:\Users\Michelle ZHANG\Documents\Nuclei\Nucleitest2\Helloworld\Debug/../hbird_sdk/SoC/hbird/Common/Source/GCC/startup_hbird.S:90
    bltu a1, a2, 1b
80000058:	fec5eae3          	bltu	a1,a2,8000004c <_start+0x4c>
C:\Users\Michelle ZHANG\Documents\Nuclei\Nucleitest2\Helloworld\Debug/../hbird_sdk/SoC/hbird/Common/Source/GCC/startup_hbird.S:93
2:
    /* Load data section */
    la a0, _data_lma
8000005c:	00006517          	auipc	a0,0x6
80000060:	d3050513          	addi	a0,a0,-720 # 80005d8c <__fsymtab_end>
C:\Users\Michelle ZHANG\Documents\Nuclei\Nucleitest2\Helloworld\Debug/../hbird_sdk/SoC/hbird/Common/Source/GCC/startup_hbird.S:94
    la a1, _data
80000064:	10000597          	auipc	a1,0x10000
80000068:	f9c58593          	addi	a1,a1,-100 # 90000000 <impure_data>
C:\Users\Michelle ZHANG\Documents\Nuclei\Nucleitest2\Helloworld\Debug/../hbird_sdk/SoC/hbird/Common/Source/GCC/startup_hbird.S:95
    la a2, _edata
8000006c:	86418613          	addi	a2,gp,-1948 # 90000234 <errno>
C:\Users\Michelle ZHANG\Documents\Nuclei\Nucleitest2\Helloworld\Debug/../hbird_sdk/SoC/hbird/Common/Source/GCC/startup_hbird.S:96
    bgeu a1, a2, 2f
80000070:	00c5fa63          	bgeu	a1,a2,80000084 <_start+0x84>
C:\Users\Michelle ZHANG\Documents\Nuclei\Nucleitest2\Helloworld\Debug/../hbird_sdk/SoC/hbird/Common/Source/GCC/startup_hbird.S:98
1:
    lw t0, (a0)
80000074:	00052283          	lw	t0,0(a0)
C:\Users\Michelle ZHANG\Documents\Nuclei\Nucleitest2\Helloworld\Debug/../hbird_sdk/SoC/hbird/Common/Source/GCC/startup_hbird.S:99
    sw t0, (a1)
80000078:	0055a023          	sw	t0,0(a1)
C:\Users\Michelle ZHANG\Documents\Nuclei\Nucleitest2\Helloworld\Debug/../hbird_sdk/SoC/hbird/Common/Source/GCC/startup_hbird.S:100
    addi a0, a0, 4
8000007c:	0511                	addi	a0,a0,4
C:\Users\Michelle ZHANG\Documents\Nuclei\Nucleitest2\Helloworld\Debug/../hbird_sdk/SoC/hbird/Common/Source/GCC/startup_hbird.S:101
    addi a1, a1, 4
8000007e:	0591                	addi	a1,a1,4
C:\Users\Michelle ZHANG\Documents\Nuclei\Nucleitest2\Helloworld\Debug/../hbird_sdk/SoC/hbird/Common/Source/GCC/startup_hbird.S:102
    bltu a1, a2, 1b
80000080:	fec5eae3          	bltu	a1,a2,80000074 <_start+0x74>
C:\Users\Michelle ZHANG\Documents\Nuclei\Nucleitest2\Helloworld\Debug/../hbird_sdk/SoC/hbird/Common/Source/GCC/startup_hbird.S:105
2:
    /* Clear bss section */
    la a0, __bss_start
80000084:	86418513          	addi	a0,gp,-1948 # 90000234 <errno>
C:\Users\Michelle ZHANG\Documents\Nuclei\Nucleitest2\Helloworld\Debug/../hbird_sdk/SoC/hbird/Common/Source/GCC/startup_hbird.S:106
    la a1, _end
80000088:	a2818593          	addi	a1,gp,-1496 # 900003f8 <_end>
C:\Users\Michelle ZHANG\Documents\Nuclei\Nucleitest2\Helloworld\Debug/../hbird_sdk/SoC/hbird/Common/Source/GCC/startup_hbird.S:107
    bgeu a0, a1, 2f
8000008c:	00b57763          	bgeu	a0,a1,8000009a <_start+0x9a>
C:\Users\Michelle ZHANG\Documents\Nuclei\Nucleitest2\Helloworld\Debug/../hbird_sdk/SoC/hbird/Common/Source/GCC/startup_hbird.S:109
1:
    sw zero, (a0)
80000090:	00052023          	sw	zero,0(a0)
C:\Users\Michelle ZHANG\Documents\Nuclei\Nucleitest2\Helloworld\Debug/../hbird_sdk/SoC/hbird/Common/Source/GCC/startup_hbird.S:110
    addi a0, a0, 4
80000094:	0511                	addi	a0,a0,4
C:\Users\Michelle ZHANG\Documents\Nuclei\Nucleitest2\Helloworld\Debug/../hbird_sdk/SoC/hbird/Common/Source/GCC/startup_hbird.S:111
    bltu a0, a1, 1b
80000096:	feb56de3          	bltu	a0,a1,80000090 <_start+0x90>
C:\Users\Michelle ZHANG\Documents\Nuclei\Nucleitest2\Helloworld\Debug/../hbird_sdk/SoC/hbird/Common/Source/GCC/startup_hbird.S:118

    /*
     * Call vendor defined SystemInit to
     * initialize the micro-controller system
     */
    call SystemInit
8000009a:	26d1                	jal	8000045e <SystemInit>
C:\Users\Michelle ZHANG\Documents\Nuclei\Nucleitest2\Helloworld\Debug/../hbird_sdk/SoC/hbird/Common/Source/GCC/startup_hbird.S:121

    /* Call global constructors */
    la a0, __libc_fini_array
8000009c:	00001517          	auipc	a0,0x1
800000a0:	8d450513          	addi	a0,a0,-1836 # 80000970 <__libc_fini_array>
C:\Users\Michelle ZHANG\Documents\Nuclei\Nucleitest2\Helloworld\Debug/../hbird_sdk/SoC/hbird/Common/Source/GCC/startup_hbird.S:122
    call atexit
800000a4:	0c1000ef          	jal	ra,80000964 <atexit>
C:\Users\Michelle ZHANG\Documents\Nuclei\Nucleitest2\Helloworld\Debug/../hbird_sdk/SoC/hbird/Common/Source/GCC/startup_hbird.S:124
    /* Call C/C++ constructor start up code */
    call __libc_init_array
800000a8:	0ff000ef          	jal	ra,800009a6 <__libc_init_array>
C:\Users\Michelle ZHANG\Documents\Nuclei\Nucleitest2\Helloworld\Debug/../hbird_sdk/SoC/hbird/Common/Source/GCC/startup_hbird.S:127

    /* do pre-init steps before main */
    call _premain_init
800000ac:	2999                	jal	80000502 <_premain_init>
C:\Users\Michelle ZHANG\Documents\Nuclei\Nucleitest2\Helloworld\Debug/../hbird_sdk/SoC/hbird/Common/Source/GCC/startup_hbird.S:130
    /* ===== Call Main Function  ===== */
    /* argc = argv = 0 */
    li a0, 0
800000ae:	4501                	li	a0,0
C:\Users\Michelle ZHANG\Documents\Nuclei\Nucleitest2\Helloworld\Debug/../hbird_sdk/SoC/hbird/Common/Source/GCC/startup_hbird.S:131
    li a1, 0
800000b0:	4581                	li	a1,0
C:\Users\Michelle ZHANG\Documents\Nuclei\Nucleitest2\Helloworld\Debug/../hbird_sdk/SoC/hbird/Common/Source/GCC/startup_hbird.S:137

#ifdef RTOS_RTTHREAD
    // Call entry function when using RT-Thread
    call entry
#else
    call main
800000b2:	2039                	jal	800000c0 <main>
C:\Users\Michelle ZHANG\Documents\Nuclei\Nucleitest2\Helloworld\Debug/../hbird_sdk/SoC/hbird/Common/Source/GCC/startup_hbird.S:140
#endif
    /* do post-main steps after main */
    call _postmain_fini
800000b4:	23a9                	jal	800005fe <_postmain_fini>
C:\Users\Michelle ZHANG\Documents\Nuclei\Nucleitest2\Helloworld\Debug/../hbird_sdk/SoC/hbird/Common/Source/GCC/startup_hbird.S:143

1:
    j 1b
800000b6:	a001                	j	800000b6 <_start+0xb6>

Disassembly of section .text:

800000c0 <main>:
main():
C:\Users\Michelle ZHANG\Documents\Nuclei\Nucleitest2\Helloworld\Debug/../application/main.c:9
#include <stdlib.h>
#include "hbird_sdk_soc.h"


int main(void)
{
800000c0:	7139                	addi	sp,sp,-64
C:\Users\Michelle ZHANG\Documents\Nuclei\Nucleitest2\Helloworld\Debug/../application/main.c:42
	//BRAM Read/Write Test
	unsigned int * bram_ptr = (unsigned int *)(0x10041000);
	unsigned int result[10] = {0};

	for(unsigned int i=0; i < 10; i++, bram_ptr += 4){
		*bram_ptr = i;
800000c2:	10041737          	lui	a4,0x10041
C:\Users\Michelle ZHANG\Documents\Nuclei\Nucleitest2\Helloworld\Debug/../application/main.c:9
{
800000c6:	de06                	sw	ra,60(sp)
C:\Users\Michelle ZHANG\Documents\Nuclei\Nucleitest2\Helloworld\Debug/../application/main.c:39
	unsigned int result[10] = {0};
800000c8:	c402                	sw	zero,8(sp)
800000ca:	c602                	sw	zero,12(sp)
800000cc:	c802                	sw	zero,16(sp)
800000ce:	ca02                	sw	zero,20(sp)
800000d0:	cc02                	sw	zero,24(sp)
800000d2:	ce02                	sw	zero,28(sp)
800000d4:	d002                	sw	zero,32(sp)
800000d6:	d202                	sw	zero,36(sp)
800000d8:	d402                	sw	zero,40(sp)
800000da:	d602                	sw	zero,44(sp)
C:\Users\Michelle ZHANG\Documents\Nuclei\Nucleitest2\Helloworld\Debug/../application/main.c:42
		*bram_ptr = i;
800000dc:	4685                	li	a3,1
800000de:	cb14                	sw	a3,16(a4)
800000e0:	4689                	li	a3,2
800000e2:	d314                	sw	a3,32(a4)
800000e4:	468d                	li	a3,3
800000e6:	db14                	sw	a3,48(a4)
800000e8:	4691                	li	a3,4
800000ea:	c334                	sw	a3,64(a4)
800000ec:	4695                	li	a3,5
800000ee:	cb34                	sw	a3,80(a4)
800000f0:	4699                	li	a3,6
800000f2:	d334                	sw	a3,96(a4)
800000f4:	469d                	li	a3,7
800000f6:	db34                	sw	a3,112(a4)
800000f8:	46a1                	li	a3,8
800000fa:	08d72023          	sw	a3,128(a4) # 10041080 <__stack_size+0x10040880>
C:\Users\Michelle ZHANG\Documents\Nuclei\Nucleitest2\Helloworld\Debug/../application/main.c:45
	}

	bram_ptr = (unsigned int *)(0x10041000);
800000fe:	100417b7          	lui	a5,0x10041
C:\Users\Michelle ZHANG\Documents\Nuclei\Nucleitest2\Helloworld\Debug/../application/main.c:42
		*bram_ptr = i;
80000102:	46a5                	li	a3,9
80000104:	00072023          	sw	zero,0(a4)
80000108:	08d72823          	sw	a3,144(a4)
C:\Users\Michelle ZHANG\Documents\Nuclei\Nucleitest2\Helloworld\Debug/../application/main.c:46
	for(int i=0; i < 10; i++, bram_ptr += 4){
8000010c:	0a078613          	addi	a2,a5,160 # 100410a0 <__stack_size+0x100408a0>
80000110:	0038                	addi	a4,sp,8
C:\Users\Michelle ZHANG\Documents\Nuclei\Nucleitest2\Helloworld\Debug/../application/main.c:47 (discriminator 3)
		result[i] = *bram_ptr;
80000112:	4394                	lw	a3,0(a5)
C:\Users\Michelle ZHANG\Documents\Nuclei\Nucleitest2\Helloworld\Debug/../application/main.c:46 (discriminator 3)
	for(int i=0; i < 10; i++, bram_ptr += 4){
80000114:	07c1                	addi	a5,a5,16
80000116:	0711                	addi	a4,a4,4
C:\Users\Michelle ZHANG\Documents\Nuclei\Nucleitest2\Helloworld\Debug/../application/main.c:47 (discriminator 3)
		result[i] = *bram_ptr;
80000118:	fed72e23          	sw	a3,-4(a4)
C:\Users\Michelle ZHANG\Documents\Nuclei\Nucleitest2\Helloworld\Debug/../application/main.c:46 (discriminator 3)
	for(int i=0; i < 10; i++, bram_ptr += 4){
8000011c:	fec79be3          	bne	a5,a2,80000112 <main+0x52>
C:\Users\Michelle ZHANG\Documents\Nuclei\Nucleitest2\Helloworld\Debug/../application/main.c:50
	}

	printf("%d\n",result[0]);
80000120:	45a2                	lw	a1,8(sp)
80000122:	00005517          	auipc	a0,0x5
80000126:	6ae50513          	addi	a0,a0,1710 # 800057d0 <__clzsi2+0x10a>
8000012a:	2b4010ef          	jal	ra,800013de <iprintf>
C:\Users\Michelle ZHANG\Documents\Nuclei\Nucleitest2\Helloworld\Debug/../application/main.c:93




    return 0;
}
8000012e:	50f2                	lw	ra,60(sp)
80000130:	4501                	li	a0,0
80000132:	6121                	addi	sp,sp,64
80000134:	8082                	ret

80000136 <_close>:
_close():
C:\Users\Michelle ZHANG\Documents\Nuclei\Nucleitest2\Helloworld\Debug/../hbird_sdk/SoC/hbird/Common/Source/Stubs/close.c:10
#undef errno
extern int errno;

__WEAK int _close(int fd)
{
    errno = EBADF;
80000136:	47a5                	li	a5,9
80000138:	86f1a223          	sw	a5,-1948(gp) # 90000234 <errno>
C:\Users\Michelle ZHANG\Documents\Nuclei\Nucleitest2\Helloworld\Debug/../hbird_sdk/SoC/hbird/Common/Source/Stubs/close.c:12
    return -1;
}
8000013c:	557d                	li	a0,-1
8000013e:	8082                	ret

80000140 <_exit>:
__WFI():
C:\Users\Michelle ZHANG\Documents\Nuclei\Nucleitest2\Helloworld\hbird_sdk\NMSIS\Core\Include/core_feature_base.h:598 (discriminator 1)
 * the hardware platform that suitable interrupts should
 * preferentially be routed to this hart.
 */
__STATIC_FORCEINLINE void __WFI(void)
{
    __ASM volatile("wfi");
80000140:	10500073          	wfi
80000144:	bff5                	j	80000140 <_exit>

80000146 <_fstat>:
_fstat():
C:\Users\Michelle ZHANG\Documents\Nuclei\Nucleitest2\Helloworld\Debug/../hbird_sdk/SoC/hbird/Common/Source/Stubs/fstat.c:12
#undef errno
extern int errno;

__WEAK int _fstat(int file, struct stat *st)
{
    if ((STDOUT_FILENO == file) || (STDERR_FILENO == file)) {
80000146:	157d                	addi	a0,a0,-1
80000148:	4785                	li	a5,1
8000014a:	00a7e663          	bltu	a5,a0,80000156 <_fstat+0x10>
C:\Users\Michelle ZHANG\Documents\Nuclei\Nucleitest2\Helloworld\Debug/../hbird_sdk/SoC/hbird/Common/Source/Stubs/fstat.c:13
        st->st_mode = S_IFCHR;
8000014e:	6789                	lui	a5,0x2
80000150:	c1dc                	sw	a5,4(a1)
C:\Users\Michelle ZHANG\Documents\Nuclei\Nucleitest2\Helloworld\Debug/../hbird_sdk/SoC/hbird/Common/Source/Stubs/fstat.c:14
        return 0;
80000152:	4501                	li	a0,0
80000154:	8082                	ret
C:\Users\Michelle ZHANG\Documents\Nuclei\Nucleitest2\Helloworld\Debug/../hbird_sdk/SoC/hbird/Common/Source/Stubs/fstat.c:16
    } else {
        errno = EBADF;
80000156:	47a5                	li	a5,9
80000158:	86f1a223          	sw	a5,-1948(gp) # 90000234 <errno>
C:\Users\Michelle ZHANG\Documents\Nuclei\Nucleitest2\Helloworld\Debug/../hbird_sdk/SoC/hbird/Common/Source/Stubs/fstat.c:17
        return -1;
8000015c:	557d                	li	a0,-1
C:\Users\Michelle ZHANG\Documents\Nuclei\Nucleitest2\Helloworld\Debug/../hbird_sdk/SoC/hbird/Common/Source/Stubs/fstat.c:19
    }
}
8000015e:	8082                	ret

80000160 <_getpid>:
_getpid():
C:\Users\Michelle ZHANG\Documents\Nuclei\Nucleitest2\Helloworld\Debug/../hbird_sdk/SoC/hbird/Common/Source/Stubs/getpid.c:8
#include <errno.h>

__WEAK int _getpid(void)
{
    return 1;
}
80000160:	4505                	li	a0,1
80000162:	8082                	ret

80000164 <_isatty>:
_isatty():
C:\Users\Michelle ZHANG\Documents\Nuclei\Nucleitest2\Helloworld\Debug/../hbird_sdk/SoC/hbird/Common/Source/Stubs/isatty.c:8
#include <unistd.h>

__WEAK int _isatty(int fd)
{
    return 1;
}
80000164:	4505                	li	a0,1
80000166:	8082                	ret

80000168 <_kill>:
_kill():
C:\Users\Michelle ZHANG\Documents\Nuclei\Nucleitest2\Helloworld\Debug/../hbird_sdk/SoC/hbird/Common/Source/Stubs/kill.c:9
#undef errno
extern int errno;

__WEAK int _kill(int pid, int sig)
{
    errno = EINVAL;
80000168:	47d9                	li	a5,22
8000016a:	86f1a223          	sw	a5,-1948(gp) # 90000234 <errno>
C:\Users\Michelle ZHANG\Documents\Nuclei\Nucleitest2\Helloworld\Debug/../hbird_sdk/SoC/hbird/Common/Source/Stubs/kill.c:11
    return -1;
}
8000016e:	557d                	li	a0,-1
80000170:	8082                	ret

80000172 <_lseek>:
_lseek():
C:\Users\Michelle ZHANG\Documents\Nuclei\Nucleitest2\Helloworld\Debug/../hbird_sdk/SoC/hbird/Common/Source/Stubs/lseek.c:11
extern int errno;

__WEAK int _lseek(int file, int offset, int whence)
{
    return 0;
}
80000172:	4501                	li	a0,0
80000174:	8082                	ret

80000176 <_read>:
_read():
C:\Users\Michelle ZHANG\Documents\Nuclei\Nucleitest2\Helloworld\Debug/../hbird_sdk/SoC/hbird/Common/Source/Stubs/read.c:12

// #define UART_AUTO_ECHO

__WEAK ssize_t _read(int fd, void* ptr, size_t len)
{
    if (fd != STDIN_FILENO) {
80000176:	c119                	beqz	a0,8000017c <_read+0x6>
C:\Users\Michelle ZHANG\Documents\Nuclei\Nucleitest2\Helloworld\Debug/../hbird_sdk/SoC/hbird/Common/Source/Stubs/read.c:13
        return -1;
80000178:	557d                	li	a0,-1
C:\Users\Michelle ZHANG\Documents\Nuclei\Nucleitest2\Helloworld\Debug/../hbird_sdk/SoC/hbird/Common/Source/Stubs/read.c:22
    readbuf[0] = uart_read(SOC_DEBUG_UART);
#ifdef UART_AUTO_ECHO
    uart_write(SOC_DEBUG_UART, readbuf[0]);
#endif
    return 1;
}
8000017a:	8082                	ret
C:\Users\Michelle ZHANG\Documents\Nuclei\Nucleitest2\Helloworld\Debug/../hbird_sdk/SoC/hbird/Common/Source/Stubs/read.c:11
{
8000017c:	1141                	addi	sp,sp,-16
C:\Users\Michelle ZHANG\Documents\Nuclei\Nucleitest2\Helloworld\Debug/../hbird_sdk/SoC/hbird/Common/Source/Stubs/read.c:17
    readbuf[0] = uart_read(SOC_DEBUG_UART);
8000017e:	10013537          	lui	a0,0x10013
C:\Users\Michelle ZHANG\Documents\Nuclei\Nucleitest2\Helloworld\Debug/../hbird_sdk/SoC/hbird/Common/Source/Stubs/read.c:11
{
80000182:	c422                	sw	s0,8(sp)
80000184:	c606                	sw	ra,12(sp)
80000186:	842e                	mv	s0,a1
C:\Users\Michelle ZHANG\Documents\Nuclei\Nucleitest2\Helloworld\Debug/../hbird_sdk/SoC/hbird/Common/Source/Stubs/read.c:17
    readbuf[0] = uart_read(SOC_DEBUG_UART);
80000188:	2a75                	jal	80000344 <uart_read>
8000018a:	00a40023          	sb	a0,0(s0)
C:\Users\Michelle ZHANG\Documents\Nuclei\Nucleitest2\Helloworld\Debug/../hbird_sdk/SoC/hbird/Common/Source/Stubs/read.c:22
}
8000018e:	40b2                	lw	ra,12(sp)
80000190:	4422                	lw	s0,8(sp)
C:\Users\Michelle ZHANG\Documents\Nuclei\Nucleitest2\Helloworld\Debug/../hbird_sdk/SoC/hbird/Common/Source/Stubs/read.c:21
    return 1;
80000192:	4505                	li	a0,1
C:\Users\Michelle ZHANG\Documents\Nuclei\Nucleitest2\Helloworld\Debug/../hbird_sdk/SoC/hbird/Common/Source/Stubs/read.c:22
}
80000194:	0141                	addi	sp,sp,16
80000196:	8082                	ret

80000198 <_sbrk>:
_sbrk():
C:\Users\Michelle ZHANG\Documents\Nuclei\Nucleitest2\Helloworld\Debug/../hbird_sdk/SoC/hbird/Common/Source/Stubs/sbrk.c:13
{
    extern char _end[];
    extern char _heap_end[];
    static char *curbrk = _end;

    if ((curbrk + incr < _end) || (curbrk + incr > _heap_end)) {
80000198:	10000717          	auipc	a4,0x10000
8000019c:	03870713          	addi	a4,a4,56 # 900001d0 <curbrk.0>
800001a0:	431c                	lw	a5,0(a4)
800001a2:	a2818693          	addi	a3,gp,-1496 # 900003f8 <_end>
800001a6:	953e                	add	a0,a0,a5
800001a8:	00d56b63          	bltu	a0,a3,800001be <_sbrk+0x26>
C:\Users\Michelle ZHANG\Documents\Nuclei\Nucleitest2\Helloworld\Debug/../hbird_sdk/SoC/hbird/Common/Source/Stubs/sbrk.c:13 (discriminator 1)
800001ac:	1000f697          	auipc	a3,0x1000f
800001b0:	65468693          	addi	a3,a3,1620 # 9000f800 <_heap_end>
800001b4:	00a6e563          	bltu	a3,a0,800001be <_sbrk+0x26>
C:\Users\Michelle ZHANG\Documents\Nuclei\Nucleitest2\Helloworld\Debug/../hbird_sdk/SoC/hbird/Common/Source/Stubs/sbrk.c:17
        return (void *)(-1);
    }

    curbrk += incr;
800001b8:	c308                	sw	a0,0(a4)
C:\Users\Michelle ZHANG\Documents\Nuclei\Nucleitest2\Helloworld\Debug/../hbird_sdk/SoC/hbird/Common/Source/Stubs/sbrk.c:19
    return (void *)(curbrk - incr);
}
800001ba:	853e                	mv	a0,a5
800001bc:	8082                	ret
C:\Users\Michelle ZHANG\Documents\Nuclei\Nucleitest2\Helloworld\Debug/../hbird_sdk/SoC/hbird/Common/Source/Stubs/sbrk.c:14
        return (void *)(-1);
800001be:	57fd                	li	a5,-1
C:\Users\Michelle ZHANG\Documents\Nuclei\Nucleitest2\Helloworld\Debug/../hbird_sdk/SoC/hbird/Common/Source/Stubs/sbrk.c:19
}
800001c0:	853e                	mv	a0,a5
800001c2:	8082                	ret

800001c4 <_write>:
_write():
C:\Users\Michelle ZHANG\Documents\Nuclei\Nucleitest2\Helloworld\Debug/../hbird_sdk/SoC/hbird/Common/Source/Stubs/write.c:9
#include <unistd.h>
#include <sys/types.h>
#include <hbird_sdk_hal.h>

__WEAK ssize_t _write(int fd, const void* ptr, size_t len)
{
800001c4:	1101                	addi	sp,sp,-32
800001c6:	cc22                	sw	s0,24(sp)
800001c8:	c64e                	sw	s3,12(sp)
800001ca:	ce06                	sw	ra,28(sp)
800001cc:	ca26                	sw	s1,20(sp)
800001ce:	c84a                	sw	s2,16(sp)
800001d0:	842e                	mv	s0,a1
800001d2:	89b2                	mv	s3,a2
C:\Users\Michelle ZHANG\Documents\Nuclei\Nucleitest2\Helloworld\Debug/../hbird_sdk/SoC/hbird/Common/Source/Stubs/write.c:10
    if (!isatty(fd)) {
800001d4:	346010ef          	jal	ra,8000151a <isatty>
800001d8:	c529                	beqz	a0,80000222 <_write+0x5e>
C:\Users\Michelle ZHANG\Documents\Nuclei\Nucleitest2\Helloworld\Debug/../hbird_sdk/SoC/hbird/Common/Source/Stubs/write.c:15
        return -1;
    }

    const uint8_t *writebuf = (const uint8_t *)ptr;
    for (size_t i = 0; i < len; i++) {
800001da:	01340933          	add	s2,s0,s3
C:\Users\Michelle ZHANG\Documents\Nuclei\Nucleitest2\Helloworld\Debug/../hbird_sdk/SoC/hbird/Common/Source/Stubs/write.c:16
        if (writebuf[i] == '\n') {
800001de:	44a9                	li	s1,10
C:\Users\Michelle ZHANG\Documents\Nuclei\Nucleitest2\Helloworld\Debug/../hbird_sdk/SoC/hbird/Common/Source/Stubs/write.c:15
    for (size_t i = 0; i < len; i++) {
800001e0:	00099963          	bnez	s3,800001f2 <_write+0x2e>
800001e4:	a03d                	j	80000212 <_write+0x4e>
C:\Users\Michelle ZHANG\Documents\Nuclei\Nucleitest2\Helloworld\Debug/../hbird_sdk/SoC/hbird/Common/Source/Stubs/write.c:15 (discriminator 2)
800001e6:	0405                	addi	s0,s0,1
C:\Users\Michelle ZHANG\Documents\Nuclei\Nucleitest2\Helloworld\Debug/../hbird_sdk/SoC/hbird/Common/Source/Stubs/write.c:19 (discriminator 2)
            uart_write(SOC_DEBUG_UART, '\r');
        }
        uart_write(SOC_DEBUG_UART, writebuf[i]);
800001e8:	10013537          	lui	a0,0x10013
800001ec:	2299                	jal	80000332 <uart_write>
C:\Users\Michelle ZHANG\Documents\Nuclei\Nucleitest2\Helloworld\Debug/../hbird_sdk/SoC/hbird/Common/Source/Stubs/write.c:15 (discriminator 2)
    for (size_t i = 0; i < len; i++) {
800001ee:	03240263          	beq	s0,s2,80000212 <_write+0x4e>
C:\Users\Michelle ZHANG\Documents\Nuclei\Nucleitest2\Helloworld\Debug/../hbird_sdk/SoC/hbird/Common/Source/Stubs/write.c:16
        if (writebuf[i] == '\n') {
800001f2:	00044583          	lbu	a1,0(s0)
800001f6:	fe9598e3          	bne	a1,s1,800001e6 <_write+0x22>
C:\Users\Michelle ZHANG\Documents\Nuclei\Nucleitest2\Helloworld\Debug/../hbird_sdk/SoC/hbird/Common/Source/Stubs/write.c:17
            uart_write(SOC_DEBUG_UART, '\r');
800001fa:	45b5                	li	a1,13
800001fc:	10013537          	lui	a0,0x10013
80000200:	2a0d                	jal	80000332 <uart_write>
C:\Users\Michelle ZHANG\Documents\Nuclei\Nucleitest2\Helloworld\Debug/../hbird_sdk/SoC/hbird/Common/Source/Stubs/write.c:19
        uart_write(SOC_DEBUG_UART, writebuf[i]);
80000202:	00044583          	lbu	a1,0(s0)
80000206:	10013537          	lui	a0,0x10013
C:\Users\Michelle ZHANG\Documents\Nuclei\Nucleitest2\Helloworld\Debug/../hbird_sdk/SoC/hbird/Common/Source/Stubs/write.c:15
    for (size_t i = 0; i < len; i++) {
8000020a:	0405                	addi	s0,s0,1
C:\Users\Michelle ZHANG\Documents\Nuclei\Nucleitest2\Helloworld\Debug/../hbird_sdk/SoC/hbird/Common/Source/Stubs/write.c:19
        uart_write(SOC_DEBUG_UART, writebuf[i]);
8000020c:	221d                	jal	80000332 <uart_write>
C:\Users\Michelle ZHANG\Documents\Nuclei\Nucleitest2\Helloworld\Debug/../hbird_sdk/SoC/hbird/Common/Source/Stubs/write.c:15
    for (size_t i = 0; i < len; i++) {
8000020e:	ff2412e3          	bne	s0,s2,800001f2 <_write+0x2e>
C:\Users\Michelle ZHANG\Documents\Nuclei\Nucleitest2\Helloworld\Debug/../hbird_sdk/SoC/hbird/Common/Source/Stubs/write.c:21
    }
    return len;
80000212:	854e                	mv	a0,s3
C:\Users\Michelle ZHANG\Documents\Nuclei\Nucleitest2\Helloworld\Debug/../hbird_sdk/SoC/hbird/Common/Source/Stubs/write.c:22
}
80000214:	40f2                	lw	ra,28(sp)
80000216:	4462                	lw	s0,24(sp)
80000218:	44d2                	lw	s1,20(sp)
8000021a:	4942                	lw	s2,16(sp)
8000021c:	49b2                	lw	s3,12(sp)
8000021e:	6105                	addi	sp,sp,32
80000220:	8082                	ret
C:\Users\Michelle ZHANG\Documents\Nuclei\Nucleitest2\Helloworld\Debug/../hbird_sdk/SoC/hbird/Common/Source/Stubs/write.c:11
        return -1;
80000222:	557d                	li	a0,-1
80000224:	bfc5                	j	80000214 <_write+0x50>
	...

80000240 <trap_entry>:
trap_entry():
C:\Users\Michelle ZHANG\Documents\Nuclei\Nucleitest2\Helloworld\Debug/../hbird_sdk/SoC/hbird/Common/Source/GCC/intexc_hbird.S:155
.align 6
.global trap_entry
.weak trap_entry
trap_entry:
    /* Save the caller saving registers (context) */
    SAVE_CONTEXT
80000240:	715d                	addi	sp,sp,-80
80000242:	c006                	sw	ra,0(sp)
80000244:	c212                	sw	tp,4(sp)
80000246:	c416                	sw	t0,8(sp)
80000248:	c61a                	sw	t1,12(sp)
8000024a:	c81e                	sw	t2,16(sp)
8000024c:	ca2a                	sw	a0,20(sp)
8000024e:	cc2e                	sw	a1,24(sp)
80000250:	ce32                	sw	a2,28(sp)
80000252:	d036                	sw	a3,32(sp)
80000254:	d23a                	sw	a4,36(sp)
80000256:	d43e                	sw	a5,40(sp)
80000258:	dc42                	sw	a6,56(sp)
8000025a:	de46                	sw	a7,60(sp)
8000025c:	c0f2                	sw	t3,64(sp)
8000025e:	c2f6                	sw	t4,68(sp)
80000260:	c4fa                	sw	t5,72(sp)
80000262:	c6fe                	sw	t6,76(sp)
C:\Users\Michelle ZHANG\Documents\Nuclei\Nucleitest2\Helloworld\Debug/../hbird_sdk/SoC/hbird/Common/Source/GCC/intexc_hbird.S:157
    /* Save the necessary CSR registers */
    SAVE_CSR_CONTEXT
80000264:	341022f3          	csrr	t0,mepc
80000268:	d816                	sw	t0,48(sp)
8000026a:	342022f3          	csrr	t0,mcause
8000026e:	d616                	sw	t0,44(sp)
C:\Users\Michelle ZHANG\Documents\Nuclei\Nucleitest2\Helloworld\Debug/../hbird_sdk/SoC/hbird/Common/Source/GCC/intexc_hbird.S:164
    /*
     * Set the exception handler function arguments
     * argument 1: mcause value
     * argument 2: current stack point(SP) value
     */
    csrr a0, mcause
80000270:	34202573          	csrr	a0,mcause
C:\Users\Michelle ZHANG\Documents\Nuclei\Nucleitest2\Helloworld\Debug/../hbird_sdk/SoC/hbird/Common/Source/GCC/intexc_hbird.S:165
    mv a1, sp
80000274:	858a                	mv	a1,sp
C:\Users\Michelle ZHANG\Documents\Nuclei\Nucleitest2\Helloworld\Debug/../hbird_sdk/SoC/hbird/Common/Source/GCC/intexc_hbird.S:171
    /*
     * TODO: Call the trap handler function
     * By default, the function template is provided in
     * system_Device.c, you can adjust it as you want
     */
    call core_trap_handler
80000276:	2aed                	jal	80000470 <core_trap_handler>
C:\Users\Michelle ZHANG\Documents\Nuclei\Nucleitest2\Helloworld\Debug/../hbird_sdk/SoC/hbird/Common/Source/GCC/intexc_hbird.S:174

    /* Restore the necessary CSR registers */
    RESTORE_CSR_CONTEXT
80000278:	52c2                	lw	t0,48(sp)
8000027a:	34129073          	csrw	mepc,t0
8000027e:	52b2                	lw	t0,44(sp)
80000280:	34229073          	csrw	mcause,t0
C:\Users\Michelle ZHANG\Documents\Nuclei\Nucleitest2\Helloworld\Debug/../hbird_sdk/SoC/hbird/Common/Source/GCC/intexc_hbird.S:176
    /* Restore the caller saving registers (context) */
    RESTORE_CONTEXT
80000284:	4082                	lw	ra,0(sp)
80000286:	4212                	lw	tp,4(sp)
80000288:	42a2                	lw	t0,8(sp)
8000028a:	4332                	lw	t1,12(sp)
8000028c:	43c2                	lw	t2,16(sp)
8000028e:	4552                	lw	a0,20(sp)
80000290:	45e2                	lw	a1,24(sp)
80000292:	4672                	lw	a2,28(sp)
80000294:	5682                	lw	a3,32(sp)
80000296:	5712                	lw	a4,36(sp)
80000298:	57a2                	lw	a5,40(sp)
8000029a:	5862                	lw	a6,56(sp)
8000029c:	58f2                	lw	a7,60(sp)
8000029e:	4e06                	lw	t3,64(sp)
800002a0:	4e96                	lw	t4,68(sp)
800002a2:	4f26                	lw	t5,72(sp)
800002a4:	4fb6                	lw	t6,76(sp)
800002a6:	6161                	addi	sp,sp,80
C:\Users\Michelle ZHANG\Documents\Nuclei\Nucleitest2\Helloworld\Debug/../hbird_sdk/SoC/hbird/Common/Source/GCC/intexc_hbird.S:179

    /* Return to regular code */
    mret
800002a8:	30200073          	mret
	...

800002bc <gpio_iof_config>:
gpio_iof_config():
C:\Users\Michelle ZHANG\Documents\Nuclei\Nucleitest2\Helloworld\Debug/../hbird_sdk/SoC/hbird/Common/Source/Drivers/hbird_gpio.c:5
#include "hbird.h"
#include "hbird_gpio.h"

int32_t gpio_iof_config(GPIO_TypeDef *gpio, uint32_t mask, IOF_FUNC func)
{
800002bc:	87aa                	mv	a5,a0
C:\Users\Michelle ZHANG\Documents\Nuclei\Nucleitest2\Helloworld\Debug/../hbird_sdk/SoC/hbird/Common/Source/Drivers/hbird_gpio.c:6
    if (__RARELY(gpio == NULL)) {
800002be:	c131                	beqz	a0,80000302 <gpio_iof_config+0x46>
C:\Users\Michelle ZHANG\Documents\Nuclei\Nucleitest2\Helloworld\Debug/../hbird_sdk/SoC/hbird/Common/Source/Drivers/hbird_gpio.c:9
        return -1;
    }
    switch (func) {
800002c0:	4705                	li	a4,1
800002c2:	02e60663          	beq	a2,a4,800002ee <gpio_iof_config+0x32>
800002c6:	4709                	li	a4,2
800002c8:	00e60b63          	beq	a2,a4,800002de <gpio_iof_config+0x22>
800002cc:	4501                	li	a0,0
800002ce:	c211                	beqz	a2,800002d2 <gpio_iof_config+0x16>
C:\Users\Michelle ZHANG\Documents\Nuclei\Nucleitest2\Helloworld\Debug/../hbird_sdk/SoC/hbird/Common/Source/Drivers/hbird_gpio.c:25
            break;
        default:
            break;
    }
    return 0;
}
800002d0:	8082                	ret
C:\Users\Michelle ZHANG\Documents\Nuclei\Nucleitest2\Helloworld\Debug/../hbird_sdk/SoC/hbird/Common/Source/Drivers/hbird_gpio.c:11
            gpio->IOF_EN &= ~mask;
800002d2:	5f98                	lw	a4,56(a5)
800002d4:	fff5c593          	not	a1,a1
800002d8:	8df9                	and	a1,a1,a4
800002da:	df8c                	sw	a1,56(a5)
C:\Users\Michelle ZHANG\Documents\Nuclei\Nucleitest2\Helloworld\Debug/../hbird_sdk/SoC/hbird/Common/Source/Drivers/hbird_gpio.c:12
            break;
800002dc:	8082                	ret
C:\Users\Michelle ZHANG\Documents\Nuclei\Nucleitest2\Helloworld\Debug/../hbird_sdk/SoC/hbird/Common/Source/Drivers/hbird_gpio.c:18
            gpio->IOF_SEL |= mask;
800002de:	5d58                	lw	a4,60(a0)
C:\Users\Michelle ZHANG\Documents\Nuclei\Nucleitest2\Helloworld\Debug/../hbird_sdk/SoC/hbird/Common/Source/Drivers/hbird_gpio.c:24
    return 0;
800002e0:	4501                	li	a0,0
C:\Users\Michelle ZHANG\Documents\Nuclei\Nucleitest2\Helloworld\Debug/../hbird_sdk/SoC/hbird/Common/Source/Drivers/hbird_gpio.c:18
            gpio->IOF_SEL |= mask;
800002e2:	8f4d                	or	a4,a4,a1
800002e4:	dfd8                	sw	a4,60(a5)
C:\Users\Michelle ZHANG\Documents\Nuclei\Nucleitest2\Helloworld\Debug/../hbird_sdk/SoC/hbird/Common/Source/Drivers/hbird_gpio.c:19
            gpio->IOF_EN |= mask;
800002e6:	5f98                	lw	a4,56(a5)
800002e8:	8dd9                	or	a1,a1,a4
800002ea:	df8c                	sw	a1,56(a5)
C:\Users\Michelle ZHANG\Documents\Nuclei\Nucleitest2\Helloworld\Debug/../hbird_sdk/SoC/hbird/Common/Source/Drivers/hbird_gpio.c:20
            break;
800002ec:	8082                	ret
C:\Users\Michelle ZHANG\Documents\Nuclei\Nucleitest2\Helloworld\Debug/../hbird_sdk/SoC/hbird/Common/Source/Drivers/hbird_gpio.c:14
            gpio->IOF_SEL &= ~mask;
800002ee:	5d54                	lw	a3,60(a0)
800002f0:	fff5c713          	not	a4,a1
C:\Users\Michelle ZHANG\Documents\Nuclei\Nucleitest2\Helloworld\Debug/../hbird_sdk/SoC/hbird/Common/Source/Drivers/hbird_gpio.c:24
    return 0;
800002f4:	4501                	li	a0,0
C:\Users\Michelle ZHANG\Documents\Nuclei\Nucleitest2\Helloworld\Debug/../hbird_sdk/SoC/hbird/Common/Source/Drivers/hbird_gpio.c:14
            gpio->IOF_SEL &= ~mask;
800002f6:	8f75                	and	a4,a4,a3
800002f8:	dfd8                	sw	a4,60(a5)
C:\Users\Michelle ZHANG\Documents\Nuclei\Nucleitest2\Helloworld\Debug/../hbird_sdk/SoC/hbird/Common/Source/Drivers/hbird_gpio.c:15
            gpio->IOF_EN |= mask;
800002fa:	5f98                	lw	a4,56(a5)
800002fc:	8dd9                	or	a1,a1,a4
800002fe:	df8c                	sw	a1,56(a5)
C:\Users\Michelle ZHANG\Documents\Nuclei\Nucleitest2\Helloworld\Debug/../hbird_sdk/SoC/hbird/Common/Source/Drivers/hbird_gpio.c:16
            break;
80000300:	8082                	ret
C:\Users\Michelle ZHANG\Documents\Nuclei\Nucleitest2\Helloworld\Debug/../hbird_sdk/SoC/hbird/Common/Source/Drivers/hbird_gpio.c:7
        return -1;
80000302:	557d                	li	a0,-1
C:\Users\Michelle ZHANG\Documents\Nuclei\Nucleitest2\Helloworld\Debug/../hbird_sdk/SoC/hbird/Common/Source/Drivers/hbird_gpio.c:25
}
80000304:	8082                	ret

80000306 <uart_init>:
uart_init():
C:\Users\Michelle ZHANG\Documents\Nuclei\Nucleitest2\Helloworld\Debug/../hbird_sdk/SoC/hbird/Common/Source/Drivers/hbird_uart.c:5
#include "hbird.h"
#include "hbird_uart.h"

int32_t uart_init(UART_TypeDef *uart, uint32_t baudrate)
{
80000306:	87aa                	mv	a5,a0
C:\Users\Michelle ZHANG\Documents\Nuclei\Nucleitest2\Helloworld\Debug/../hbird_sdk/SoC/hbird/Common/Source/Drivers/hbird_uart.c:6
    if (__RARELY(uart == NULL)) {
80000308:	c11d                	beqz	a0,8000032e <uart_init+0x28>
C:\Users\Michelle ZHANG\Documents\Nuclei\Nucleitest2\Helloworld\Debug/../hbird_sdk/SoC/hbird/Common/Source/Drivers/hbird_uart.c:9
        return -1;
    }
    uart->DIV = SystemCoreClock / baudrate - 1;
8000030a:	10000717          	auipc	a4,0x10000
8000030e:	eca72703          	lw	a4,-310(a4) # 900001d4 <SystemCoreClock>
80000312:	02b755b3          	divu	a1,a4,a1
C:\Users\Michelle ZHANG\Documents\Nuclei\Nucleitest2\Helloworld\Debug/../hbird_sdk/SoC/hbird/Common/Source/Drivers/hbird_uart.c:12
    uart->TXCTRL |= UART_TXEN;
    uart->RXCTRL |= UART_RXEN;
    return 0;
80000316:	4501                	li	a0,0
C:\Users\Michelle ZHANG\Documents\Nuclei\Nucleitest2\Helloworld\Debug/../hbird_sdk/SoC/hbird/Common/Source/Drivers/hbird_uart.c:9
    uart->DIV = SystemCoreClock / baudrate - 1;
80000318:	15fd                	addi	a1,a1,-1
8000031a:	cf8c                	sw	a1,24(a5)
C:\Users\Michelle ZHANG\Documents\Nuclei\Nucleitest2\Helloworld\Debug/../hbird_sdk/SoC/hbird/Common/Source/Drivers/hbird_uart.c:10
    uart->TXCTRL |= UART_TXEN;
8000031c:	4798                	lw	a4,8(a5)
8000031e:	00176713          	ori	a4,a4,1
80000322:	c798                	sw	a4,8(a5)
C:\Users\Michelle ZHANG\Documents\Nuclei\Nucleitest2\Helloworld\Debug/../hbird_sdk/SoC/hbird/Common/Source/Drivers/hbird_uart.c:11
    uart->RXCTRL |= UART_RXEN;
80000324:	47d8                	lw	a4,12(a5)
80000326:	00176713          	ori	a4,a4,1
8000032a:	c7d8                	sw	a4,12(a5)
C:\Users\Michelle ZHANG\Documents\Nuclei\Nucleitest2\Helloworld\Debug/../hbird_sdk/SoC/hbird/Common/Source/Drivers/hbird_uart.c:12
    return 0;
8000032c:	8082                	ret
C:\Users\Michelle ZHANG\Documents\Nuclei\Nucleitest2\Helloworld\Debug/../hbird_sdk/SoC/hbird/Common/Source/Drivers/hbird_uart.c:7
        return -1;
8000032e:	557d                	li	a0,-1
C:\Users\Michelle ZHANG\Documents\Nuclei\Nucleitest2\Helloworld\Debug/../hbird_sdk/SoC/hbird/Common/Source/Drivers/hbird_uart.c:13
}
80000330:	8082                	ret

80000332 <uart_write>:
uart_write():
C:\Users\Michelle ZHANG\Documents\Nuclei\Nucleitest2\Helloworld\Debug/../hbird_sdk/SoC/hbird/Common/Source/Drivers/hbird_uart.c:28
    return 0;
}

int32_t uart_write(UART_TypeDef *uart, uint8_t val)
{
    if (__RARELY(uart == NULL)) {
80000332:	c519                	beqz	a0,80000340 <uart_write+0xe>
C:\Users\Michelle ZHANG\Documents\Nuclei\Nucleitest2\Helloworld\Debug/../hbird_sdk/SoC/hbird/Common/Source/Drivers/hbird_uart.c:33 (discriminator 1)
        return -1;
    }
#ifndef SIMULATION_SPIKE
#ifndef SIMULATION_XLSPIKE
    while (uart->TXFIFO & UART_TXFIFO_FULL);
80000334:	411c                	lw	a5,0(a0)
80000336:	fe07cfe3          	bltz	a5,80000334 <uart_write+0x2>
C:\Users\Michelle ZHANG\Documents\Nuclei\Nucleitest2\Helloworld\Debug/../hbird_sdk/SoC/hbird/Common/Source/Drivers/hbird_uart.c:35
#endif
    uart->TXFIFO = val;
8000033a:	c10c                	sw	a1,0(a0)
C:\Users\Michelle ZHANG\Documents\Nuclei\Nucleitest2\Helloworld\Debug/../hbird_sdk/SoC/hbird/Common/Source/Drivers/hbird_uart.c:40
#else
    extern void htif_putc(char ch);
    htif_putc(val);
#endif
    return 0;
8000033c:	4501                	li	a0,0
8000033e:	8082                	ret
C:\Users\Michelle ZHANG\Documents\Nuclei\Nucleitest2\Helloworld\Debug/../hbird_sdk/SoC/hbird/Common/Source/Drivers/hbird_uart.c:29
        return -1;
80000340:	557d                	li	a0,-1
C:\Users\Michelle ZHANG\Documents\Nuclei\Nucleitest2\Helloworld\Debug/../hbird_sdk/SoC/hbird/Common/Source/Drivers/hbird_uart.c:41
}
80000342:	8082                	ret

80000344 <uart_read>:
uart_read():
C:\Users\Michelle ZHANG\Documents\Nuclei\Nucleitest2\Helloworld\Debug/../hbird_sdk/SoC/hbird/Common/Source/Drivers/hbird_uart.c:47

uint8_t uart_read(UART_TypeDef *uart)
{
#ifndef SIMULATION_SPIKE
    uint32_t reg;
    if (__RARELY(uart == NULL)) {
80000344:	c519                	beqz	a0,80000352 <uart_read+0xe>
C:\Users\Michelle ZHANG\Documents\Nuclei\Nucleitest2\Helloworld\Debug/../hbird_sdk/SoC/hbird/Common/Source/Drivers/hbird_uart.c:51 (discriminator 1)
        return -1;
    }
    do {
        reg = uart->RXFIFO;
80000346:	415c                	lw	a5,4(a0)
C:\Users\Michelle ZHANG\Documents\Nuclei\Nucleitest2\Helloworld\Debug/../hbird_sdk/SoC/hbird/Common/Source/Drivers/hbird_uart.c:53 (discriminator 1)
    }
    while (reg & UART_RXFIFO_EMPTY);
80000348:	fe07cfe3          	bltz	a5,80000346 <uart_read+0x2>
C:\Users\Michelle ZHANG\Documents\Nuclei\Nucleitest2\Helloworld\Debug/../hbird_sdk/SoC/hbird/Common/Source/Drivers/hbird_uart.c:54
    return (uint8_t)(reg & 0xFF);
8000034c:	0ff7f513          	zext.b	a0,a5
80000350:	8082                	ret
C:\Users\Michelle ZHANG\Documents\Nuclei\Nucleitest2\Helloworld\Debug/../hbird_sdk/SoC/hbird/Common/Source/Drivers/hbird_uart.c:48
        return -1;
80000352:	0ff00513          	li	a0,255
C:\Users\Michelle ZHANG\Documents\Nuclei\Nucleitest2\Helloworld\Debug/../hbird_sdk/SoC/hbird/Common/Source/Drivers/hbird_uart.c:59
#else
    extern int htif_getc(void);
    return (uint8_t)htif_getc();
#endif
}
80000356:	8082                	ret

80000358 <measure_cpu_freq>:
SysTimer_GetLoadValue():
C:\Users\Michelle ZHANG\Documents\Nuclei\Nucleitest2\Helloworld\hbird_sdk\NMSIS\Core\Include/core_feature_timer.h:106
 * - Load value is 64bits wide.
 * - \ref SysTimer_SetLoadValue
 */
__STATIC_FORCEINLINE uint64_t SysTimer_GetLoadValue(void)
{
    return SysTimer->MTIME;
80000358:	0200c7b7          	lui	a5,0x200c
8000035c:	ff87a703          	lw	a4,-8(a5) # 200bff8 <__stack_size+0x200b7f8>
80000360:	ffc7a783          	lw	a5,-4(a5)
measure_cpu_freq():
C:\Users\Michelle ZHANG\Documents\Nuclei\Nucleitest2\Helloworld\Debug/../hbird_sdk/SoC/hbird/Common/Source/hbird_common.c:9
{
    return (uint64_t)SOC_TIMER_FREQ;
}

uint32_t measure_cpu_freq(uint32_t n)
{
80000364:	1141                	addi	sp,sp,-16
80000366:	c606                	sw	ra,12(sp)
80000368:	c422                	sw	s0,8(sp)
8000036a:	c226                	sw	s1,4(sp)
C:\Users\Michelle ZHANG\Documents\Nuclei\Nucleitest2\Helloworld\Debug/../hbird_sdk/SoC/hbird/Common/Source/hbird_common.c:15
    uint32_t start_mcycle, delta_mcycle;
    uint32_t start_mtime, delta_mtime;
    uint64_t mtime_freq = get_timer_freq();

    // Don't start measuruing until we see an mtime tick
    uint32_t tmp = (uint32_t)SysTimer_GetLoadValue();
8000036c:	86ba                	mv	a3,a4
SysTimer_GetLoadValue():
C:\Users\Michelle ZHANG\Documents\Nuclei\Nucleitest2\Helloworld\hbird_sdk\NMSIS\Core\Include/core_feature_timer.h:106
8000036e:	0200c637          	lui	a2,0x200c
C:\Users\Michelle ZHANG\Documents\Nuclei\Nucleitest2\Helloworld\hbird_sdk\NMSIS\Core\Include/core_feature_timer.h:106 (discriminator 1)
80000372:	ff862703          	lw	a4,-8(a2) # 200bff8 <__stack_size+0x200b7f8>
80000376:	ffc62783          	lw	a5,-4(a2)
measure_cpu_freq():
C:\Users\Michelle ZHANG\Documents\Nuclei\Nucleitest2\Helloworld\Debug/../hbird_sdk/SoC/hbird/Common/Source/hbird_common.c:18 (discriminator 1)
    do {
        start_mtime = (uint32_t)SysTimer_GetLoadValue();
        start_mcycle = __RV_CSR_READ(CSR_MCYCLE);
8000037a:	b00024f3          	csrr	s1,mcycle
C:\Users\Michelle ZHANG\Documents\Nuclei\Nucleitest2\Helloworld\Debug/../hbird_sdk/SoC/hbird/Common/Source/hbird_common.c:19 (discriminator 1)
    } while (start_mtime == tmp);
8000037e:	fee68ae3          	beq	a3,a4,80000372 <measure_cpu_freq+0x1a>
SysTimer_GetLoadValue():
C:\Users\Michelle ZHANG\Documents\Nuclei\Nucleitest2\Helloworld\hbird_sdk\NMSIS\Core\Include/core_feature_timer.h:106
80000382:	0200c5b7          	lui	a1,0x200c
C:\Users\Michelle ZHANG\Documents\Nuclei\Nucleitest2\Helloworld\hbird_sdk\NMSIS\Core\Include/core_feature_timer.h:106 (discriminator 1)
80000386:	ff85a603          	lw	a2,-8(a1) # 200bff8 <__stack_size+0x200b7f8>
8000038a:	ffc5a683          	lw	a3,-4(a1)
measure_cpu_freq():
C:\Users\Michelle ZHANG\Documents\Nuclei\Nucleitest2\Helloworld\Debug/../hbird_sdk/SoC/hbird/Common/Source/hbird_common.c:22 (discriminator 1)

    do {
        delta_mtime = (uint32_t)SysTimer_GetLoadValue() - start_mtime;
8000038e:	40e60433          	sub	s0,a2,a4
C:\Users\Michelle ZHANG\Documents\Nuclei\Nucleitest2\Helloworld\Debug/../hbird_sdk/SoC/hbird/Common/Source/hbird_common.c:23 (discriminator 1)
        delta_mcycle = __RV_CSR_READ(CSR_MCYCLE) - start_mcycle;
80000392:	b00027f3          	csrr	a5,mcycle
C:\Users\Michelle ZHANG\Documents\Nuclei\Nucleitest2\Helloworld\Debug/../hbird_sdk/SoC/hbird/Common/Source/hbird_common.c:24 (discriminator 1)
    } while (delta_mtime < n);
80000396:	fea468e3          	bltu	s0,a0,80000386 <measure_cpu_freq+0x2e>
C:\Users\Michelle ZHANG\Documents\Nuclei\Nucleitest2\Helloworld\Debug/../hbird_sdk/SoC/hbird/Common/Source/hbird_common.c:23
        delta_mcycle = __RV_CSR_READ(CSR_MCYCLE) - start_mcycle;
8000039a:	409784b3          	sub	s1,a5,s1
C:\Users\Michelle ZHANG\Documents\Nuclei\Nucleitest2\Helloworld\Debug/../hbird_sdk/SoC/hbird/Common/Source/hbird_common.c:27

    return (delta_mcycle / delta_mtime) * mtime_freq
           + ((delta_mcycle % delta_mtime) * mtime_freq) / delta_mtime;
8000039e:	0284f5b3          	remu	a1,s1,s0
800003a2:	8622                	mv	a2,s0
800003a4:	4681                	li	a3,0
800003a6:	00f59513          	slli	a0,a1,0xf
800003aa:	81c5                	srli	a1,a1,0x11
800003ac:	2ca1                	jal	80000604 <__udivdi3>
C:\Users\Michelle ZHANG\Documents\Nuclei\Nucleitest2\Helloworld\Debug/../hbird_sdk/SoC/hbird/Common/Source/hbird_common.c:26
    return (delta_mcycle / delta_mtime) * mtime_freq
800003ae:	0284d633          	divu	a2,s1,s0
C:\Users\Michelle ZHANG\Documents\Nuclei\Nucleitest2\Helloworld\Debug/../hbird_sdk/SoC/hbird/Common/Source/hbird_common.c:28
}
800003b2:	40b2                	lw	ra,12(sp)
800003b4:	4422                	lw	s0,8(sp)
800003b6:	4492                	lw	s1,4(sp)
800003b8:	0141                	addi	sp,sp,16
C:\Users\Michelle ZHANG\Documents\Nuclei\Nucleitest2\Helloworld\Debug/../hbird_sdk/SoC/hbird/Common/Source/hbird_common.c:27
           + ((delta_mcycle % delta_mtime) * mtime_freq) / delta_mtime;
800003ba:	063e                	slli	a2,a2,0xf
C:\Users\Michelle ZHANG\Documents\Nuclei\Nucleitest2\Helloworld\Debug/../hbird_sdk/SoC/hbird/Common/Source/hbird_common.c:28
}
800003bc:	9532                	add	a0,a0,a2
800003be:	8082                	ret

800003c0 <get_cpu_freq>:
get_cpu_freq():
C:\Users\Michelle ZHANG\Documents\Nuclei\Nucleitest2\Helloworld\Debug/../hbird_sdk/SoC/hbird/Common/Source/hbird_common.c:31

uint32_t get_cpu_freq(void)
{
800003c0:	1141                	addi	sp,sp,-16
C:\Users\Michelle ZHANG\Documents\Nuclei\Nucleitest2\Helloworld\Debug/../hbird_sdk/SoC/hbird/Common/Source/hbird_common.c:35
    uint32_t cpu_freq;

    // warm up
    measure_cpu_freq(1);
800003c2:	4505                	li	a0,1
C:\Users\Michelle ZHANG\Documents\Nuclei\Nucleitest2\Helloworld\Debug/../hbird_sdk/SoC/hbird/Common/Source/hbird_common.c:31
{
800003c4:	c606                	sw	ra,12(sp)
C:\Users\Michelle ZHANG\Documents\Nuclei\Nucleitest2\Helloworld\Debug/../hbird_sdk/SoC/hbird/Common/Source/hbird_common.c:35
    measure_cpu_freq(1);
800003c6:	3f49                	jal	80000358 <measure_cpu_freq>
C:\Users\Michelle ZHANG\Documents\Nuclei\Nucleitest2\Helloworld\Debug/../hbird_sdk/SoC/hbird/Common/Source/hbird_common.c:40
    // measure for real
    cpu_freq = measure_cpu_freq(100);

    return cpu_freq;
}
800003c8:	40b2                	lw	ra,12(sp)
C:\Users\Michelle ZHANG\Documents\Nuclei\Nucleitest2\Helloworld\Debug/../hbird_sdk/SoC/hbird/Common/Source/hbird_common.c:37
    cpu_freq = measure_cpu_freq(100);
800003ca:	06400513          	li	a0,100
C:\Users\Michelle ZHANG\Documents\Nuclei\Nucleitest2\Helloworld\Debug/../hbird_sdk/SoC/hbird/Common/Source/hbird_common.c:40
}
800003ce:	0141                	addi	sp,sp,16
C:\Users\Michelle ZHANG\Documents\Nuclei\Nucleitest2\Helloworld\Debug/../hbird_sdk/SoC/hbird/Common/Source/hbird_common.c:37
    cpu_freq = measure_cpu_freq(100);
800003d0:	b761                	j	80000358 <measure_cpu_freq>

800003d2 <system_default_exception_handler>:
system_default_exception_handler():
C:\Users\Michelle ZHANG\Documents\Nuclei\Nucleitest2\Helloworld\Debug/../hbird_sdk/SoC/hbird/Common/Source/system_hbird.c:168
 * \details
 * This function provided a default exception handling code for all exception ids.
 * By default, It will just print some information for debug, Vendor can customize it according to its requirements.
 */
static void system_default_exception_handler(unsigned long mcause, unsigned long sp)
{
800003d2:	1141                	addi	sp,sp,-16
800003d4:	c422                	sw	s0,8(sp)
800003d6:	842a                	mv	s0,a0
C:\Users\Michelle ZHANG\Documents\Nuclei\Nucleitest2\Helloworld\Debug/../hbird_sdk/SoC/hbird/Common/Source/system_hbird.c:170
    /* TODO: Uncomment this if you have implement printf function */
    printf("Trap in Exception\r\n");
800003d8:	00005517          	auipc	a0,0x5
800003dc:	33050513          	addi	a0,a0,816 # 80005708 <__clzsi2+0x42>
C:\Users\Michelle ZHANG\Documents\Nuclei\Nucleitest2\Helloworld\Debug/../hbird_sdk/SoC/hbird/Common/Source/system_hbird.c:168
{
800003e0:	c606                	sw	ra,12(sp)
C:\Users\Michelle ZHANG\Documents\Nuclei\Nucleitest2\Helloworld\Debug/../hbird_sdk/SoC/hbird/Common/Source/system_hbird.c:170
    printf("Trap in Exception\r\n");
800003e2:	11a010ef          	jal	ra,800014fc <puts>
C:\Users\Michelle ZHANG\Documents\Nuclei\Nucleitest2\Helloworld\Debug/../hbird_sdk/SoC/hbird/Common/Source/system_hbird.c:171
    printf("MCAUSE: 0x%lx\r\n", mcause);
800003e6:	85a2                	mv	a1,s0
800003e8:	00005517          	auipc	a0,0x5
800003ec:	33450513          	addi	a0,a0,820 # 8000571c <__clzsi2+0x56>
800003f0:	7ef000ef          	jal	ra,800013de <iprintf>
C:\Users\Michelle ZHANG\Documents\Nuclei\Nucleitest2\Helloworld\Debug/../hbird_sdk/SoC/hbird/Common/Source/system_hbird.c:172
    printf("MEPC  : 0x%lx\r\n", __RV_CSR_READ(CSR_MEPC));
800003f4:	341025f3          	csrr	a1,mepc
800003f8:	00005517          	auipc	a0,0x5
800003fc:	33450513          	addi	a0,a0,820 # 8000572c <__clzsi2+0x66>
80000400:	7df000ef          	jal	ra,800013de <iprintf>
C:\Users\Michelle ZHANG\Documents\Nuclei\Nucleitest2\Helloworld\Debug/../hbird_sdk/SoC/hbird/Common/Source/system_hbird.c:173
    printf("MTVAL : 0x%lx\r\n", __RV_CSR_READ(CSR_MBADADDR));
80000404:	343025f3          	csrr	a1,mtval
80000408:	00005517          	auipc	a0,0x5
8000040c:	33450513          	addi	a0,a0,820 # 8000573c <__clzsi2+0x76>
80000410:	7cf000ef          	jal	ra,800013de <iprintf>
C:\Users\Michelle ZHANG\Documents\Nuclei\Nucleitest2\Helloworld\Debug/../hbird_sdk/SoC/hbird/Common/Source/system_hbird.c:174 (discriminator 1)
    while(1);
80000414:	a001                	j	80000414 <system_default_exception_handler+0x42>

80000416 <system_default_interrupt_handler>:
system_default_interrupt_handler():
C:\Users\Michelle ZHANG\Documents\Nuclei\Nucleitest2\Helloworld\Debug/../hbird_sdk/SoC/hbird/Common/Source/system_hbird.c:183
 * \brief      System Default Interrupt Handler
 * \details
 * This function provided a default interrupt handling code for all interrupt ids.
 */
static void system_default_interrupt_handler(unsigned long mcause, unsigned long sp)
{
80000416:	1141                	addi	sp,sp,-16
80000418:	c422                	sw	s0,8(sp)
8000041a:	842a                	mv	s0,a0
C:\Users\Michelle ZHANG\Documents\Nuclei\Nucleitest2\Helloworld\Debug/../hbird_sdk/SoC/hbird/Common/Source/system_hbird.c:185
    /* TODO: Uncomment this if you have implement printf function */
    printf("Trap in Interrupt\r\n");
8000041c:	00005517          	auipc	a0,0x5
80000420:	33050513          	addi	a0,a0,816 # 8000574c <__clzsi2+0x86>
C:\Users\Michelle ZHANG\Documents\Nuclei\Nucleitest2\Helloworld\Debug/../hbird_sdk/SoC/hbird/Common/Source/system_hbird.c:183
{
80000424:	c606                	sw	ra,12(sp)
C:\Users\Michelle ZHANG\Documents\Nuclei\Nucleitest2\Helloworld\Debug/../hbird_sdk/SoC/hbird/Common/Source/system_hbird.c:185
    printf("Trap in Interrupt\r\n");
80000426:	0d6010ef          	jal	ra,800014fc <puts>
C:\Users\Michelle ZHANG\Documents\Nuclei\Nucleitest2\Helloworld\Debug/../hbird_sdk/SoC/hbird/Common/Source/system_hbird.c:186
    printf("MCAUSE: 0x%lx\r\n", mcause);
8000042a:	85a2                	mv	a1,s0
8000042c:	00005517          	auipc	a0,0x5
80000430:	2f050513          	addi	a0,a0,752 # 8000571c <__clzsi2+0x56>
80000434:	7ab000ef          	jal	ra,800013de <iprintf>
C:\Users\Michelle ZHANG\Documents\Nuclei\Nucleitest2\Helloworld\Debug/../hbird_sdk/SoC/hbird/Common/Source/system_hbird.c:187
    printf("MEPC  : 0x%lx\r\n", __RV_CSR_READ(CSR_MEPC));
80000438:	341025f3          	csrr	a1,mepc
8000043c:	00005517          	auipc	a0,0x5
80000440:	2f050513          	addi	a0,a0,752 # 8000572c <__clzsi2+0x66>
80000444:	79b000ef          	jal	ra,800013de <iprintf>
C:\Users\Michelle ZHANG\Documents\Nuclei\Nucleitest2\Helloworld\Debug/../hbird_sdk/SoC/hbird/Common/Source/system_hbird.c:188
    printf("MTVAL : 0x%lx\r\n", __RV_CSR_READ(CSR_MBADADDR));
80000448:	343025f3          	csrr	a1,mtval
C:\Users\Michelle ZHANG\Documents\Nuclei\Nucleitest2\Helloworld\Debug/../hbird_sdk/SoC/hbird/Common/Source/system_hbird.c:189
}
8000044c:	4422                	lw	s0,8(sp)
8000044e:	40b2                	lw	ra,12(sp)
C:\Users\Michelle ZHANG\Documents\Nuclei\Nucleitest2\Helloworld\Debug/../hbird_sdk/SoC/hbird/Common/Source/system_hbird.c:188
    printf("MTVAL : 0x%lx\r\n", __RV_CSR_READ(CSR_MBADADDR));
80000450:	00005517          	auipc	a0,0x5
80000454:	2ec50513          	addi	a0,a0,748 # 8000573c <__clzsi2+0x76>
C:\Users\Michelle ZHANG\Documents\Nuclei\Nucleitest2\Helloworld\Debug/../hbird_sdk/SoC/hbird/Common/Source/system_hbird.c:189
}
80000458:	0141                	addi	sp,sp,16
C:\Users\Michelle ZHANG\Documents\Nuclei\Nucleitest2\Helloworld\Debug/../hbird_sdk/SoC/hbird/Common/Source/system_hbird.c:188
    printf("MTVAL : 0x%lx\r\n", __RV_CSR_READ(CSR_MBADADDR));
8000045a:	7850006f          	j	800013de <iprintf>

8000045e <SystemInit>:
SystemInit():
C:\Users\Michelle ZHANG\Documents\Nuclei\Nucleitest2\Helloworld\Debug/../hbird_sdk/SoC/hbird/Common/Source/system_hbird.c:125
    SystemCoreClock = SYSTEM_CLOCK;
8000045e:	04c4b7b7          	lui	a5,0x4c4b
80000462:	40078793          	addi	a5,a5,1024 # 4c4b400 <__stack_size+0x4c4ac00>
80000466:	10000717          	auipc	a4,0x10000
8000046a:	d6f72723          	sw	a5,-658(a4) # 900001d4 <SystemCoreClock>
C:\Users\Michelle ZHANG\Documents\Nuclei\Nucleitest2\Helloworld\Debug/../hbird_sdk/SoC/hbird/Common/Source/system_hbird.c:126
}
8000046e:	8082                	ret

80000470 <core_trap_handler>:
core_trap_handler():
C:\Users\Michelle ZHANG\Documents\Nuclei\Nucleitest2\Helloworld\Debug/../hbird_sdk/SoC/hbird/Common/Source/system_hbird.c:322
 * - If you want to register core exception handler, please use \ref Exception_Register_EXC
 * - If you want to register core interrupt handler, please use \ref Interrupt_Register_CoreIRQ
 * - If you want to register external interrupt handler, please use \ref Interrupt_Register_ExtIRQ
 */
uint32_t core_trap_handler(unsigned long mcause, unsigned long sp)
{
80000470:	1141                	addi	sp,sp,-16
C:\Users\Michelle ZHANG\Documents\Nuclei\Nucleitest2\Helloworld\Debug/../hbird_sdk/SoC/hbird/Common/Source/system_hbird.c:325
    if (mcause & MCAUSE_INTERRUPT) {
        INT_HANDLER int_handler = NULL;
        uint32_t irqn = (uint32_t)(mcause & 0X00000fff);
80000472:	01451793          	slli	a5,a0,0x14
C:\Users\Michelle ZHANG\Documents\Nuclei\Nucleitest2\Helloworld\Debug/../hbird_sdk/SoC/hbird/Common/Source/system_hbird.c:322
{
80000476:	c606                	sw	ra,12(sp)
80000478:	c422                	sw	s0,8(sp)
C:\Users\Michelle ZHANG\Documents\Nuclei\Nucleitest2\Helloworld\Debug/../hbird_sdk/SoC/hbird/Common/Source/system_hbird.c:325
        uint32_t irqn = (uint32_t)(mcause & 0X00000fff);
8000047a:	83d1                	srli	a5,a5,0x14
C:\Users\Michelle ZHANG\Documents\Nuclei\Nucleitest2\Helloworld\Debug/../hbird_sdk/SoC/hbird/Common/Source/system_hbird.c:323
    if (mcause & MCAUSE_INTERRUPT) {
8000047c:	02055163          	bgez	a0,8000049e <core_trap_handler+0x2e>
C:\Users\Michelle ZHANG\Documents\Nuclei\Nucleitest2\Helloworld\Debug/../hbird_sdk/SoC/hbird/Common/Source/system_hbird.c:326
        if (irqn == IRQ_M_EXT) {
80000480:	472d                	li	a4,11
80000482:	04e78363          	beq	a5,a4,800004c8 <core_trap_handler+0x58>
C:\Users\Michelle ZHANG\Documents\Nuclei\Nucleitest2\Helloworld\Debug/../hbird_sdk/SoC/hbird/Common/Source/system_hbird.c:338
                }
                PLIC_CompleteInterrupt(irqn);
            }
#endif
        } else {
            int_handler = (INT_HANDLER)(SystemCoreInterruptHandlers[irqn]);
80000486:	078a                	slli	a5,a5,0x2
80000488:	87418713          	addi	a4,gp,-1932 # 90000244 <SystemCoreInterruptHandlers>
8000048c:	97ba                	add	a5,a5,a4
8000048e:	439c                	lw	a5,0(a5)
C:\Users\Michelle ZHANG\Documents\Nuclei\Nucleitest2\Helloworld\Debug/../hbird_sdk/SoC/hbird/Common/Source/system_hbird.c:339
            if (int_handler != NULL) {
80000490:	c391                	beqz	a5,80000494 <core_trap_handler+0x24>
core_exception_handler():
C:\Users\Michelle ZHANG\Documents\Nuclei\Nucleitest2\Helloworld\Debug/../hbird_sdk/SoC/hbird/Common/Source/system_hbird.c:371
        exc_handler = (EXC_HANDLER)SystemExceptionHandlers[EXCn];
    } else {
        exc_handler = (EXC_HANDLER)system_default_exception_handler;
    }
    if (exc_handler != NULL) {
        exc_handler(mcause, sp);
80000492:	9782                	jalr	a5
core_trap_handler():
C:\Users\Michelle ZHANG\Documents\Nuclei\Nucleitest2\Helloworld\Debug/../hbird_sdk/SoC/hbird/Common/Source/system_hbird.c:347
}
80000494:	40b2                	lw	ra,12(sp)
80000496:	4422                	lw	s0,8(sp)
80000498:	4501                	li	a0,0
8000049a:	0141                	addi	sp,sp,16
8000049c:	8082                	ret
core_exception_handler():
C:\Users\Michelle ZHANG\Documents\Nuclei\Nucleitest2\Helloworld\Debug/../hbird_sdk/SoC/hbird/Common/Source/system_hbird.c:365
    if ((EXCn < MAX_SYSTEM_EXCEPTION_NUM) && (EXCn >= 0)) {
8000049e:	4629                	li	a2,10
800004a0:	872a                	mv	a4,a0
800004a2:	86ae                	mv	a3,a1
800004a4:	00f66b63          	bltu	a2,a5,800004ba <core_trap_handler+0x4a>
C:\Users\Michelle ZHANG\Documents\Nuclei\Nucleitest2\Helloworld\Debug/../hbird_sdk/SoC/hbird/Common/Source/system_hbird.c:366
        exc_handler = (EXC_HANDLER)SystemExceptionHandlers[EXCn];
800004a8:	078a                	slli	a5,a5,0x2
800004aa:	89c18613          	addi	a2,gp,-1892 # 9000026c <SystemExceptionHandlers>
800004ae:	97b2                	add	a5,a5,a2
800004b0:	439c                	lw	a5,0(a5)
C:\Users\Michelle ZHANG\Documents\Nuclei\Nucleitest2\Helloworld\Debug/../hbird_sdk/SoC/hbird/Common/Source/system_hbird.c:370
    if (exc_handler != NULL) {
800004b2:	d3ed                	beqz	a5,80000494 <core_trap_handler+0x24>
C:\Users\Michelle ZHANG\Documents\Nuclei\Nucleitest2\Helloworld\Debug/../hbird_sdk/SoC/hbird/Common/Source/system_hbird.c:371
        exc_handler(mcause, sp);
800004b4:	85b6                	mv	a1,a3
800004b6:	853a                	mv	a0,a4
800004b8:	bfe9                	j	80000492 <core_trap_handler+0x22>
C:\Users\Michelle ZHANG\Documents\Nuclei\Nucleitest2\Helloworld\Debug/../hbird_sdk/SoC/hbird/Common/Source/system_hbird.c:368
        exc_handler = (EXC_HANDLER)system_default_exception_handler;
800004ba:	00000797          	auipc	a5,0x0
800004be:	f1878793          	addi	a5,a5,-232 # 800003d2 <system_default_exception_handler>
C:\Users\Michelle ZHANG\Documents\Nuclei\Nucleitest2\Helloworld\Debug/../hbird_sdk/SoC/hbird/Common/Source/system_hbird.c:371
        exc_handler(mcause, sp);
800004c2:	85b6                	mv	a1,a3
800004c4:	853a                	mv	a0,a4
800004c6:	b7f1                	j	80000492 <core_trap_handler+0x22>
PLIC_ClaimInterrupt():
C:\Users\Michelle ZHANG\Documents\Nuclei\Nucleitest2\Helloworld\hbird_sdk\NMSIS\Core\Include/core_feature_plic.h:273
 * \sa
 * - \ref PLIC_CompleteInterrupt
 */
__STATIC_FORCEINLINE uint32_t PLIC_ClaimInterrupt(void)
{
    uint32_t hartid = __RV_CSR_READ(CSR_MHARTID);
800004c8:	f14027f3          	csrr	a5,mhartid
C:\Users\Michelle ZHANG\Documents\Nuclei\Nucleitest2\Helloworld\hbird_sdk\NMSIS\Core\Include/core_feature_plic.h:274
    volatile uint32_t *claim_reg = (uint32_t *)((PLIC_BASE) + PLIC_CLAIM_OFFSET + \
800004cc:	0c200737          	lui	a4,0xc200
C:\Users\Michelle ZHANG\Documents\Nuclei\Nucleitest2\Helloworld\hbird_sdk\NMSIS\Core\Include/core_feature_plic.h:275
                    + (hartid << PLIC_CLAIM_SHIFT_PER_TARGET));
800004d0:	07b2                	slli	a5,a5,0xc
C:\Users\Michelle ZHANG\Documents\Nuclei\Nucleitest2\Helloworld\hbird_sdk\NMSIS\Core\Include/core_feature_plic.h:274
    volatile uint32_t *claim_reg = (uint32_t *)((PLIC_BASE) + PLIC_CLAIM_OFFSET + \
800004d2:	0711                	addi	a4,a4,4
800004d4:	97ba                	add	a5,a5,a4
C:\Users\Michelle ZHANG\Documents\Nuclei\Nucleitest2\Helloworld\hbird_sdk\NMSIS\Core\Include/core_feature_plic.h:277

    return (*claim_reg);
800004d6:	4380                	lw	s0,0(a5)
core_trap_handler():
C:\Users\Michelle ZHANG\Documents\Nuclei\Nucleitest2\Helloworld\Debug/../hbird_sdk/SoC/hbird/Common/Source/system_hbird.c:329
            if (irqn < __PLIC_INTNUM) {
800004d8:	03400793          	li	a5,52
800004dc:	fa87ece3          	bltu	a5,s0,80000494 <core_trap_handler+0x24>
C:\Users\Michelle ZHANG\Documents\Nuclei\Nucleitest2\Helloworld\Debug/../hbird_sdk/SoC/hbird/Common/Source/system_hbird.c:330
                int_handler = (INT_HANDLER)(SystemExtInterruptHandlers[irqn]);
800004e0:	00241713          	slli	a4,s0,0x2
800004e4:	8c818793          	addi	a5,gp,-1848 # 90000298 <SystemExtInterruptHandlers>
800004e8:	97ba                	add	a5,a5,a4
800004ea:	439c                	lw	a5,0(a5)
C:\Users\Michelle ZHANG\Documents\Nuclei\Nucleitest2\Helloworld\Debug/../hbird_sdk/SoC/hbird/Common/Source/system_hbird.c:331
                if (int_handler != NULL) {
800004ec:	c391                	beqz	a5,800004f0 <core_trap_handler+0x80>
C:\Users\Michelle ZHANG\Documents\Nuclei\Nucleitest2\Helloworld\Debug/../hbird_sdk/SoC/hbird/Common/Source/system_hbird.c:332
                    int_handler(mcause, sp);
800004ee:	9782                	jalr	a5
PLIC_CompleteInterrupt():
C:\Users\Michelle ZHANG\Documents\Nuclei\Nucleitest2\Helloworld\hbird_sdk\NMSIS\Core\Include/core_feature_plic.h:298
 * \sa
 * - \ref PLIC_ClaimInterrupt
 */
__STATIC_FORCEINLINE void PLIC_CompleteInterrupt(uint32_t source)
{
    uint32_t hartid = __RV_CSR_READ(CSR_MHARTID);
800004f0:	f14027f3          	csrr	a5,mhartid
C:\Users\Michelle ZHANG\Documents\Nuclei\Nucleitest2\Helloworld\hbird_sdk\NMSIS\Core\Include/core_feature_plic.h:299
    volatile uint32_t *complete_reg = (uint32_t *)((PLIC_BASE) + PLIC_CLAIM_OFFSET + \
800004f4:	0c200737          	lui	a4,0xc200
C:\Users\Michelle ZHANG\Documents\Nuclei\Nucleitest2\Helloworld\hbird_sdk\NMSIS\Core\Include/core_feature_plic.h:300
                    + (hartid << PLIC_CLAIM_SHIFT_PER_TARGET));
800004f8:	07b2                	slli	a5,a5,0xc
C:\Users\Michelle ZHANG\Documents\Nuclei\Nucleitest2\Helloworld\hbird_sdk\NMSIS\Core\Include/core_feature_plic.h:299
    volatile uint32_t *complete_reg = (uint32_t *)((PLIC_BASE) + PLIC_CLAIM_OFFSET + \
800004fa:	0711                	addi	a4,a4,4
800004fc:	97ba                	add	a5,a5,a4
C:\Users\Michelle ZHANG\Documents\Nuclei\Nucleitest2\Helloworld\hbird_sdk\NMSIS\Core\Include/core_feature_plic.h:302

    *complete_reg = source;
800004fe:	c380                	sw	s0,0(a5)
C:\Users\Michelle ZHANG\Documents\Nuclei\Nucleitest2\Helloworld\hbird_sdk\NMSIS\Core\Include/core_feature_plic.h:303
}
80000500:	bf51                	j	80000494 <core_trap_handler+0x24>

80000502 <_premain_init>:
_premain_init():
C:\Users\Michelle ZHANG\Documents\Nuclei\Nucleitest2\Helloworld\Debug/../hbird_sdk/SoC/hbird/Common/Source/system_hbird.c:464
 * For RISC-V gnu toolchain, _init function might not be called
 * by __libc_init_array function, so we defined a new function
 * to do initialization
 */
void _premain_init(void)
{
80000502:	1141                	addi	sp,sp,-16
80000504:	c606                	sw	ra,12(sp)
80000506:	c422                	sw	s0,8(sp)
C:\Users\Michelle ZHANG\Documents\Nuclei\Nucleitest2\Helloworld\Debug/../hbird_sdk/SoC/hbird/Common/Source/system_hbird.c:466
    /* TODO: Add your own initialization code here, called before main */
    SystemCoreClock = get_cpu_freq();
80000508:	3d65                	jal	800003c0 <get_cpu_freq>
8000050a:	87aa                	mv	a5,a0
C:\Users\Michelle ZHANG\Documents\Nuclei\Nucleitest2\Helloworld\Debug/../hbird_sdk/SoC/hbird/Common/Source/system_hbird.c:468
#if ! defined(SIMULATION_SPIKE) && ! defined(SIMULATION_XLSPIKE)
    gpio_iof_config(GPIO, IOF0_UART0_MASK, IOF_SEL_0);
8000050c:	4605                	li	a2,1
C:\Users\Michelle ZHANG\Documents\Nuclei\Nucleitest2\Helloworld\Debug/../hbird_sdk/SoC/hbird/Common/Source/system_hbird.c:466
    SystemCoreClock = get_cpu_freq();
8000050e:	10000417          	auipc	s0,0x10000
80000512:	cc640413          	addi	s0,s0,-826 # 900001d4 <SystemCoreClock>
C:\Users\Michelle ZHANG\Documents\Nuclei\Nucleitest2\Helloworld\Debug/../hbird_sdk/SoC/hbird/Common/Source/system_hbird.c:468
    gpio_iof_config(GPIO, IOF0_UART0_MASK, IOF_SEL_0);
80000516:	000305b7          	lui	a1,0x30
8000051a:	10012537          	lui	a0,0x10012
C:\Users\Michelle ZHANG\Documents\Nuclei\Nucleitest2\Helloworld\Debug/../hbird_sdk/SoC/hbird/Common/Source/system_hbird.c:466
    SystemCoreClock = get_cpu_freq();
8000051e:	c01c                	sw	a5,0(s0)
C:\Users\Michelle ZHANG\Documents\Nuclei\Nucleitest2\Helloworld\Debug/../hbird_sdk/SoC/hbird/Common/Source/system_hbird.c:468
    gpio_iof_config(GPIO, IOF0_UART0_MASK, IOF_SEL_0);
80000520:	3b71                	jal	800002bc <gpio_iof_config>
C:\Users\Michelle ZHANG\Documents\Nuclei\Nucleitest2\Helloworld\Debug/../hbird_sdk/SoC/hbird/Common/Source/system_hbird.c:469
    uart_init(SOC_DEBUG_UART, 115200);
80000522:	65f1                	lui	a1,0x1c
80000524:	20058593          	addi	a1,a1,512 # 1c200 <__stack_size+0x1ba00>
80000528:	10013537          	lui	a0,0x10013
8000052c:	3be9                	jal	80000306 <uart_init>
SystemBannerPrint():
C:\Users\Michelle ZHANG\Documents\Nuclei\Nucleitest2\Helloworld\Debug/../hbird_sdk/SoC/hbird/Common/Source/system_hbird.c:381
    printf("HummingBird SDK Build Time: %s, %s\r\n", __DATE__, __TIME__);
8000052e:	00005617          	auipc	a2,0x5
80000532:	23260613          	addi	a2,a2,562 # 80005760 <__clzsi2+0x9a>
80000536:	00005597          	auipc	a1,0x5
8000053a:	23658593          	addi	a1,a1,566 # 8000576c <__clzsi2+0xa6>
8000053e:	00005517          	auipc	a0,0x5
80000542:	23a50513          	addi	a0,a0,570 # 80005778 <__clzsi2+0xb2>
80000546:	699000ef          	jal	ra,800013de <iprintf>
C:\Users\Michelle ZHANG\Documents\Nuclei\Nucleitest2\Helloworld\Debug/../hbird_sdk/SoC/hbird/Common/Source/system_hbird.c:383
    printf("Download Mode: %s\r\n", DOWNLOAD_MODE_STRING);
8000054a:	00005597          	auipc	a1,0x5
8000054e:	25658593          	addi	a1,a1,598 # 800057a0 <__clzsi2+0xda>
80000552:	00005517          	auipc	a0,0x5
80000556:	25250513          	addi	a0,a0,594 # 800057a4 <__clzsi2+0xde>
8000055a:	685000ef          	jal	ra,800013de <iprintf>
C:\Users\Michelle ZHANG\Documents\Nuclei\Nucleitest2\Helloworld\Debug/../hbird_sdk/SoC/hbird/Common/Source/system_hbird.c:385
    printf("CPU Frequency %lu Hz\r\n", SystemCoreClock);
8000055e:	400c                	lw	a1,0(s0)
80000560:	00005517          	auipc	a0,0x5
80000564:	25850513          	addi	a0,a0,600 # 800057b8 <__clzsi2+0xf2>
80000568:	677000ef          	jal	ra,800013de <iprintf>
Exception_Init():
C:\Users\Michelle ZHANG\Documents\Nuclei\Nucleitest2\Helloworld\Debug/../hbird_sdk/SoC/hbird/Common/Source/system_hbird.c:201
        SystemExceptionHandlers[i] = (unsigned long)system_default_exception_handler;
8000056c:	00000697          	auipc	a3,0x0
80000570:	e6668693          	addi	a3,a3,-410 # 800003d2 <system_default_exception_handler>
80000574:	89c18793          	addi	a5,gp,-1892 # 9000026c <SystemExceptionHandlers>
80000578:	8c818713          	addi	a4,gp,-1848 # 90000298 <SystemExtInterruptHandlers>
8000057c:	c394                	sw	a3,0(a5)
C:\Users\Michelle ZHANG\Documents\Nuclei\Nucleitest2\Helloworld\Debug/../hbird_sdk/SoC/hbird/Common/Source/system_hbird.c:200
    for (int i = 0; i < MAX_SYSTEM_EXCEPTION_NUM; i++) {
8000057e:	0791                	addi	a5,a5,4
80000580:	fee79ee3          	bne	a5,a4,8000057c <_premain_init+0x7a>
Interrupt_Init():
C:\Users\Michelle ZHANG\Documents\Nuclei\Nucleitest2\Helloworld\Debug/../hbird_sdk/SoC/hbird/Common/Source/system_hbird.c:216
        SystemExtInterruptHandlers[i] = (unsigned long)system_default_interrupt_handler;
80000584:	00000717          	auipc	a4,0x0
80000588:	e9270713          	addi	a4,a4,-366 # 80000416 <system_default_interrupt_handler>
8000058c:	8c818793          	addi	a5,gp,-1848 # 90000298 <SystemExtInterruptHandlers>
80000590:	99c18693          	addi	a3,gp,-1636 # 9000036c <_global_atexit0>
80000594:	c398                	sw	a4,0(a5)
C:\Users\Michelle ZHANG\Documents\Nuclei\Nucleitest2\Helloworld\Debug/../hbird_sdk/SoC/hbird/Common/Source/system_hbird.c:215
    for (i = 0; i < __PLIC_INTNUM; i++) {
80000596:	0791                	addi	a5,a5,4
80000598:	fed79ee3          	bne	a5,a3,80000594 <_premain_init+0x92>
8000059c:	87418793          	addi	a5,gp,-1932 # 90000244 <SystemCoreInterruptHandlers>
800005a0:	89c18693          	addi	a3,gp,-1892 # 9000026c <SystemExceptionHandlers>
C:\Users\Michelle ZHANG\Documents\Nuclei\Nucleitest2\Helloworld\Debug/../hbird_sdk/SoC/hbird/Common/Source/system_hbird.c:219
        SystemCoreInterruptHandlers[i] = (unsigned long)system_default_interrupt_handler;
800005a4:	c398                	sw	a4,0(a5)
C:\Users\Michelle ZHANG\Documents\Nuclei\Nucleitest2\Helloworld\Debug/../hbird_sdk/SoC/hbird/Common/Source/system_hbird.c:218
    for (i = 0; i < 10; i++) {
800005a6:	0791                	addi	a5,a5,4
800005a8:	fef69ee3          	bne	a3,a5,800005a4 <_premain_init+0xa2>
800005ac:	0c000637          	lui	a2,0xc000
PLIC_Init():
C:\Users\Michelle ZHANG\Documents\Nuclei\Nucleitest2\Helloworld\hbird_sdk\NMSIS\Core\Include/core_feature_plic.h:318
 */
__STATIC_FORCEINLINE void PLIC_Init(uint32_t num_sources)
{
    uint32_t i;

    for (i = 0; i < num_sources; i ++) {
800005b0:	4681                	li	a3,0
PLIC_DisableInterrupt():
C:\Users\Michelle ZHANG\Documents\Nuclei\Nucleitest2\Helloworld\hbird_sdk\NMSIS\Core\Include/core_feature_plic.h:193
                    (hartid << PLIC_ENABLE_SHIFT_PER_TARGET) + (source >> 5) * 4);
800005b2:	0c0028b7          	lui	a7,0xc002
C:\Users\Michelle ZHANG\Documents\Nuclei\Nucleitest2\Helloworld\hbird_sdk\NMSIS\Core\Include/core_feature_plic.h:196
    current = current & (~(1<<(source&0x1F)));
800005b6:	4805                	li	a6,1
PLIC_Init():
C:\Users\Michelle ZHANG\Documents\Nuclei\Nucleitest2\Helloworld\hbird_sdk\NMSIS\Core\Include/core_feature_plic.h:318
    for (i = 0; i < num_sources; i ++) {
800005b8:	03500513          	li	a0,53
PLIC_DisableInterrupt():
C:\Users\Michelle ZHANG\Documents\Nuclei\Nucleitest2\Helloworld\hbird_sdk\NMSIS\Core\Include/core_feature_plic.h:191
    uint32_t hartid = __RV_CSR_READ(CSR_MHARTID);
800005bc:	f1402773          	csrr	a4,mhartid
C:\Users\Michelle ZHANG\Documents\Nuclei\Nucleitest2\Helloworld\hbird_sdk\NMSIS\Core\Include/core_feature_plic.h:193
                    (hartid << PLIC_ENABLE_SHIFT_PER_TARGET) + (source >> 5) * 4);
800005c0:	0056d793          	srli	a5,a3,0x5
800005c4:	071e                	slli	a4,a4,0x7
800005c6:	9746                	add	a4,a4,a7
800005c8:	078a                	slli	a5,a5,0x2
800005ca:	97ba                	add	a5,a5,a4
C:\Users\Michelle ZHANG\Documents\Nuclei\Nucleitest2\Helloworld\hbird_sdk\NMSIS\Core\Include/core_feature_plic.h:195
    uint32_t current = *enable_reg;
800005cc:	438c                	lw	a1,0(a5)
C:\Users\Michelle ZHANG\Documents\Nuclei\Nucleitest2\Helloworld\hbird_sdk\NMSIS\Core\Include/core_feature_plic.h:196
    current = current & (~(1<<(source&0x1F)));
800005ce:	00d81733          	sll	a4,a6,a3
800005d2:	fff74713          	not	a4,a4
800005d6:	8f6d                	and	a4,a4,a1
C:\Users\Michelle ZHANG\Documents\Nuclei\Nucleitest2\Helloworld\hbird_sdk\NMSIS\Core\Include/core_feature_plic.h:197
    *enable_reg = current;
800005d8:	c398                	sw	a4,0(a5)
PLIC_SetPriority():
C:\Users\Michelle ZHANG\Documents\Nuclei\Nucleitest2\Helloworld\hbird_sdk\NMSIS\Core\Include/core_feature_plic.h:237
    *priority_reg = priority;
800005da:	00062023          	sw	zero,0(a2) # c000000 <__stack_size+0xbfff800>
PLIC_Init():
C:\Users\Michelle ZHANG\Documents\Nuclei\Nucleitest2\Helloworld\hbird_sdk\NMSIS\Core\Include/core_feature_plic.h:318
    for (i = 0; i < num_sources; i ++) {
800005de:	0685                	addi	a3,a3,1
800005e0:	0611                	addi	a2,a2,4
800005e2:	fca69de3          	bne	a3,a0,800005bc <_premain_init+0xba>
PLIC_SetThreshold():
C:\Users\Michelle ZHANG\Documents\Nuclei\Nucleitest2\Helloworld\hbird_sdk\NMSIS\Core\Include/core_feature_plic.h:135
    uint32_t hartid = __RV_CSR_READ(CSR_MHARTID);
800005e6:	f14027f3          	csrr	a5,mhartid
C:\Users\Michelle ZHANG\Documents\Nuclei\Nucleitest2\Helloworld\hbird_sdk\NMSIS\Core\Include/core_feature_plic.h:137
                    PLIC_THRESHOLD_OFFSET + (hartid << PLIC_THRESHOLD_SHIFT_PER_TARGET));
800005ea:	0c200737          	lui	a4,0xc200
_premain_init():
C:\Users\Michelle ZHANG\Documents\Nuclei\Nucleitest2\Helloworld\Debug/../hbird_sdk/SoC/hbird/Common/Source/system_hbird.c:481
    Interrupt_Init();
#if defined(__PLIC_PRESENT) && __PLIC_PRESENT == 1
    /* PLIC initilization */
    PLIC_Init(__PLIC_INTNUM);
#endif
}
800005ee:	40b2                	lw	ra,12(sp)
800005f0:	4422                	lw	s0,8(sp)
PLIC_SetThreshold():
C:\Users\Michelle ZHANG\Documents\Nuclei\Nucleitest2\Helloworld\hbird_sdk\NMSIS\Core\Include/core_feature_plic.h:137
800005f2:	07b2                	slli	a5,a5,0xc
800005f4:	97ba                	add	a5,a5,a4
C:\Users\Michelle ZHANG\Documents\Nuclei\Nucleitest2\Helloworld\hbird_sdk\NMSIS\Core\Include/core_feature_plic.h:139
    *thresh_reg = thresh;
800005f6:	0007a023          	sw	zero,0(a5)
_premain_init():
C:\Users\Michelle ZHANG\Documents\Nuclei\Nucleitest2\Helloworld\Debug/../hbird_sdk/SoC/hbird/Common/Source/system_hbird.c:481
800005fa:	0141                	addi	sp,sp,16
800005fc:	8082                	ret

800005fe <_postmain_fini>:
_postmain_fini():
C:\Users\Michelle ZHANG\Documents\Nuclei\Nucleitest2\Helloworld\Debug/../hbird_sdk/SoC/hbird/Common/Source/system_hbird.c:502
#endif
#ifdef SIMULATION_SPIKE
extern void spike_exit(int status);
    spike_exit(status);
#endif
}
800005fe:	8082                	ret

80000600 <_init>:
_init():
C:\Users\Michelle ZHANG\Documents\Nuclei\Nucleitest2\Helloworld\Debug/../hbird_sdk/SoC/hbird/Common/Source/system_hbird.c:516
 * Please use \ref _premain_init function now
 */
void _init(void)
{
    /* Don't put any code here, please use _premain_init now */
}
80000600:	8082                	ret

80000602 <_fini>:
_fini():
80000602:	8082                	ret

80000604 <__udivdi3>:
__udivdi3():
/home/xl_ci/toolchain/riscv-gnu-toolchain/riscv-gcc/libgcc/libgcc2.c:1319
80000604:	88aa                	mv	a7,a0
80000606:	87ae                	mv	a5,a1
__udivmoddi4():
/home/xl_ci/toolchain/riscv-gnu-toolchain/riscv-gcc/libgcc/libgcc2.c:1024
80000608:	8832                	mv	a6,a2
/home/xl_ci/toolchain/riscv-gnu-toolchain/riscv-gcc/libgcc/libgcc2.c:1025
8000060a:	8536                	mv	a0,a3
/home/xl_ci/toolchain/riscv-gnu-toolchain/riscv-gcc/libgcc/libgcc2.c:1026
8000060c:	8346                	mv	t1,a7
/home/xl_ci/toolchain/riscv-gnu-toolchain/riscv-gcc/libgcc/libgcc2.c:1064
8000060e:	20069663          	bnez	a3,8000081a <__udivdi3+0x216>
/home/xl_ci/toolchain/riscv-gnu-toolchain/riscv-gcc/libgcc/libgcc2.c:1066
80000612:	00005697          	auipc	a3,0x5
80000616:	1c268693          	addi	a3,a3,450 # 800057d4 <__clz_tab>
8000061a:	0ac5ff63          	bgeu	a1,a2,800006d8 <__udivdi3+0xd4>
/home/xl_ci/toolchain/riscv-gnu-toolchain/riscv-gcc/libgcc/libgcc2.c:1070
8000061e:	6741                	lui	a4,0x10
80000620:	0ae67563          	bgeu	a2,a4,800006ca <__udivdi3+0xc6>
80000624:	0ff00713          	li	a4,255
80000628:	00c73733          	sltu	a4,a4,a2
8000062c:	070e                	slli	a4,a4,0x3
8000062e:	00e65533          	srl	a0,a2,a4
80000632:	96aa                	add	a3,a3,a0
80000634:	0006c683          	lbu	a3,0(a3)
80000638:	02000513          	li	a0,32
8000063c:	9736                	add	a4,a4,a3
8000063e:	40e506b3          	sub	a3,a0,a4
/home/xl_ci/toolchain/riscv-gnu-toolchain/riscv-gcc/libgcc/libgcc2.c:1072
80000642:	00e50b63          	beq	a0,a4,80000658 <__udivdi3+0x54>
/home/xl_ci/toolchain/riscv-gnu-toolchain/riscv-gcc/libgcc/libgcc2.c:1078
80000646:	00d795b3          	sll	a1,a5,a3
8000064a:	00e8d733          	srl	a4,a7,a4
/home/xl_ci/toolchain/riscv-gnu-toolchain/riscv-gcc/libgcc/libgcc2.c:1077
8000064e:	00d61833          	sll	a6,a2,a3
/home/xl_ci/toolchain/riscv-gnu-toolchain/riscv-gcc/libgcc/libgcc2.c:1078
80000652:	8dd9                	or	a1,a1,a4
/home/xl_ci/toolchain/riscv-gnu-toolchain/riscv-gcc/libgcc/libgcc2.c:1079
80000654:	00d89333          	sll	t1,a7,a3
/home/xl_ci/toolchain/riscv-gnu-toolchain/riscv-gcc/libgcc/libgcc2.c:1082
80000658:	01085893          	srli	a7,a6,0x10
8000065c:	0315d6b3          	divu	a3,a1,a7
80000660:	01081613          	slli	a2,a6,0x10
80000664:	8241                	srli	a2,a2,0x10
80000666:	01035793          	srli	a5,t1,0x10
8000066a:	0315f733          	remu	a4,a1,a7
8000066e:	8536                	mv	a0,a3
80000670:	02d605b3          	mul	a1,a2,a3
80000674:	0742                	slli	a4,a4,0x10
80000676:	8fd9                	or	a5,a5,a4
80000678:	00b7fc63          	bgeu	a5,a1,80000690 <__udivdi3+0x8c>
8000067c:	97c2                	add	a5,a5,a6
8000067e:	fff68513          	addi	a0,a3,-1
80000682:	0107e763          	bltu	a5,a6,80000690 <__udivdi3+0x8c>
80000686:	00b7f563          	bgeu	a5,a1,80000690 <__udivdi3+0x8c>
8000068a:	ffe68513          	addi	a0,a3,-2
8000068e:	97c2                	add	a5,a5,a6
80000690:	8f8d                	sub	a5,a5,a1
80000692:	0317f733          	remu	a4,a5,a7
80000696:	0342                	slli	t1,t1,0x10
80000698:	01035313          	srli	t1,t1,0x10
8000069c:	0317d7b3          	divu	a5,a5,a7
800006a0:	0742                	slli	a4,a4,0x10
800006a2:	00676333          	or	t1,a4,t1
800006a6:	02f606b3          	mul	a3,a2,a5
800006aa:	863e                	mv	a2,a5
800006ac:	00d37b63          	bgeu	t1,a3,800006c2 <__udivdi3+0xbe>
800006b0:	9342                	add	t1,t1,a6
800006b2:	fff78613          	addi	a2,a5,-1
800006b6:	01036663          	bltu	t1,a6,800006c2 <__udivdi3+0xbe>
800006ba:	00d37463          	bgeu	t1,a3,800006c2 <__udivdi3+0xbe>
800006be:	ffe78613          	addi	a2,a5,-2
800006c2:	0542                	slli	a0,a0,0x10
800006c4:	8d51                	or	a0,a0,a2
/home/xl_ci/toolchain/riscv-gnu-toolchain/riscv-gcc/libgcc/libgcc2.c:1209
800006c6:	4581                	li	a1,0
800006c8:	a85d                	j	8000077e <__udivdi3+0x17a>
/home/xl_ci/toolchain/riscv-gnu-toolchain/riscv-gcc/libgcc/libgcc2.c:1070
800006ca:	01000537          	lui	a0,0x1000
800006ce:	4741                	li	a4,16
800006d0:	f4a66fe3          	bltu	a2,a0,8000062e <__udivdi3+0x2a>
800006d4:	4761                	li	a4,24
800006d6:	bfa1                	j	8000062e <__udivdi3+0x2a>
/home/xl_ci/toolchain/riscv-gnu-toolchain/riscv-gcc/libgcc/libgcc2.c:1091
800006d8:	e601                	bnez	a2,800006e0 <__udivdi3+0xdc>
/home/xl_ci/toolchain/riscv-gnu-toolchain/riscv-gcc/libgcc/libgcc2.c:1092
800006da:	4705                	li	a4,1
800006dc:	02c75833          	divu	a6,a4,a2
/home/xl_ci/toolchain/riscv-gnu-toolchain/riscv-gcc/libgcc/libgcc2.c:1094
800006e0:	6741                	lui	a4,0x10
800006e2:	08e87f63          	bgeu	a6,a4,80000780 <__udivdi3+0x17c>
800006e6:	0ff00713          	li	a4,255
800006ea:	01077363          	bgeu	a4,a6,800006f0 <__udivdi3+0xec>
800006ee:	4521                	li	a0,8
800006f0:	00a85733          	srl	a4,a6,a0
800006f4:	96ba                	add	a3,a3,a4
800006f6:	0006c703          	lbu	a4,0(a3)
800006fa:	02000613          	li	a2,32
800006fe:	972a                	add	a4,a4,a0
80000700:	40e606b3          	sub	a3,a2,a4
/home/xl_ci/toolchain/riscv-gnu-toolchain/riscv-gcc/libgcc/libgcc2.c:1096
80000704:	08e61563          	bne	a2,a4,8000078e <__udivdi3+0x18a>
/home/xl_ci/toolchain/riscv-gnu-toolchain/riscv-gcc/libgcc/libgcc2.c:1105
80000708:	410787b3          	sub	a5,a5,a6
/home/xl_ci/toolchain/riscv-gnu-toolchain/riscv-gcc/libgcc/libgcc2.c:1106
8000070c:	4585                	li	a1,1
/home/xl_ci/toolchain/riscv-gnu-toolchain/riscv-gcc/libgcc/libgcc2.c:1124
8000070e:	01085893          	srli	a7,a6,0x10
80000712:	01081613          	slli	a2,a6,0x10
80000716:	8241                	srli	a2,a2,0x10
80000718:	01035713          	srli	a4,t1,0x10
8000071c:	0317f6b3          	remu	a3,a5,a7
80000720:	0317d7b3          	divu	a5,a5,a7
80000724:	06c2                	slli	a3,a3,0x10
80000726:	8f55                	or	a4,a4,a3
80000728:	02f60e33          	mul	t3,a2,a5
8000072c:	853e                	mv	a0,a5
8000072e:	01c77c63          	bgeu	a4,t3,80000746 <__udivdi3+0x142>
80000732:	9742                	add	a4,a4,a6
80000734:	fff78513          	addi	a0,a5,-1
80000738:	01076763          	bltu	a4,a6,80000746 <__udivdi3+0x142>
8000073c:	01c77563          	bgeu	a4,t3,80000746 <__udivdi3+0x142>
80000740:	ffe78513          	addi	a0,a5,-2
80000744:	9742                	add	a4,a4,a6
80000746:	41c70733          	sub	a4,a4,t3
8000074a:	031777b3          	remu	a5,a4,a7
8000074e:	0342                	slli	t1,t1,0x10
80000750:	01035313          	srli	t1,t1,0x10
80000754:	03175733          	divu	a4,a4,a7
80000758:	07c2                	slli	a5,a5,0x10
8000075a:	0067e333          	or	t1,a5,t1
8000075e:	02e606b3          	mul	a3,a2,a4
80000762:	863a                	mv	a2,a4
80000764:	00d37b63          	bgeu	t1,a3,8000077a <__udivdi3+0x176>
80000768:	9342                	add	t1,t1,a6
8000076a:	fff70613          	addi	a2,a4,-1 # ffff <__stack_size+0xf7ff>
8000076e:	01036663          	bltu	t1,a6,8000077a <__udivdi3+0x176>
80000772:	00d37463          	bgeu	t1,a3,8000077a <__udivdi3+0x176>
80000776:	ffe70613          	addi	a2,a4,-2
8000077a:	0542                	slli	a0,a0,0x10
8000077c:	8d51                	or	a0,a0,a2
__udivdi3():
/home/xl_ci/toolchain/riscv-gnu-toolchain/riscv-gcc/libgcc/libgcc2.c:1321
8000077e:	8082                	ret
__udivmoddi4():
/home/xl_ci/toolchain/riscv-gnu-toolchain/riscv-gcc/libgcc/libgcc2.c:1094
80000780:	01000737          	lui	a4,0x1000
80000784:	4541                	li	a0,16
80000786:	f6e865e3          	bltu	a6,a4,800006f0 <__udivdi3+0xec>
8000078a:	4561                	li	a0,24
8000078c:	b795                	j	800006f0 <__udivdi3+0xec>
/home/xl_ci/toolchain/riscv-gnu-toolchain/riscv-gcc/libgcc/libgcc2.c:1114
8000078e:	00d81833          	sll	a6,a6,a3
/home/xl_ci/toolchain/riscv-gnu-toolchain/riscv-gcc/libgcc/libgcc2.c:1115
80000792:	00e7d533          	srl	a0,a5,a4
/home/xl_ci/toolchain/riscv-gnu-toolchain/riscv-gcc/libgcc/libgcc2.c:1117
80000796:	00d89333          	sll	t1,a7,a3
/home/xl_ci/toolchain/riscv-gnu-toolchain/riscv-gcc/libgcc/libgcc2.c:1116
8000079a:	00d797b3          	sll	a5,a5,a3
8000079e:	00e8d733          	srl	a4,a7,a4
/home/xl_ci/toolchain/riscv-gnu-toolchain/riscv-gcc/libgcc/libgcc2.c:1119
800007a2:	01085893          	srli	a7,a6,0x10
/home/xl_ci/toolchain/riscv-gnu-toolchain/riscv-gcc/libgcc/libgcc2.c:1116
800007a6:	00f76633          	or	a2,a4,a5
/home/xl_ci/toolchain/riscv-gnu-toolchain/riscv-gcc/libgcc/libgcc2.c:1119
800007aa:	03157733          	remu	a4,a0,a7
800007ae:	01081793          	slli	a5,a6,0x10
800007b2:	83c1                	srli	a5,a5,0x10
800007b4:	01065593          	srli	a1,a2,0x10
800007b8:	03155533          	divu	a0,a0,a7
800007bc:	0742                	slli	a4,a4,0x10
800007be:	8f4d                	or	a4,a4,a1
800007c0:	02a786b3          	mul	a3,a5,a0
800007c4:	85aa                	mv	a1,a0
800007c6:	00d77c63          	bgeu	a4,a3,800007de <__udivdi3+0x1da>
800007ca:	9742                	add	a4,a4,a6
800007cc:	fff50593          	addi	a1,a0,-1 # ffffff <__stack_size+0xfff7ff>
800007d0:	01076763          	bltu	a4,a6,800007de <__udivdi3+0x1da>
800007d4:	00d77563          	bgeu	a4,a3,800007de <__udivdi3+0x1da>
800007d8:	ffe50593          	addi	a1,a0,-2
800007dc:	9742                	add	a4,a4,a6
800007de:	40d706b3          	sub	a3,a4,a3
800007e2:	0316f733          	remu	a4,a3,a7
800007e6:	0642                	slli	a2,a2,0x10
800007e8:	8241                	srli	a2,a2,0x10
800007ea:	0316d6b3          	divu	a3,a3,a7
800007ee:	0742                	slli	a4,a4,0x10
800007f0:	02d78533          	mul	a0,a5,a3
800007f4:	00c767b3          	or	a5,a4,a2
800007f8:	8736                	mv	a4,a3
800007fa:	00a7fc63          	bgeu	a5,a0,80000812 <__udivdi3+0x20e>
800007fe:	97c2                	add	a5,a5,a6
80000800:	fff68713          	addi	a4,a3,-1
80000804:	0107e763          	bltu	a5,a6,80000812 <__udivdi3+0x20e>
80000808:	00a7f563          	bgeu	a5,a0,80000812 <__udivdi3+0x20e>
8000080c:	ffe68713          	addi	a4,a3,-2
80000810:	97c2                	add	a5,a5,a6
80000812:	05c2                	slli	a1,a1,0x10
80000814:	8f89                	sub	a5,a5,a0
80000816:	8dd9                	or	a1,a1,a4
80000818:	bddd                	j	8000070e <__udivdi3+0x10a>
/home/xl_ci/toolchain/riscv-gnu-toolchain/riscv-gcc/libgcc/libgcc2.c:1140
8000081a:	14d5e263          	bltu	a1,a3,8000095e <__udivdi3+0x35a>
/home/xl_ci/toolchain/riscv-gnu-toolchain/riscv-gcc/libgcc/libgcc2.c:1159
8000081e:	6741                	lui	a4,0x10
80000820:	02e6ff63          	bgeu	a3,a4,8000085e <__udivdi3+0x25a>
80000824:	0ff00713          	li	a4,255
80000828:	00d735b3          	sltu	a1,a4,a3
8000082c:	058e                	slli	a1,a1,0x3
8000082e:	00b6d533          	srl	a0,a3,a1
80000832:	00005717          	auipc	a4,0x5
80000836:	fa270713          	addi	a4,a4,-94 # 800057d4 <__clz_tab>
8000083a:	972a                	add	a4,a4,a0
8000083c:	00074703          	lbu	a4,0(a4)
80000840:	02000513          	li	a0,32
80000844:	972e                	add	a4,a4,a1
80000846:	40e505b3          	sub	a1,a0,a4
/home/xl_ci/toolchain/riscv-gnu-toolchain/riscv-gcc/libgcc/libgcc2.c:1160
8000084a:	02e51163          	bne	a0,a4,8000086c <__udivdi3+0x268>
/home/xl_ci/toolchain/riscv-gnu-toolchain/riscv-gcc/libgcc/libgcc2.c:1172
8000084e:	4505                	li	a0,1
/home/xl_ci/toolchain/riscv-gnu-toolchain/riscv-gcc/libgcc/libgcc2.c:1170
80000850:	f2f6e7e3          	bltu	a3,a5,8000077e <__udivdi3+0x17a>
80000854:	00c8b533          	sltu	a0,a7,a2
80000858:	00154513          	xori	a0,a0,1
8000085c:	b70d                	j	8000077e <__udivdi3+0x17a>
/home/xl_ci/toolchain/riscv-gnu-toolchain/riscv-gcc/libgcc/libgcc2.c:1159
8000085e:	01000737          	lui	a4,0x1000
80000862:	45c1                	li	a1,16
80000864:	fce6e5e3          	bltu	a3,a4,8000082e <__udivdi3+0x22a>
80000868:	45e1                	li	a1,24
8000086a:	b7d1                	j	8000082e <__udivdi3+0x22a>
/home/xl_ci/toolchain/riscv-gnu-toolchain/riscv-gcc/libgcc/libgcc2.c:1194
8000086c:	00e65833          	srl	a6,a2,a4
80000870:	00b696b3          	sll	a3,a3,a1
80000874:	00d86833          	or	a6,a6,a3
/home/xl_ci/toolchain/riscv-gnu-toolchain/riscv-gcc/libgcc/libgcc2.c:1196
80000878:	00e7d333          	srl	t1,a5,a4
/home/xl_ci/toolchain/riscv-gnu-toolchain/riscv-gcc/libgcc/libgcc2.c:1200
8000087c:	01085e93          	srli	t4,a6,0x10
80000880:	03d376b3          	remu	a3,t1,t4
/home/xl_ci/toolchain/riscv-gnu-toolchain/riscv-gcc/libgcc/libgcc2.c:1197
80000884:	00b797b3          	sll	a5,a5,a1
80000888:	00e8d733          	srl	a4,a7,a4
/home/xl_ci/toolchain/riscv-gnu-toolchain/riscv-gcc/libgcc/libgcc2.c:1195
8000088c:	00b61e33          	sll	t3,a2,a1
/home/xl_ci/toolchain/riscv-gnu-toolchain/riscv-gcc/libgcc/libgcc2.c:1197
80000890:	00f76633          	or	a2,a4,a5
/home/xl_ci/toolchain/riscv-gnu-toolchain/riscv-gcc/libgcc/libgcc2.c:1200
80000894:	01081793          	slli	a5,a6,0x10
80000898:	83c1                	srli	a5,a5,0x10
8000089a:	01065713          	srli	a4,a2,0x10
8000089e:	03d35333          	divu	t1,t1,t4
800008a2:	06c2                	slli	a3,a3,0x10
800008a4:	8f55                	or	a4,a4,a3
800008a6:	02678f33          	mul	t5,a5,t1
800008aa:	851a                	mv	a0,t1
800008ac:	01e77c63          	bgeu	a4,t5,800008c4 <__udivdi3+0x2c0>
800008b0:	9742                	add	a4,a4,a6
800008b2:	fff30513          	addi	a0,t1,-1
800008b6:	01076763          	bltu	a4,a6,800008c4 <__udivdi3+0x2c0>
800008ba:	01e77563          	bgeu	a4,t5,800008c4 <__udivdi3+0x2c0>
800008be:	ffe30513          	addi	a0,t1,-2
800008c2:	9742                	add	a4,a4,a6
800008c4:	41e70733          	sub	a4,a4,t5
800008c8:	03d776b3          	remu	a3,a4,t4
800008cc:	03d75733          	divu	a4,a4,t4
800008d0:	06c2                	slli	a3,a3,0x10
800008d2:	02e78333          	mul	t1,a5,a4
800008d6:	01061793          	slli	a5,a2,0x10
800008da:	83c1                	srli	a5,a5,0x10
800008dc:	8fd5                	or	a5,a5,a3
800008de:	863a                	mv	a2,a4
800008e0:	0067fc63          	bgeu	a5,t1,800008f8 <__udivdi3+0x2f4>
800008e4:	97c2                	add	a5,a5,a6
800008e6:	fff70613          	addi	a2,a4,-1 # ffffff <__stack_size+0xfff7ff>
800008ea:	0107e763          	bltu	a5,a6,800008f8 <__udivdi3+0x2f4>
800008ee:	0067f563          	bgeu	a5,t1,800008f8 <__udivdi3+0x2f4>
800008f2:	ffe70613          	addi	a2,a4,-2
800008f6:	97c2                	add	a5,a5,a6
800008f8:	0542                	slli	a0,a0,0x10
/home/xl_ci/toolchain/riscv-gnu-toolchain/riscv-gcc/libgcc/libgcc2.c:1201
800008fa:	6ec1                	lui	t4,0x10
/home/xl_ci/toolchain/riscv-gnu-toolchain/riscv-gcc/libgcc/libgcc2.c:1200
800008fc:	8d51                	or	a0,a0,a2
/home/xl_ci/toolchain/riscv-gnu-toolchain/riscv-gcc/libgcc/libgcc2.c:1201
800008fe:	fffe8693          	addi	a3,t4,-1 # ffff <__stack_size+0xf7ff>
80000902:	010e5613          	srli	a2,t3,0x10
80000906:	01055813          	srli	a6,a0,0x10
/home/xl_ci/toolchain/riscv-gnu-toolchain/riscv-gcc/libgcc/libgcc2.c:1200
8000090a:	406787b3          	sub	a5,a5,t1
/home/xl_ci/toolchain/riscv-gnu-toolchain/riscv-gcc/libgcc/libgcc2.c:1201
8000090e:	00d57333          	and	t1,a0,a3
80000912:	00de76b3          	and	a3,t3,a3
80000916:	02d30e33          	mul	t3,t1,a3
8000091a:	02d806b3          	mul	a3,a6,a3
8000091e:	010e5713          	srli	a4,t3,0x10
80000922:	02c30333          	mul	t1,t1,a2
80000926:	9336                	add	t1,t1,a3
80000928:	971a                	add	a4,a4,t1
8000092a:	02c80833          	mul	a6,a6,a2
8000092e:	00d77363          	bgeu	a4,a3,80000934 <__udivdi3+0x330>
80000932:	9876                	add	a6,a6,t4
80000934:	01075693          	srli	a3,a4,0x10
80000938:	9836                	add	a6,a6,a3
/home/xl_ci/toolchain/riscv-gnu-toolchain/riscv-gcc/libgcc/libgcc2.c:1203
8000093a:	0307e063          	bltu	a5,a6,8000095a <__udivdi3+0x356>
8000093e:	d90794e3          	bne	a5,a6,800006c6 <__udivdi3+0xc2>
/home/xl_ci/toolchain/riscv-gnu-toolchain/riscv-gcc/libgcc/libgcc2.c:1201
80000942:	67c1                	lui	a5,0x10
80000944:	17fd                	addi	a5,a5,-1
80000946:	8f7d                	and	a4,a4,a5
80000948:	0742                	slli	a4,a4,0x10
8000094a:	00fe7e33          	and	t3,t3,a5
/home/xl_ci/toolchain/riscv-gnu-toolchain/riscv-gcc/libgcc/libgcc2.c:1198
8000094e:	00b898b3          	sll	a7,a7,a1
/home/xl_ci/toolchain/riscv-gnu-toolchain/riscv-gcc/libgcc/libgcc2.c:1201
80000952:	9772                	add	a4,a4,t3
/home/xl_ci/toolchain/riscv-gnu-toolchain/riscv-gcc/libgcc/libgcc2.c:1209
80000954:	4581                	li	a1,0
/home/xl_ci/toolchain/riscv-gnu-toolchain/riscv-gcc/libgcc/libgcc2.c:1203
80000956:	e2e8f4e3          	bgeu	a7,a4,8000077e <__udivdi3+0x17a>
/home/xl_ci/toolchain/riscv-gnu-toolchain/riscv-gcc/libgcc/libgcc2.c:1205
8000095a:	157d                	addi	a0,a0,-1
__udivdi3():
/home/xl_ci/toolchain/riscv-gnu-toolchain/riscv-gcc/libgcc/libgcc2.c:1206
8000095c:	b3ad                	j	800006c6 <__udivdi3+0xc2>
__udivmoddi4():
/home/xl_ci/toolchain/riscv-gnu-toolchain/riscv-gcc/libgcc/libgcc2.c:1145
8000095e:	4581                	li	a1,0
/home/xl_ci/toolchain/riscv-gnu-toolchain/riscv-gcc/libgcc/libgcc2.c:1144
80000960:	4501                	li	a0,0
80000962:	bd31                	j	8000077e <__udivdi3+0x17a>

80000964 <atexit>:
atexit():
80000964:	85aa                	mv	a1,a0
80000966:	4681                	li	a3,0
80000968:	4601                	li	a2,0
8000096a:	4501                	li	a0,0
8000096c:	5890006f          	j	800016f4 <__register_exitproc>

80000970 <__libc_fini_array>:
__libc_fini_array():
80000970:	1141                	addi	sp,sp,-16
80000972:	c422                	sw	s0,8(sp)
80000974:	c226                	sw	s1,4(sp)
80000976:	00005417          	auipc	s0,0x5
8000097a:	41640413          	addi	s0,s0,1046 # 80005d8c <__fsymtab_end>
8000097e:	00005497          	auipc	s1,0x5
80000982:	40e48493          	addi	s1,s1,1038 # 80005d8c <__fsymtab_end>
80000986:	8c05                	sub	s0,s0,s1
80000988:	c606                	sw	ra,12(sp)
8000098a:	8409                	srai	s0,s0,0x2
8000098c:	e411                	bnez	s0,80000998 <__libc_fini_array+0x28>
8000098e:	40b2                	lw	ra,12(sp)
80000990:	4422                	lw	s0,8(sp)
80000992:	4492                	lw	s1,4(sp)
80000994:	0141                	addi	sp,sp,16
80000996:	8082                	ret
80000998:	147d                	addi	s0,s0,-1
8000099a:	00241793          	slli	a5,s0,0x2
8000099e:	97a6                	add	a5,a5,s1
800009a0:	439c                	lw	a5,0(a5)
800009a2:	9782                	jalr	a5
800009a4:	b7e5                	j	8000098c <__libc_fini_array+0x1c>

800009a6 <__libc_init_array>:
__libc_init_array():
800009a6:	1141                	addi	sp,sp,-16
800009a8:	c422                	sw	s0,8(sp)
800009aa:	c226                	sw	s1,4(sp)
800009ac:	00005417          	auipc	s0,0x5
800009b0:	3e040413          	addi	s0,s0,992 # 80005d8c <__fsymtab_end>
800009b4:	00005497          	auipc	s1,0x5
800009b8:	3d848493          	addi	s1,s1,984 # 80005d8c <__fsymtab_end>
800009bc:	8c81                	sub	s1,s1,s0
800009be:	c04a                	sw	s2,0(sp)
800009c0:	c606                	sw	ra,12(sp)
800009c2:	8489                	srai	s1,s1,0x2
800009c4:	4901                	li	s2,0
800009c6:	02991563          	bne	s2,s1,800009f0 <__libc_init_array+0x4a>
800009ca:	00005417          	auipc	s0,0x5
800009ce:	3c240413          	addi	s0,s0,962 # 80005d8c <__fsymtab_end>
800009d2:	00005497          	auipc	s1,0x5
800009d6:	3ba48493          	addi	s1,s1,954 # 80005d8c <__fsymtab_end>
800009da:	8c81                	sub	s1,s1,s0
800009dc:	8489                	srai	s1,s1,0x2
800009de:	4901                	li	s2,0
800009e0:	00991d63          	bne	s2,s1,800009fa <__libc_init_array+0x54>
800009e4:	40b2                	lw	ra,12(sp)
800009e6:	4422                	lw	s0,8(sp)
800009e8:	4492                	lw	s1,4(sp)
800009ea:	4902                	lw	s2,0(sp)
800009ec:	0141                	addi	sp,sp,16
800009ee:	8082                	ret
800009f0:	401c                	lw	a5,0(s0)
800009f2:	0905                	addi	s2,s2,1
800009f4:	0411                	addi	s0,s0,4
800009f6:	9782                	jalr	a5
800009f8:	b7f9                	j	800009c6 <__libc_init_array+0x20>
800009fa:	401c                	lw	a5,0(s0)
800009fc:	0905                	addi	s2,s2,1
800009fe:	0411                	addi	s0,s0,4
80000a00:	9782                	jalr	a5
80000a02:	bff9                	j	800009e0 <__libc_init_array+0x3a>

80000a04 <__cvt>:
__cvt():
80000a04:	7179                	addi	sp,sp,-48
80000a06:	d422                	sw	s0,40(sp)
80000a08:	d04a                	sw	s2,32(sp)
80000a0a:	cc52                	sw	s4,24(sp)
80000a0c:	ca56                	sw	s5,20(sp)
80000a0e:	c85a                	sw	s6,16(sp)
80000a10:	d606                	sw	ra,44(sp)
80000a12:	d226                	sw	s1,36(sp)
80000a14:	ce4e                	sw	s3,28(sp)
80000a16:	8b3a                	mv	s6,a4
80000a18:	8a2e                	mv	s4,a1
80000a1a:	8432                	mv	s0,a2
80000a1c:	8936                	mv	s2,a3
80000a1e:	8ac2                	mv	s5,a6
80000a20:	4701                	li	a4,0
80000a22:	00065863          	bgez	a2,80000a32 <__cvt+0x2e>
80000a26:	80000737          	lui	a4,0x80000
80000a2a:	00c74433          	xor	s0,a4,a2
80000a2e:	02d00713          	li	a4,45
80000a32:	00e78023          	sb	a4,0(a5) # 10000 <__stack_size+0xf800>
80000a36:	fdf8f493          	andi	s1,a7,-33
80000a3a:	04600793          	li	a5,70
80000a3e:	468d                	li	a3,3
80000a40:	00f48863          	beq	s1,a5,80000a50 <__cvt+0x4c>
80000a44:	04500793          	li	a5,69
80000a48:	4689                	li	a3,2
80000a4a:	00f49363          	bne	s1,a5,80000a50 <__cvt+0x4c>
80000a4e:	0905                	addi	s2,s2,1
80000a50:	87d6                	mv	a5,s5
80000a52:	00c10893          	addi	a7,sp,12
80000a56:	00810813          	addi	a6,sp,8
80000a5a:	874a                	mv	a4,s2
80000a5c:	85d2                	mv	a1,s4
80000a5e:	8622                	mv	a2,s0
80000a60:	635000ef          	jal	ra,80001894 <_dtoa_r>
80000a64:	04700793          	li	a5,71
80000a68:	89aa                	mv	s3,a0
80000a6a:	00f49563          	bne	s1,a5,80000a74 <__cvt+0x70>
80000a6e:	001b7613          	andi	a2,s6,1
80000a72:	ca29                	beqz	a2,80000ac4 <__cvt+0xc0>
80000a74:	04600793          	li	a5,70
80000a78:	01298b33          	add	s6,s3,s2
80000a7c:	02f49763          	bne	s1,a5,80000aaa <__cvt+0xa6>
80000a80:	0009c703          	lbu	a4,0(s3)
80000a84:	03000793          	li	a5,48
80000a88:	00f71e63          	bne	a4,a5,80000aa4 <__cvt+0xa0>
80000a8c:	4601                	li	a2,0
80000a8e:	4681                	li	a3,0
80000a90:	8552                	mv	a0,s4
80000a92:	85a2                	mv	a1,s0
80000a94:	495030ef          	jal	ra,80004728 <__eqdf2>
80000a98:	c511                	beqz	a0,80000aa4 <__cvt+0xa0>
80000a9a:	4605                	li	a2,1
80000a9c:	412606b3          	sub	a3,a2,s2
80000aa0:	00daa023          	sw	a3,0(s5)
80000aa4:	000aa783          	lw	a5,0(s5)
80000aa8:	9b3e                	add	s6,s6,a5
80000aaa:	4601                	li	a2,0
80000aac:	4681                	li	a3,0
80000aae:	8552                	mv	a0,s4
80000ab0:	85a2                	mv	a1,s0
80000ab2:	477030ef          	jal	ra,80004728 <__eqdf2>
80000ab6:	e111                	bnez	a0,80000aba <__cvt+0xb6>
80000ab8:	c65a                	sw	s6,12(sp)
80000aba:	03000713          	li	a4,48
80000abe:	47b2                	lw	a5,12(sp)
80000ac0:	0367e263          	bltu	a5,s6,80000ae4 <__cvt+0xe0>
80000ac4:	47b2                	lw	a5,12(sp)
80000ac6:	5742                	lw	a4,48(sp)
80000ac8:	50b2                	lw	ra,44(sp)
80000aca:	5422                	lw	s0,40(sp)
80000acc:	413787b3          	sub	a5,a5,s3
80000ad0:	c31c                	sw	a5,0(a4)
80000ad2:	5492                	lw	s1,36(sp)
80000ad4:	5902                	lw	s2,32(sp)
80000ad6:	4a62                	lw	s4,24(sp)
80000ad8:	4ad2                	lw	s5,20(sp)
80000ada:	4b42                	lw	s6,16(sp)
80000adc:	854e                	mv	a0,s3
80000ade:	49f2                	lw	s3,28(sp)
80000ae0:	6145                	addi	sp,sp,48
80000ae2:	8082                	ret
80000ae4:	00178693          	addi	a3,a5,1
80000ae8:	c636                	sw	a3,12(sp)
80000aea:	00e78023          	sb	a4,0(a5)
80000aee:	bfc1                	j	80000abe <__cvt+0xba>

80000af0 <__exponent>:
__exponent():
80000af0:	00c50023          	sb	a2,0(a0)
80000af4:	00250793          	addi	a5,a0,2
80000af8:	02b00713          	li	a4,43
80000afc:	0005d663          	bgez	a1,80000b08 <__exponent+0x18>
80000b00:	40b005b3          	neg	a1,a1
80000b04:	02d00713          	li	a4,45
80000b08:	00e500a3          	sb	a4,1(a0)
80000b0c:	4725                	li	a4,9
80000b0e:	06b75263          	bge	a4,a1,80000b72 <__exponent+0x82>
80000b12:	1141                	addi	sp,sp,-16
80000b14:	00f10713          	addi	a4,sp,15
80000b18:	883a                	mv	a6,a4
80000b1a:	48a9                	li	a7,10
80000b1c:	06300313          	li	t1,99
80000b20:	0315e633          	rem	a2,a1,a7
80000b24:	86ba                	mv	a3,a4
80000b26:	177d                	addi	a4,a4,-1
80000b28:	03060613          	addi	a2,a2,48
80000b2c:	fec68fa3          	sb	a2,-1(a3)
80000b30:	862e                	mv	a2,a1
80000b32:	0315c5b3          	div	a1,a1,a7
80000b36:	fec345e3          	blt	t1,a2,80000b20 <__exponent+0x30>
80000b3a:	ffe68893          	addi	a7,a3,-2
80000b3e:	03058593          	addi	a1,a1,48
80000b42:	feb70fa3          	sb	a1,-1(a4) # 7fffffff <_sp+0xeffeffff>
80000b46:	863e                	mv	a2,a5
80000b48:	8746                	mv	a4,a7
80000b4a:	01076d63          	bltu	a4,a6,80000b64 <__exponent+0x74>
80000b4e:	4701                	li	a4,0
80000b50:	01186563          	bltu	a6,a7,80000b5a <__exponent+0x6a>
80000b54:	01110713          	addi	a4,sp,17
80000b58:	8f15                	sub	a4,a4,a3
80000b5a:	97ba                	add	a5,a5,a4
80000b5c:	40a78533          	sub	a0,a5,a0
80000b60:	0141                	addi	sp,sp,16
80000b62:	8082                	ret
80000b64:	00074583          	lbu	a1,0(a4)
80000b68:	0705                	addi	a4,a4,1
80000b6a:	0605                	addi	a2,a2,1
80000b6c:	feb60fa3          	sb	a1,-1(a2)
80000b70:	bfe9                	j	80000b4a <__exponent+0x5a>
80000b72:	03000793          	li	a5,48
80000b76:	00f50123          	sb	a5,2(a0)
80000b7a:	03058593          	addi	a1,a1,48
80000b7e:	00450793          	addi	a5,a0,4
80000b82:	00b501a3          	sb	a1,3(a0)
80000b86:	40a78533          	sub	a0,a5,a0
80000b8a:	8082                	ret

80000b8c <_printf_float>:
_printf_float():
80000b8c:	7119                	addi	sp,sp,-128
80000b8e:	de86                	sw	ra,124(sp)
80000b90:	dca2                	sw	s0,120(sp)
80000b92:	daa6                	sw	s1,116(sp)
80000b94:	842e                	mv	s0,a1
80000b96:	d8ca                	sw	s2,112(sp)
80000b98:	d6ce                	sw	s3,108(sp)
80000b9a:	d4d2                	sw	s4,104(sp)
80000b9c:	d2d6                	sw	s5,100(sp)
80000b9e:	8a3a                	mv	s4,a4
80000ba0:	d0da                	sw	s6,96(sp)
80000ba2:	cede                	sw	s7,92(sp)
80000ba4:	cce2                	sw	s8,88(sp)
80000ba6:	8932                	mv	s2,a2
80000ba8:	89b6                	mv	s3,a3
80000baa:	cae6                	sw	s9,84(sp)
80000bac:	c8ea                	sw	s10,80(sp)
80000bae:	c6ee                	sw	s11,76(sp)
80000bb0:	84aa                	mv	s1,a0
80000bb2:	503010ef          	jal	ra,800028b4 <_localeconv_r>
80000bb6:	00052c03          	lw	s8,0(a0)
80000bba:	8562                	mv	a0,s8
80000bbc:	14d000ef          	jal	ra,80001508 <strlen>
80000bc0:	00042b03          	lw	s6,0(s0)
80000bc4:	dc02                	sw	zero,56(sp)
80000bc6:	01844a83          	lbu	s5,24(s0)
80000bca:	100b7713          	andi	a4,s6,256
80000bce:	000a2783          	lw	a5,0(s4)
80000bd2:	8baa                	mv	s7,a0
80000bd4:	cb79                	beqz	a4,80000caa <_printf_float+0x11e>
80000bd6:	00478713          	addi	a4,a5,4
80000bda:	00ea2023          	sw	a4,0(s4)
80000bde:	439c                	lw	a5,0(a5)
80000be0:	1008                	addi	a0,sp,32
80000be2:	4398                	lw	a4,0(a5)
80000be4:	d03a                	sw	a4,32(sp)
80000be6:	43d8                	lw	a4,4(a5)
80000be8:	d23a                	sw	a4,36(sp)
80000bea:	4798                	lw	a4,8(a5)
80000bec:	d43a                	sw	a4,40(sp)
80000bee:	47dc                	lw	a5,12(a5)
80000bf0:	d63e                	sw	a5,44(sp)
80000bf2:	099040ef          	jal	ra,8000548a <__trunctfdf2>
80000bf6:	c428                	sw	a0,72(s0)
80000bf8:	c46c                	sw	a1,76(s0)
80000bfa:	04c42a03          	lw	s4,76(s0)
80000bfe:	0ffff717          	auipc	a4,0xffff
80000c02:	5e270713          	addi	a4,a4,1506 # 900001e0 <_impure_ptr+0x8>
80000c06:	04842c83          	lw	s9,72(s0)
80000c0a:	00072d03          	lw	s10,0(a4)
80000c0e:	00472d83          	lw	s11,4(a4)
80000c12:	001a1793          	slli	a5,s4,0x1
80000c16:	8385                	srli	a5,a5,0x1
80000c18:	866a                	mv	a2,s10
80000c1a:	86ee                	mv	a3,s11
80000c1c:	8566                	mv	a0,s9
80000c1e:	85be                	mv	a1,a5
80000c20:	ce3e                	sw	a5,28(sp)
80000c22:	716040ef          	jal	ra,80005338 <__unorddf2>
80000c26:	ed49                	bnez	a0,80000cc0 <_printf_float+0x134>
80000c28:	47f2                	lw	a5,28(sp)
80000c2a:	866a                	mv	a2,s10
80000c2c:	86ee                	mv	a3,s11
80000c2e:	8566                	mv	a0,s9
80000c30:	85be                	mv	a1,a5
80000c32:	407030ef          	jal	ra,80004838 <__ledf2>
80000c36:	08a05563          	blez	a0,80000cc0 <_printf_float+0x134>
80000c3a:	4601                	li	a2,0
80000c3c:	4681                	li	a3,0
80000c3e:	8566                	mv	a0,s9
80000c40:	85d2                	mv	a1,s4
80000c42:	3f7030ef          	jal	ra,80004838 <__ledf2>
80000c46:	00055663          	bgez	a0,80000c52 <_printf_float+0xc6>
80000c4a:	02d00793          	li	a5,45
80000c4e:	04f401a3          	sb	a5,67(s0)
80000c52:	04700793          	li	a5,71
80000c56:	00005a17          	auipc	s4,0x5
80000c5a:	c7ea0a13          	addi	s4,s4,-898 # 800058d4 <__clz_tab+0x100>
80000c5e:	0157f663          	bgeu	a5,s5,80000c6a <_printf_float+0xde>
80000c62:	00005a17          	auipc	s4,0x5
80000c66:	c76a0a13          	addi	s4,s4,-906 # 800058d8 <__clz_tab+0x104>
80000c6a:	ffbb7b13          	andi	s6,s6,-5
80000c6e:	478d                	li	a5,3
80000c70:	01642023          	sw	s6,0(s0)
80000c74:	c81c                	sw	a5,16(s0)
80000c76:	4b01                	li	s6,0
80000c78:	874e                	mv	a4,s3
80000c7a:	86ca                	mv	a3,s2
80000c7c:	1870                	addi	a2,sp,60
80000c7e:	85a2                	mv	a1,s0
80000c80:	8526                	mv	a0,s1
80000c82:	2ef9                	jal	80001060 <_printf_common>
80000c84:	5cfd                	li	s9,-1
80000c86:	17951363          	bne	a0,s9,80000dec <_printf_float+0x260>
80000c8a:	557d                	li	a0,-1
80000c8c:	50f6                	lw	ra,124(sp)
80000c8e:	5466                	lw	s0,120(sp)
80000c90:	54d6                	lw	s1,116(sp)
80000c92:	5946                	lw	s2,112(sp)
80000c94:	59b6                	lw	s3,108(sp)
80000c96:	5a26                	lw	s4,104(sp)
80000c98:	5a96                	lw	s5,100(sp)
80000c9a:	5b06                	lw	s6,96(sp)
80000c9c:	4bf6                	lw	s7,92(sp)
80000c9e:	4c66                	lw	s8,88(sp)
80000ca0:	4cd6                	lw	s9,84(sp)
80000ca2:	4d46                	lw	s10,80(sp)
80000ca4:	4db6                	lw	s11,76(sp)
80000ca6:	6109                	addi	sp,sp,128
80000ca8:	8082                	ret
80000caa:	079d                	addi	a5,a5,7
80000cac:	9be1                	andi	a5,a5,-8
80000cae:	00878713          	addi	a4,a5,8
80000cb2:	00ea2023          	sw	a4,0(s4)
80000cb6:	4398                	lw	a4,0(a5)
80000cb8:	43dc                	lw	a5,4(a5)
80000cba:	c438                	sw	a4,72(s0)
80000cbc:	c47c                	sw	a5,76(s0)
80000cbe:	bf35                	j	80000bfa <_printf_float+0x6e>
80000cc0:	8666                	mv	a2,s9
80000cc2:	86d2                	mv	a3,s4
80000cc4:	8566                	mv	a0,s9
80000cc6:	85d2                	mv	a1,s4
80000cc8:	670040ef          	jal	ra,80005338 <__unorddf2>
80000ccc:	c505                	beqz	a0,80000cf4 <_printf_float+0x168>
80000cce:	000a5663          	bgez	s4,80000cda <_printf_float+0x14e>
80000cd2:	02d00793          	li	a5,45
80000cd6:	04f401a3          	sb	a5,67(s0)
80000cda:	04700793          	li	a5,71
80000cde:	00005a17          	auipc	s4,0x5
80000ce2:	bfea0a13          	addi	s4,s4,-1026 # 800058dc <__clz_tab+0x108>
80000ce6:	f957f2e3          	bgeu	a5,s5,80000c6a <_printf_float+0xde>
80000cea:	00005a17          	auipc	s4,0x5
80000cee:	bf6a0a13          	addi	s4,s4,-1034 # 800058e0 <__clz_tab+0x10c>
80000cf2:	bfa5                	j	80000c6a <_printf_float+0xde>
80000cf4:	405c                	lw	a5,4(s0)
80000cf6:	577d                	li	a4,-1
80000cf8:	0dfafd13          	andi	s10,s5,223
80000cfc:	08e79363          	bne	a5,a4,80000d82 <_printf_float+0x1f6>
80000d00:	4799                	li	a5,6
80000d02:	c05c                	sw	a5,4(s0)
80000d04:	4054                	lw	a3,4(s0)
80000d06:	400b6713          	ori	a4,s6,1024
80000d0a:	183c                	addi	a5,sp,56
80000d0c:	c03e                	sw	a5,0(sp)
80000d0e:	8652                	mv	a2,s4
80000d10:	03310793          	addi	a5,sp,51
80000d14:	85e6                	mv	a1,s9
80000d16:	c018                	sw	a4,0(s0)
80000d18:	c202                	sw	zero,4(sp)
80000d1a:	88d6                	mv	a7,s5
80000d1c:	03410813          	addi	a6,sp,52
80000d20:	8526                	mv	a0,s1
80000d22:	31cd                	jal	80000a04 <__cvt>
80000d24:	04700793          	li	a5,71
80000d28:	55d2                	lw	a1,52(sp)
80000d2a:	8a2a                	mv	s4,a0
80000d2c:	00fd1b63          	bne	s10,a5,80000d42 <_printf_float+0x1b6>
80000d30:	57f5                	li	a5,-3
80000d32:	00f5c563          	blt	a1,a5,80000d3c <_printf_float+0x1b0>
80000d36:	405c                	lw	a5,4(s0)
80000d38:	08b7d763          	bge	a5,a1,80000dc6 <_printf_float+0x23a>
80000d3c:	1af9                	addi	s5,s5,-2
80000d3e:	0ffafa93          	zext.b	s5,s5
80000d42:	06500793          	li	a5,101
80000d46:	0557e563          	bltu	a5,s5,80000d90 <_printf_float+0x204>
80000d4a:	15fd                	addi	a1,a1,-1
80000d4c:	8656                	mv	a2,s5
80000d4e:	05040513          	addi	a0,s0,80
80000d52:	da2e                	sw	a1,52(sp)
80000d54:	3b71                	jal	80000af0 <__exponent>
80000d56:	5762                	lw	a4,56(sp)
80000d58:	4685                	li	a3,1
80000d5a:	8b2a                	mv	s6,a0
80000d5c:	00a707b3          	add	a5,a4,a0
80000d60:	c81c                	sw	a5,16(s0)
80000d62:	00e6c563          	blt	a3,a4,80000d6c <_printf_float+0x1e0>
80000d66:	4018                	lw	a4,0(s0)
80000d68:	8b05                	andi	a4,a4,1
80000d6a:	c319                	beqz	a4,80000d70 <_printf_float+0x1e4>
80000d6c:	0785                	addi	a5,a5,1
80000d6e:	c81c                	sw	a5,16(s0)
80000d70:	03314783          	lbu	a5,51(sp)
80000d74:	f00782e3          	beqz	a5,80000c78 <_printf_float+0xec>
80000d78:	02d00793          	li	a5,45
80000d7c:	04f401a3          	sb	a5,67(s0)
80000d80:	bde5                	j	80000c78 <_printf_float+0xec>
80000d82:	04700713          	li	a4,71
80000d86:	f6ed1fe3          	bne	s10,a4,80000d04 <_printf_float+0x178>
80000d8a:	ffad                	bnez	a5,80000d04 <_printf_float+0x178>
80000d8c:	4785                	li	a5,1
80000d8e:	bf95                	j	80000d02 <_printf_float+0x176>
80000d90:	06600793          	li	a5,102
80000d94:	02fa9b63          	bne	s5,a5,80000dca <_printf_float+0x23e>
80000d98:	405c                	lw	a5,4(s0)
80000d9a:	00b05b63          	blez	a1,80000db0 <_printf_float+0x224>
80000d9e:	c80c                	sw	a1,16(s0)
80000da0:	e781                	bnez	a5,80000da8 <_printf_float+0x21c>
80000da2:	4018                	lw	a4,0(s0)
80000da4:	8b05                	andi	a4,a4,1
80000da6:	cf09                	beqz	a4,80000dc0 <_printf_float+0x234>
80000da8:	0785                	addi	a5,a5,1
80000daa:	97ae                	add	a5,a5,a1
80000dac:	c81c                	sw	a5,16(s0)
80000dae:	a809                	j	80000dc0 <_printf_float+0x234>
80000db0:	e789                	bnez	a5,80000dba <_printf_float+0x22e>
80000db2:	4018                	lw	a4,0(s0)
80000db4:	4685                	li	a3,1
80000db6:	8b05                	andi	a4,a4,1
80000db8:	c319                	beqz	a4,80000dbe <_printf_float+0x232>
80000dba:	00278693          	addi	a3,a5,2
80000dbe:	c814                	sw	a3,16(s0)
80000dc0:	cc2c                	sw	a1,88(s0)
80000dc2:	4b01                	li	s6,0
80000dc4:	b775                	j	80000d70 <_printf_float+0x1e4>
80000dc6:	06700a93          	li	s5,103
80000dca:	57e2                	lw	a5,56(sp)
80000dcc:	00f5c963          	blt	a1,a5,80000dde <_printf_float+0x252>
80000dd0:	401c                	lw	a5,0(s0)
80000dd2:	c80c                	sw	a1,16(s0)
80000dd4:	8b85                	andi	a5,a5,1
80000dd6:	d7ed                	beqz	a5,80000dc0 <_printf_float+0x234>
80000dd8:	00158793          	addi	a5,a1,1
80000ddc:	bfc1                	j	80000dac <_printf_float+0x220>
80000dde:	4705                	li	a4,1
80000de0:	00b04463          	bgtz	a1,80000de8 <_printf_float+0x25c>
80000de4:	4709                	li	a4,2
80000de6:	8f0d                	sub	a4,a4,a1
80000de8:	97ba                	add	a5,a5,a4
80000dea:	b7c9                	j	80000dac <_printf_float+0x220>
80000dec:	401c                	lw	a5,0(s0)
80000dee:	4007f713          	andi	a4,a5,1024
80000df2:	e315                	bnez	a4,80000e16 <_printf_float+0x28a>
80000df4:	4814                	lw	a3,16(s0)
80000df6:	8652                	mv	a2,s4
80000df8:	85ca                	mv	a1,s2
80000dfa:	8526                	mv	a0,s1
80000dfc:	9982                	jalr	s3
80000dfe:	e99506e3          	beq	a0,s9,80000c8a <_printf_float+0xfe>
80000e02:	401c                	lw	a5,0(s0)
80000e04:	8b89                	andi	a5,a5,2
80000e06:	24079863          	bnez	a5,80001056 <_printf_float+0x4ca>
80000e0a:	57f2                	lw	a5,60(sp)
80000e0c:	4448                	lw	a0,12(s0)
80000e0e:	e6f55fe3          	bge	a0,a5,80000c8c <_printf_float+0x100>
80000e12:	853e                	mv	a0,a5
80000e14:	bda5                	j	80000c8c <_printf_float+0x100>
80000e16:	06500713          	li	a4,101
80000e1a:	19577d63          	bgeu	a4,s5,80000fb4 <_printf_float+0x428>
80000e1e:	4428                	lw	a0,72(s0)
80000e20:	446c                	lw	a1,76(s0)
80000e22:	4601                	li	a2,0
80000e24:	4681                	li	a3,0
80000e26:	103030ef          	jal	ra,80004728 <__eqdf2>
80000e2a:	e939                	bnez	a0,80000e80 <_printf_float+0x2f4>
80000e2c:	4685                	li	a3,1
80000e2e:	00005617          	auipc	a2,0x5
80000e32:	ab660613          	addi	a2,a2,-1354 # 800058e4 <__clz_tab+0x110>
80000e36:	85ca                	mv	a1,s2
80000e38:	8526                	mv	a0,s1
80000e3a:	9982                	jalr	s3
80000e3c:	e59507e3          	beq	a0,s9,80000c8a <_printf_float+0xfe>
80000e40:	5752                	lw	a4,52(sp)
80000e42:	57e2                	lw	a5,56(sp)
80000e44:	00f74563          	blt	a4,a5,80000e4e <_printf_float+0x2c2>
80000e48:	401c                	lw	a5,0(s0)
80000e4a:	8b85                	andi	a5,a5,1
80000e4c:	dbdd                	beqz	a5,80000e02 <_printf_float+0x276>
80000e4e:	86de                	mv	a3,s7
80000e50:	8662                	mv	a2,s8
80000e52:	85ca                	mv	a1,s2
80000e54:	8526                	mv	a0,s1
80000e56:	9982                	jalr	s3
80000e58:	57fd                	li	a5,-1
80000e5a:	e2f508e3          	beq	a0,a5,80000c8a <_printf_float+0xfe>
80000e5e:	4a01                	li	s4,0
80000e60:	01a40a93          	addi	s5,s0,26
80000e64:	5b7d                	li	s6,-1
80000e66:	57e2                	lw	a5,56(sp)
80000e68:	17fd                	addi	a5,a5,-1
80000e6a:	f8fa5ce3          	bge	s4,a5,80000e02 <_printf_float+0x276>
80000e6e:	4685                	li	a3,1
80000e70:	8656                	mv	a2,s5
80000e72:	85ca                	mv	a1,s2
80000e74:	8526                	mv	a0,s1
80000e76:	9982                	jalr	s3
80000e78:	e16509e3          	beq	a0,s6,80000c8a <_printf_float+0xfe>
80000e7c:	0a05                	addi	s4,s4,1
80000e7e:	b7e5                	j	80000e66 <_printf_float+0x2da>
80000e80:	57d2                	lw	a5,52(sp)
80000e82:	06f04663          	bgtz	a5,80000eee <_printf_float+0x362>
80000e86:	4685                	li	a3,1
80000e88:	00005617          	auipc	a2,0x5
80000e8c:	a5c60613          	addi	a2,a2,-1444 # 800058e4 <__clz_tab+0x110>
80000e90:	85ca                	mv	a1,s2
80000e92:	8526                	mv	a0,s1
80000e94:	9982                	jalr	s3
80000e96:	df950ae3          	beq	a0,s9,80000c8a <_printf_float+0xfe>
80000e9a:	57d2                	lw	a5,52(sp)
80000e9c:	5762                	lw	a4,56(sp)
80000e9e:	8fd9                	or	a5,a5,a4
80000ea0:	e781                	bnez	a5,80000ea8 <_printf_float+0x31c>
80000ea2:	401c                	lw	a5,0(s0)
80000ea4:	8b85                	andi	a5,a5,1
80000ea6:	dfb1                	beqz	a5,80000e02 <_printf_float+0x276>
80000ea8:	86de                	mv	a3,s7
80000eaa:	8662                	mv	a2,s8
80000eac:	85ca                	mv	a1,s2
80000eae:	8526                	mv	a0,s1
80000eb0:	9982                	jalr	s3
80000eb2:	57fd                	li	a5,-1
80000eb4:	dcf50be3          	beq	a0,a5,80000c8a <_printf_float+0xfe>
80000eb8:	4a81                	li	s5,0
80000eba:	01a40b13          	addi	s6,s0,26
80000ebe:	5bfd                	li	s7,-1
80000ec0:	57d2                	lw	a5,52(sp)
80000ec2:	40f007b3          	neg	a5,a5
80000ec6:	00facb63          	blt	s5,a5,80000edc <_printf_float+0x350>
80000eca:	56e2                	lw	a3,56(sp)
80000ecc:	8652                	mv	a2,s4
80000ece:	85ca                	mv	a1,s2
80000ed0:	8526                	mv	a0,s1
80000ed2:	9982                	jalr	s3
80000ed4:	57fd                	li	a5,-1
80000ed6:	f2f516e3          	bne	a0,a5,80000e02 <_printf_float+0x276>
80000eda:	bb45                	j	80000c8a <_printf_float+0xfe>
80000edc:	4685                	li	a3,1
80000ede:	865a                	mv	a2,s6
80000ee0:	85ca                	mv	a1,s2
80000ee2:	8526                	mv	a0,s1
80000ee4:	9982                	jalr	s3
80000ee6:	db7502e3          	beq	a0,s7,80000c8a <_printf_float+0xfe>
80000eea:	0a85                	addi	s5,s5,1
80000eec:	bfd1                	j	80000ec0 <_printf_float+0x334>
80000eee:	4c3c                	lw	a5,88(s0)
80000ef0:	5ae2                	lw	s5,56(sp)
80000ef2:	0157d363          	bge	a5,s5,80000ef8 <_printf_float+0x36c>
80000ef6:	8abe                	mv	s5,a5
80000ef8:	07504963          	bgtz	s5,80000f6a <_printf_float+0x3de>
80000efc:	4b01                	li	s6,0
80000efe:	01a40d13          	addi	s10,s0,26
80000f02:	5dfd                	li	s11,-1
80000f04:	05842c83          	lw	s9,88(s0)
80000f08:	87d6                	mv	a5,s5
80000f0a:	000ad363          	bgez	s5,80000f10 <_printf_float+0x384>
80000f0e:	4781                	li	a5,0
80000f10:	40fc87b3          	sub	a5,s9,a5
80000f14:	06fb4463          	blt	s6,a5,80000f7c <_printf_float+0x3f0>
80000f18:	5752                	lw	a4,52(sp)
80000f1a:	57e2                	lw	a5,56(sp)
80000f1c:	06f74963          	blt	a4,a5,80000f8e <_printf_float+0x402>
80000f20:	401c                	lw	a5,0(s0)
80000f22:	8b85                	andi	a5,a5,1
80000f24:	e7ad                	bnez	a5,80000f8e <_printf_float+0x402>
80000f26:	5ae2                	lw	s5,56(sp)
80000f28:	5752                	lw	a4,52(sp)
80000f2a:	419a87b3          	sub	a5,s5,s9
80000f2e:	40ea8ab3          	sub	s5,s5,a4
80000f32:	0157d363          	bge	a5,s5,80000f38 <_printf_float+0x3ac>
80000f36:	8abe                	mv	s5,a5
80000f38:	07504463          	bgtz	s5,80000fa0 <_printf_float+0x414>
80000f3c:	4a01                	li	s4,0
80000f3e:	01a40b13          	addi	s6,s0,26
80000f42:	5bfd                	li	s7,-1
80000f44:	5752                	lw	a4,52(sp)
80000f46:	57e2                	lw	a5,56(sp)
80000f48:	8f99                	sub	a5,a5,a4
80000f4a:	8756                	mv	a4,s5
80000f4c:	000ad363          	bgez	s5,80000f52 <_printf_float+0x3c6>
80000f50:	4701                	li	a4,0
80000f52:	8f99                	sub	a5,a5,a4
80000f54:	eafa57e3          	bge	s4,a5,80000e02 <_printf_float+0x276>
80000f58:	4685                	li	a3,1
80000f5a:	865a                	mv	a2,s6
80000f5c:	85ca                	mv	a1,s2
80000f5e:	8526                	mv	a0,s1
80000f60:	9982                	jalr	s3
80000f62:	d37504e3          	beq	a0,s7,80000c8a <_printf_float+0xfe>
80000f66:	0a05                	addi	s4,s4,1
80000f68:	bff1                	j	80000f44 <_printf_float+0x3b8>
80000f6a:	86d6                	mv	a3,s5
80000f6c:	8652                	mv	a2,s4
80000f6e:	85ca                	mv	a1,s2
80000f70:	8526                	mv	a0,s1
80000f72:	9982                	jalr	s3
80000f74:	57fd                	li	a5,-1
80000f76:	f8f513e3          	bne	a0,a5,80000efc <_printf_float+0x370>
80000f7a:	bb01                	j	80000c8a <_printf_float+0xfe>
80000f7c:	4685                	li	a3,1
80000f7e:	866a                	mv	a2,s10
80000f80:	85ca                	mv	a1,s2
80000f82:	8526                	mv	a0,s1
80000f84:	9982                	jalr	s3
80000f86:	d1b502e3          	beq	a0,s11,80000c8a <_printf_float+0xfe>
80000f8a:	0b05                	addi	s6,s6,1
80000f8c:	bfa5                	j	80000f04 <_printf_float+0x378>
80000f8e:	86de                	mv	a3,s7
80000f90:	8662                	mv	a2,s8
80000f92:	85ca                	mv	a1,s2
80000f94:	8526                	mv	a0,s1
80000f96:	9982                	jalr	s3
80000f98:	57fd                	li	a5,-1
80000f9a:	f8f516e3          	bne	a0,a5,80000f26 <_printf_float+0x39a>
80000f9e:	b1f5                	j	80000c8a <_printf_float+0xfe>
80000fa0:	86d6                	mv	a3,s5
80000fa2:	019a0633          	add	a2,s4,s9
80000fa6:	85ca                	mv	a1,s2
80000fa8:	8526                	mv	a0,s1
80000faa:	9982                	jalr	s3
80000fac:	57fd                	li	a5,-1
80000fae:	f8f517e3          	bne	a0,a5,80000f3c <_printf_float+0x3b0>
80000fb2:	b9e1                	j	80000c8a <_printf_float+0xfe>
80000fb4:	56e2                	lw	a3,56(sp)
80000fb6:	4705                	li	a4,1
80000fb8:	00d74463          	blt	a4,a3,80000fc0 <_printf_float+0x434>
80000fbc:	8b85                	andi	a5,a5,1
80000fbe:	c7b5                	beqz	a5,8000102a <_printf_float+0x49e>
80000fc0:	4685                	li	a3,1
80000fc2:	8652                	mv	a2,s4
80000fc4:	85ca                	mv	a1,s2
80000fc6:	8526                	mv	a0,s1
80000fc8:	9982                	jalr	s3
80000fca:	5afd                	li	s5,-1
80000fcc:	cb550fe3          	beq	a0,s5,80000c8a <_printf_float+0xfe>
80000fd0:	86de                	mv	a3,s7
80000fd2:	8662                	mv	a2,s8
80000fd4:	85ca                	mv	a1,s2
80000fd6:	8526                	mv	a0,s1
80000fd8:	9982                	jalr	s3
80000fda:	cb5508e3          	beq	a0,s5,80000c8a <_printf_float+0xfe>
80000fde:	4428                	lw	a0,72(s0)
80000fe0:	446c                	lw	a1,76(s0)
80000fe2:	4601                	li	a2,0
80000fe4:	4681                	li	a3,0
80000fe6:	742030ef          	jal	ra,80004728 <__eqdf2>
80000fea:	c91d                	beqz	a0,80001020 <_printf_float+0x494>
80000fec:	56e2                	lw	a3,56(sp)
80000fee:	001a0613          	addi	a2,s4,1
80000ff2:	85ca                	mv	a1,s2
80000ff4:	16fd                	addi	a3,a3,-1
80000ff6:	8526                	mv	a0,s1
80000ff8:	9982                	jalr	s3
80000ffa:	c95508e3          	beq	a0,s5,80000c8a <_printf_float+0xfe>
80000ffe:	86da                	mv	a3,s6
80001000:	05040613          	addi	a2,s0,80
80001004:	b5e9                	j	80000ece <_printf_float+0x342>
80001006:	4685                	li	a3,1
80001008:	8656                	mv	a2,s5
8000100a:	85ca                	mv	a1,s2
8000100c:	8526                	mv	a0,s1
8000100e:	9982                	jalr	s3
80001010:	c7750de3          	beq	a0,s7,80000c8a <_printf_float+0xfe>
80001014:	0a05                	addi	s4,s4,1
80001016:	57e2                	lw	a5,56(sp)
80001018:	17fd                	addi	a5,a5,-1
8000101a:	fefa46e3          	blt	s4,a5,80001006 <_printf_float+0x47a>
8000101e:	b7c5                	j	80000ffe <_printf_float+0x472>
80001020:	4a01                	li	s4,0
80001022:	01a40a93          	addi	s5,s0,26
80001026:	5bfd                	li	s7,-1
80001028:	b7fd                	j	80001016 <_printf_float+0x48a>
8000102a:	4685                	li	a3,1
8000102c:	8652                	mv	a2,s4
8000102e:	85ca                	mv	a1,s2
80001030:	8526                	mv	a0,s1
80001032:	9982                	jalr	s3
80001034:	fd9515e3          	bne	a0,s9,80000ffe <_printf_float+0x472>
80001038:	b989                	j	80000c8a <_printf_float+0xfe>
8000103a:	4685                	li	a3,1
8000103c:	8656                	mv	a2,s5
8000103e:	85ca                	mv	a1,s2
80001040:	8526                	mv	a0,s1
80001042:	9982                	jalr	s3
80001044:	c56503e3          	beq	a0,s6,80000c8a <_printf_float+0xfe>
80001048:	0a05                	addi	s4,s4,1
8000104a:	445c                	lw	a5,12(s0)
8000104c:	5772                	lw	a4,60(sp)
8000104e:	8f99                	sub	a5,a5,a4
80001050:	fefa45e3          	blt	s4,a5,8000103a <_printf_float+0x4ae>
80001054:	bb5d                	j	80000e0a <_printf_float+0x27e>
80001056:	4a01                	li	s4,0
80001058:	01940a93          	addi	s5,s0,25
8000105c:	5b7d                	li	s6,-1
8000105e:	b7f5                	j	8000104a <_printf_float+0x4be>

80001060 <_printf_common>:
_printf_common():
80001060:	7179                	addi	sp,sp,-48
80001062:	cc52                	sw	s4,24(sp)
80001064:	499c                	lw	a5,16(a1)
80001066:	8a3a                	mv	s4,a4
80001068:	4598                	lw	a4,8(a1)
8000106a:	d422                	sw	s0,40(sp)
8000106c:	d226                	sw	s1,36(sp)
8000106e:	ce4e                	sw	s3,28(sp)
80001070:	ca56                	sw	s5,20(sp)
80001072:	d606                	sw	ra,44(sp)
80001074:	d04a                	sw	s2,32(sp)
80001076:	c85a                	sw	s6,16(sp)
80001078:	c65e                	sw	s7,12(sp)
8000107a:	89aa                	mv	s3,a0
8000107c:	842e                	mv	s0,a1
8000107e:	84b2                	mv	s1,a2
80001080:	8ab6                	mv	s5,a3
80001082:	00e7d363          	bge	a5,a4,80001088 <_printf_common+0x28>
80001086:	87ba                	mv	a5,a4
80001088:	c09c                	sw	a5,0(s1)
8000108a:	04344703          	lbu	a4,67(s0)
8000108e:	c319                	beqz	a4,80001094 <_printf_common+0x34>
80001090:	0785                	addi	a5,a5,1
80001092:	c09c                	sw	a5,0(s1)
80001094:	401c                	lw	a5,0(s0)
80001096:	0207f793          	andi	a5,a5,32
8000109a:	c781                	beqz	a5,800010a2 <_printf_common+0x42>
8000109c:	409c                	lw	a5,0(s1)
8000109e:	0789                	addi	a5,a5,2
800010a0:	c09c                	sw	a5,0(s1)
800010a2:	00042903          	lw	s2,0(s0)
800010a6:	00697913          	andi	s2,s2,6
800010aa:	00091a63          	bnez	s2,800010be <_printf_common+0x5e>
800010ae:	01940b13          	addi	s6,s0,25
800010b2:	5bfd                	li	s7,-1
800010b4:	445c                	lw	a5,12(s0)
800010b6:	4098                	lw	a4,0(s1)
800010b8:	8f99                	sub	a5,a5,a4
800010ba:	04f94c63          	blt	s2,a5,80001112 <_printf_common+0xb2>
800010be:	04344783          	lbu	a5,67(s0)
800010c2:	00f036b3          	snez	a3,a5
800010c6:	401c                	lw	a5,0(s0)
800010c8:	0207f793          	andi	a5,a5,32
800010cc:	eba5                	bnez	a5,8000113c <_printf_common+0xdc>
800010ce:	04340613          	addi	a2,s0,67
800010d2:	85d6                	mv	a1,s5
800010d4:	854e                	mv	a0,s3
800010d6:	9a02                	jalr	s4
800010d8:	57fd                	li	a5,-1
800010da:	04f50363          	beq	a0,a5,80001120 <_printf_common+0xc0>
800010de:	401c                	lw	a5,0(s0)
800010e0:	4611                	li	a2,4
800010e2:	4098                	lw	a4,0(s1)
800010e4:	8b99                	andi	a5,a5,6
800010e6:	4454                	lw	a3,12(s0)
800010e8:	4481                	li	s1,0
800010ea:	00c79763          	bne	a5,a2,800010f8 <_printf_common+0x98>
800010ee:	40e684b3          	sub	s1,a3,a4
800010f2:	0004d363          	bgez	s1,800010f8 <_printf_common+0x98>
800010f6:	4481                	li	s1,0
800010f8:	441c                	lw	a5,8(s0)
800010fa:	4818                	lw	a4,16(s0)
800010fc:	00f75463          	bge	a4,a5,80001104 <_printf_common+0xa4>
80001100:	8f99                	sub	a5,a5,a4
80001102:	94be                	add	s1,s1,a5
80001104:	4901                	li	s2,0
80001106:	0469                	addi	s0,s0,26
80001108:	5b7d                	li	s6,-1
8000110a:	05249863          	bne	s1,s2,8000115a <_printf_common+0xfa>
8000110e:	4501                	li	a0,0
80001110:	a809                	j	80001122 <_printf_common+0xc2>
80001112:	4685                	li	a3,1
80001114:	865a                	mv	a2,s6
80001116:	85d6                	mv	a1,s5
80001118:	854e                	mv	a0,s3
8000111a:	9a02                	jalr	s4
8000111c:	01751e63          	bne	a0,s7,80001138 <_printf_common+0xd8>
80001120:	557d                	li	a0,-1
80001122:	50b2                	lw	ra,44(sp)
80001124:	5422                	lw	s0,40(sp)
80001126:	5492                	lw	s1,36(sp)
80001128:	5902                	lw	s2,32(sp)
8000112a:	49f2                	lw	s3,28(sp)
8000112c:	4a62                	lw	s4,24(sp)
8000112e:	4ad2                	lw	s5,20(sp)
80001130:	4b42                	lw	s6,16(sp)
80001132:	4bb2                	lw	s7,12(sp)
80001134:	6145                	addi	sp,sp,48
80001136:	8082                	ret
80001138:	0905                	addi	s2,s2,1
8000113a:	bfad                	j	800010b4 <_printf_common+0x54>
8000113c:	00d40733          	add	a4,s0,a3
80001140:	03000613          	li	a2,48
80001144:	04c701a3          	sb	a2,67(a4)
80001148:	04544703          	lbu	a4,69(s0)
8000114c:	00168793          	addi	a5,a3,1
80001150:	97a2                	add	a5,a5,s0
80001152:	0689                	addi	a3,a3,2
80001154:	04e781a3          	sb	a4,67(a5)
80001158:	bf9d                	j	800010ce <_printf_common+0x6e>
8000115a:	4685                	li	a3,1
8000115c:	8622                	mv	a2,s0
8000115e:	85d6                	mv	a1,s5
80001160:	854e                	mv	a0,s3
80001162:	9a02                	jalr	s4
80001164:	fb650ee3          	beq	a0,s6,80001120 <_printf_common+0xc0>
80001168:	0905                	addi	s2,s2,1
8000116a:	b745                	j	8000110a <_printf_common+0xaa>

8000116c <_printf_i>:
_printf_i():
8000116c:	7179                	addi	sp,sp,-48
8000116e:	d422                	sw	s0,40(sp)
80001170:	d226                	sw	s1,36(sp)
80001172:	d04a                	sw	s2,32(sp)
80001174:	ce4e                	sw	s3,28(sp)
80001176:	d606                	sw	ra,44(sp)
80001178:	cc52                	sw	s4,24(sp)
8000117a:	ca56                	sw	s5,20(sp)
8000117c:	c85a                	sw	s6,16(sp)
8000117e:	0185c803          	lbu	a6,24(a1)
80001182:	07800793          	li	a5,120
80001186:	84aa                	mv	s1,a0
80001188:	842e                	mv	s0,a1
8000118a:	8932                	mv	s2,a2
8000118c:	89b6                	mv	s3,a3
8000118e:	0107ee63          	bltu	a5,a6,800011aa <_printf_i+0x3e>
80001192:	06200793          	li	a5,98
80001196:	04358693          	addi	a3,a1,67
8000119a:	0107ed63          	bltu	a5,a6,800011b4 <_printf_i+0x48>
8000119e:	1c080563          	beqz	a6,80001368 <_printf_i+0x1fc>
800011a2:	05800793          	li	a5,88
800011a6:	12f80a63          	beq	a6,a5,800012da <_printf_i+0x16e>
800011aa:	04240a93          	addi	s5,s0,66
800011ae:	05040123          	sb	a6,66(s0)
800011b2:	a815                	j	800011e6 <_printf_i+0x7a>
800011b4:	f9d80793          	addi	a5,a6,-99
800011b8:	0ff7f793          	zext.b	a5,a5
800011bc:	4655                	li	a2,21
800011be:	fef666e3          	bltu	a2,a5,800011aa <_printf_i+0x3e>
800011c2:	00004617          	auipc	a2,0x4
800011c6:	74e60613          	addi	a2,a2,1870 # 80005910 <__clz_tab+0x13c>
800011ca:	078a                	slli	a5,a5,0x2
800011cc:	97b2                	add	a5,a5,a2
800011ce:	439c                	lw	a5,0(a5)
800011d0:	97b2                	add	a5,a5,a2
800011d2:	8782                	jr	a5
800011d4:	431c                	lw	a5,0(a4)
800011d6:	04258a93          	addi	s5,a1,66
800011da:	00478693          	addi	a3,a5,4
800011de:	439c                	lw	a5,0(a5)
800011e0:	c314                	sw	a3,0(a4)
800011e2:	04f58123          	sb	a5,66(a1)
800011e6:	4785                	li	a5,1
800011e8:	a265                	j	80001390 <_printf_i+0x224>
800011ea:	419c                	lw	a5,0(a1)
800011ec:	4308                	lw	a0,0(a4)
800011ee:	0807f613          	andi	a2,a5,128
800011f2:	00450593          	addi	a1,a0,4
800011f6:	c20d                	beqz	a2,80001218 <_printf_i+0xac>
800011f8:	411c                	lw	a5,0(a0)
800011fa:	c30c                	sw	a1,0(a4)
800011fc:	0007d863          	bgez	a5,8000120c <_printf_i+0xa0>
80001200:	02d00713          	li	a4,45
80001204:	40f007b3          	neg	a5,a5
80001208:	04e401a3          	sb	a4,67(s0)
8000120c:	00004617          	auipc	a2,0x4
80001210:	6dc60613          	addi	a2,a2,1756 # 800058e8 <__clz_tab+0x114>
80001214:	4829                	li	a6,10
80001216:	a0a1                	j	8000125e <_printf_i+0xf2>
80001218:	0407f613          	andi	a2,a5,64
8000121c:	411c                	lw	a5,0(a0)
8000121e:	c30c                	sw	a1,0(a4)
80001220:	de71                	beqz	a2,800011fc <_printf_i+0x90>
80001222:	07c2                	slli	a5,a5,0x10
80001224:	87c1                	srai	a5,a5,0x10
80001226:	bfd9                	j	800011fc <_printf_i+0x90>
80001228:	4190                	lw	a2,0(a1)
8000122a:	431c                	lw	a5,0(a4)
8000122c:	08067513          	andi	a0,a2,128
80001230:	00478593          	addi	a1,a5,4
80001234:	c501                	beqz	a0,8000123c <_printf_i+0xd0>
80001236:	c30c                	sw	a1,0(a4)
80001238:	439c                	lw	a5,0(a5)
8000123a:	a039                	j	80001248 <_printf_i+0xdc>
8000123c:	04067613          	andi	a2,a2,64
80001240:	c30c                	sw	a1,0(a4)
80001242:	da7d                	beqz	a2,80001238 <_printf_i+0xcc>
80001244:	0007d783          	lhu	a5,0(a5)
80001248:	06f00713          	li	a4,111
8000124c:	00004617          	auipc	a2,0x4
80001250:	69c60613          	addi	a2,a2,1692 # 800058e8 <__clz_tab+0x114>
80001254:	0ee80463          	beq	a6,a4,8000133c <_printf_i+0x1d0>
80001258:	4829                	li	a6,10
8000125a:	040401a3          	sb	zero,67(s0)
8000125e:	4058                	lw	a4,4(s0)
80001260:	c418                	sw	a4,8(s0)
80001262:	00074563          	bltz	a4,8000126c <_printf_i+0x100>
80001266:	400c                	lw	a1,0(s0)
80001268:	99ed                	andi	a1,a1,-5
8000126a:	c00c                	sw	a1,0(s0)
8000126c:	e399                	bnez	a5,80001272 <_printf_i+0x106>
8000126e:	8ab6                	mv	s5,a3
80001270:	cf19                	beqz	a4,8000128e <_printf_i+0x122>
80001272:	8ab6                	mv	s5,a3
80001274:	0307f733          	remu	a4,a5,a6
80001278:	1afd                	addi	s5,s5,-1
8000127a:	9732                	add	a4,a4,a2
8000127c:	00074703          	lbu	a4,0(a4)
80001280:	00ea8023          	sb	a4,0(s5)
80001284:	873e                	mv	a4,a5
80001286:	0307d7b3          	divu	a5,a5,a6
8000128a:	ff0775e3          	bgeu	a4,a6,80001274 <_printf_i+0x108>
8000128e:	47a1                	li	a5,8
80001290:	00f81e63          	bne	a6,a5,800012ac <_printf_i+0x140>
80001294:	401c                	lw	a5,0(s0)
80001296:	8b85                	andi	a5,a5,1
80001298:	cb91                	beqz	a5,800012ac <_printf_i+0x140>
8000129a:	4058                	lw	a4,4(s0)
8000129c:	481c                	lw	a5,16(s0)
8000129e:	00e7c763          	blt	a5,a4,800012ac <_printf_i+0x140>
800012a2:	03000793          	li	a5,48
800012a6:	fefa8fa3          	sb	a5,-1(s5)
800012aa:	1afd                	addi	s5,s5,-1
800012ac:	415686b3          	sub	a3,a3,s5
800012b0:	c814                	sw	a3,16(s0)
800012b2:	874e                	mv	a4,s3
800012b4:	86ca                	mv	a3,s2
800012b6:	0070                	addi	a2,sp,12
800012b8:	85a2                	mv	a1,s0
800012ba:	8526                	mv	a0,s1
800012bc:	3355                	jal	80001060 <_printf_common>
800012be:	5a7d                	li	s4,-1
800012c0:	0d451c63          	bne	a0,s4,80001398 <_printf_i+0x22c>
800012c4:	557d                	li	a0,-1
800012c6:	50b2                	lw	ra,44(sp)
800012c8:	5422                	lw	s0,40(sp)
800012ca:	5492                	lw	s1,36(sp)
800012cc:	5902                	lw	s2,32(sp)
800012ce:	49f2                	lw	s3,28(sp)
800012d0:	4a62                	lw	s4,24(sp)
800012d2:	4ad2                	lw	s5,20(sp)
800012d4:	4b42                	lw	s6,16(sp)
800012d6:	6145                	addi	sp,sp,48
800012d8:	8082                	ret
800012da:	050582a3          	sb	a6,69(a1)
800012de:	00004617          	auipc	a2,0x4
800012e2:	60a60613          	addi	a2,a2,1546 # 800058e8 <__clz_tab+0x114>
800012e6:	400c                	lw	a1,0(s0)
800012e8:	4308                	lw	a0,0(a4)
800012ea:	0805f813          	andi	a6,a1,128
800012ee:	411c                	lw	a5,0(a0)
800012f0:	0511                	addi	a0,a0,4
800012f2:	02080d63          	beqz	a6,8000132c <_printf_i+0x1c0>
800012f6:	c308                	sw	a0,0(a4)
800012f8:	0015f713          	andi	a4,a1,1
800012fc:	c701                	beqz	a4,80001304 <_printf_i+0x198>
800012fe:	0205e593          	ori	a1,a1,32
80001302:	c00c                	sw	a1,0(s0)
80001304:	4841                	li	a6,16
80001306:	fbb1                	bnez	a5,8000125a <_printf_i+0xee>
80001308:	4018                	lw	a4,0(s0)
8000130a:	fdf77713          	andi	a4,a4,-33
8000130e:	c018                	sw	a4,0(s0)
80001310:	b7a9                	j	8000125a <_printf_i+0xee>
80001312:	419c                	lw	a5,0(a1)
80001314:	0207e793          	ori	a5,a5,32
80001318:	c19c                	sw	a5,0(a1)
8000131a:	07800793          	li	a5,120
8000131e:	04f402a3          	sb	a5,69(s0)
80001322:	00004617          	auipc	a2,0x4
80001326:	5da60613          	addi	a2,a2,1498 # 800058fc <__clz_tab+0x128>
8000132a:	bf75                	j	800012e6 <_printf_i+0x17a>
8000132c:	0405f813          	andi	a6,a1,64
80001330:	c308                	sw	a0,0(a4)
80001332:	fc0803e3          	beqz	a6,800012f8 <_printf_i+0x18c>
80001336:	07c2                	slli	a5,a5,0x10
80001338:	83c1                	srli	a5,a5,0x10
8000133a:	bf7d                	j	800012f8 <_printf_i+0x18c>
8000133c:	4821                	li	a6,8
8000133e:	bf31                	j	8000125a <_printf_i+0xee>
80001340:	4190                	lw	a2,0(a1)
80001342:	431c                	lw	a5,0(a4)
80001344:	49cc                	lw	a1,20(a1)
80001346:	08067813          	andi	a6,a2,128
8000134a:	00478513          	addi	a0,a5,4
8000134e:	00080663          	beqz	a6,8000135a <_printf_i+0x1ee>
80001352:	c308                	sw	a0,0(a4)
80001354:	439c                	lw	a5,0(a5)
80001356:	c38c                	sw	a1,0(a5)
80001358:	a801                	j	80001368 <_printf_i+0x1fc>
8000135a:	c308                	sw	a0,0(a4)
8000135c:	04067613          	andi	a2,a2,64
80001360:	439c                	lw	a5,0(a5)
80001362:	da75                	beqz	a2,80001356 <_printf_i+0x1ea>
80001364:	00b79023          	sh	a1,0(a5)
80001368:	00042823          	sw	zero,16(s0)
8000136c:	8ab6                	mv	s5,a3
8000136e:	b791                	j	800012b2 <_printf_i+0x146>
80001370:	431c                	lw	a5,0(a4)
80001372:	41d0                	lw	a2,4(a1)
80001374:	4581                	li	a1,0
80001376:	00478693          	addi	a3,a5,4
8000137a:	c314                	sw	a3,0(a4)
8000137c:	0007aa83          	lw	s5,0(a5)
80001380:	8556                	mv	a0,s5
80001382:	646010ef          	jal	ra,800029c8 <memchr>
80001386:	c501                	beqz	a0,8000138e <_printf_i+0x222>
80001388:	41550533          	sub	a0,a0,s5
8000138c:	c048                	sw	a0,4(s0)
8000138e:	405c                	lw	a5,4(s0)
80001390:	c81c                	sw	a5,16(s0)
80001392:	040401a3          	sb	zero,67(s0)
80001396:	bf31                	j	800012b2 <_printf_i+0x146>
80001398:	4814                	lw	a3,16(s0)
8000139a:	8656                	mv	a2,s5
8000139c:	85ca                	mv	a1,s2
8000139e:	8526                	mv	a0,s1
800013a0:	9982                	jalr	s3
800013a2:	f34501e3          	beq	a0,s4,800012c4 <_printf_i+0x158>
800013a6:	401c                	lw	a5,0(s0)
800013a8:	8b89                	andi	a5,a5,2
800013aa:	e78d                	bnez	a5,800013d4 <_printf_i+0x268>
800013ac:	47b2                	lw	a5,12(sp)
800013ae:	4448                	lw	a0,12(s0)
800013b0:	f0f55be3          	bge	a0,a5,800012c6 <_printf_i+0x15a>
800013b4:	853e                	mv	a0,a5
800013b6:	bf01                	j	800012c6 <_printf_i+0x15a>
800013b8:	4685                	li	a3,1
800013ba:	8656                	mv	a2,s5
800013bc:	85ca                	mv	a1,s2
800013be:	8526                	mv	a0,s1
800013c0:	9982                	jalr	s3
800013c2:	f16501e3          	beq	a0,s6,800012c4 <_printf_i+0x158>
800013c6:	0a05                	addi	s4,s4,1
800013c8:	445c                	lw	a5,12(s0)
800013ca:	4732                	lw	a4,12(sp)
800013cc:	8f99                	sub	a5,a5,a4
800013ce:	fefa45e3          	blt	s4,a5,800013b8 <_printf_i+0x24c>
800013d2:	bfe9                	j	800013ac <_printf_i+0x240>
800013d4:	4a01                	li	s4,0
800013d6:	01940a93          	addi	s5,s0,25
800013da:	5b7d                	li	s6,-1
800013dc:	b7f5                	j	800013c8 <_printf_i+0x25c>

800013de <iprintf>:
printf():
800013de:	715d                	addi	sp,sp,-80
800013e0:	d422                	sw	s0,40(sp)
800013e2:	d606                	sw	ra,44(sp)
800013e4:	842a                	mv	s0,a0
800013e6:	da2e                	sw	a1,52(sp)
800013e8:	dc32                	sw	a2,56(sp)
800013ea:	de36                	sw	a3,60(sp)
800013ec:	c0ba                	sw	a4,64(sp)
800013ee:	c2be                	sw	a5,68(sp)
800013f0:	c4c2                	sw	a6,72(sp)
800013f2:	c6c6                	sw	a7,76(sp)
800013f4:	0ffff517          	auipc	a0,0xffff
800013f8:	de452503          	lw	a0,-540(a0) # 900001d8 <_impure_ptr>
800013fc:	c519                	beqz	a0,8000140a <iprintf+0x2c>
800013fe:	4d1c                	lw	a5,24(a0)
80001400:	e789                	bnez	a5,8000140a <iprintf+0x2c>
80001402:	c62a                	sw	a0,12(sp)
80001404:	348010ef          	jal	ra,8000274c <__sinit>
80001408:	4532                	lw	a0,12(sp)
8000140a:	450c                	lw	a1,8(a0)
8000140c:	1854                	addi	a3,sp,52
8000140e:	8622                	mv	a2,s0
80001410:	ce36                	sw	a3,28(sp)
80001412:	1e2020ef          	jal	ra,800035f4 <_vfiprintf_r>
80001416:	50b2                	lw	ra,44(sp)
80001418:	5422                	lw	s0,40(sp)
8000141a:	6161                	addi	sp,sp,80
8000141c:	8082                	ret

8000141e <_puts_r>:
_puts_r():
8000141e:	1101                	addi	sp,sp,-32
80001420:	ca26                	sw	s1,20(sp)
80001422:	c84a                	sw	s2,16(sp)
80001424:	ce06                	sw	ra,28(sp)
80001426:	cc22                	sw	s0,24(sp)
80001428:	c64e                	sw	s3,12(sp)
8000142a:	c452                	sw	s4,8(sp)
8000142c:	84aa                	mv	s1,a0
8000142e:	892e                	mv	s2,a1
80001430:	c509                	beqz	a0,8000143a <_puts_r+0x1c>
80001432:	4d1c                	lw	a5,24(a0)
80001434:	e399                	bnez	a5,8000143a <_puts_r+0x1c>
80001436:	316010ef          	jal	ra,8000274c <__sinit>
8000143a:	4c9c                	lw	a5,24(s1)
8000143c:	4480                	lw	s0,8(s1)
8000143e:	e781                	bnez	a5,80001446 <_puts_r+0x28>
80001440:	8526                	mv	a0,s1
80001442:	30a010ef          	jal	ra,8000274c <__sinit>
80001446:	00004797          	auipc	a5,0x4
8000144a:	5d278793          	addi	a5,a5,1490 # 80005a18 <__sf_fake_stdin>
8000144e:	02f41c63          	bne	s0,a5,80001486 <_puts_r+0x68>
80001452:	40c0                	lw	s0,4(s1)
80001454:	00c45783          	lhu	a5,12(s0)
80001458:	8ba1                	andi	a5,a5,8
8000145a:	c7b1                	beqz	a5,800014a6 <_puts_r+0x88>
8000145c:	481c                	lw	a5,16(s0)
8000145e:	c7a1                	beqz	a5,800014a6 <_puts_r+0x88>
80001460:	59fd                	li	s3,-1
80001462:	4a29                	li	s4,10
80001464:	441c                	lw	a5,8(s0)
80001466:	00094583          	lbu	a1,0(s2)
8000146a:	17fd                	addi	a5,a5,-1
8000146c:	e9b1                	bnez	a1,800014c0 <_puts_r+0xa2>
8000146e:	c41c                	sw	a5,8(s0)
80001470:	0607de63          	bgez	a5,800014ec <_puts_r+0xce>
80001474:	8622                	mv	a2,s0
80001476:	45a9                	li	a1,10
80001478:	8526                	mv	a0,s1
8000147a:	2055                	jal	8000151e <__swbuf_r>
8000147c:	57fd                	li	a5,-1
8000147e:	02f50863          	beq	a0,a5,800014ae <_puts_r+0x90>
80001482:	4529                	li	a0,10
80001484:	a035                	j	800014b0 <_puts_r+0x92>
80001486:	00004797          	auipc	a5,0x4
8000148a:	5b278793          	addi	a5,a5,1458 # 80005a38 <__sf_fake_stdout>
8000148e:	00f41463          	bne	s0,a5,80001496 <_puts_r+0x78>
80001492:	4480                	lw	s0,8(s1)
80001494:	b7c1                	j	80001454 <_puts_r+0x36>
80001496:	00004797          	auipc	a5,0x4
8000149a:	56278793          	addi	a5,a5,1378 # 800059f8 <__sf_fake_stderr>
8000149e:	faf41be3          	bne	s0,a5,80001454 <_puts_r+0x36>
800014a2:	44c0                	lw	s0,12(s1)
800014a4:	bf45                	j	80001454 <_puts_r+0x36>
800014a6:	85a2                	mv	a1,s0
800014a8:	8526                	mv	a0,s1
800014aa:	2a2d                	jal	800015e4 <__swsetup_r>
800014ac:	d955                	beqz	a0,80001460 <_puts_r+0x42>
800014ae:	557d                	li	a0,-1
800014b0:	40f2                	lw	ra,28(sp)
800014b2:	4462                	lw	s0,24(sp)
800014b4:	44d2                	lw	s1,20(sp)
800014b6:	4942                	lw	s2,16(sp)
800014b8:	49b2                	lw	s3,12(sp)
800014ba:	4a22                	lw	s4,8(sp)
800014bc:	6105                	addi	sp,sp,32
800014be:	8082                	ret
800014c0:	c41c                	sw	a5,8(s0)
800014c2:	0905                	addi	s2,s2,1
800014c4:	0007d763          	bgez	a5,800014d2 <_puts_r+0xb4>
800014c8:	4c18                	lw	a4,24(s0)
800014ca:	00e7cb63          	blt	a5,a4,800014e0 <_puts_r+0xc2>
800014ce:	01458963          	beq	a1,s4,800014e0 <_puts_r+0xc2>
800014d2:	401c                	lw	a5,0(s0)
800014d4:	00178713          	addi	a4,a5,1
800014d8:	c018                	sw	a4,0(s0)
800014da:	00b78023          	sb	a1,0(a5)
800014de:	b759                	j	80001464 <_puts_r+0x46>
800014e0:	8622                	mv	a2,s0
800014e2:	8526                	mv	a0,s1
800014e4:	282d                	jal	8000151e <__swbuf_r>
800014e6:	f7351fe3          	bne	a0,s3,80001464 <_puts_r+0x46>
800014ea:	b7d1                	j	800014ae <_puts_r+0x90>
800014ec:	401c                	lw	a5,0(s0)
800014ee:	00178713          	addi	a4,a5,1
800014f2:	c018                	sw	a4,0(s0)
800014f4:	4729                	li	a4,10
800014f6:	00e78023          	sb	a4,0(a5)
800014fa:	b761                	j	80001482 <_puts_r+0x64>

800014fc <puts>:
puts():
800014fc:	85aa                	mv	a1,a0
800014fe:	0ffff517          	auipc	a0,0xffff
80001502:	cda52503          	lw	a0,-806(a0) # 900001d8 <_impure_ptr>
80001506:	bf21                	j	8000141e <_puts_r>

80001508 <strlen>:
strlen():
80001508:	87aa                	mv	a5,a0
8000150a:	0007c703          	lbu	a4,0(a5)
8000150e:	0785                	addi	a5,a5,1
80001510:	ff6d                	bnez	a4,8000150a <strlen+0x2>
80001512:	40a78533          	sub	a0,a5,a0
80001516:	157d                	addi	a0,a0,-1
80001518:	8082                	ret

8000151a <isatty>:
isatty():
8000151a:	c4bfe06f          	j	80000164 <_isatty>

8000151e <__swbuf_r>:
__swbuf_r():
8000151e:	1101                	addi	sp,sp,-32
80001520:	cc22                	sw	s0,24(sp)
80001522:	ca26                	sw	s1,20(sp)
80001524:	c84a                	sw	s2,16(sp)
80001526:	ce06                	sw	ra,28(sp)
80001528:	c64e                	sw	s3,12(sp)
8000152a:	84aa                	mv	s1,a0
8000152c:	892e                	mv	s2,a1
8000152e:	8432                	mv	s0,a2
80001530:	c509                	beqz	a0,8000153a <__swbuf_r+0x1c>
80001532:	4d1c                	lw	a5,24(a0)
80001534:	e399                	bnez	a5,8000153a <__swbuf_r+0x1c>
80001536:	216010ef          	jal	ra,8000274c <__sinit>
8000153a:	00004797          	auipc	a5,0x4
8000153e:	4de78793          	addi	a5,a5,1246 # 80005a18 <__sf_fake_stdin>
80001542:	06f41b63          	bne	s0,a5,800015b8 <__swbuf_r+0x9a>
80001546:	40c0                	lw	s0,4(s1)
80001548:	4c1c                	lw	a5,24(s0)
8000154a:	c41c                	sw	a5,8(s0)
8000154c:	00c45783          	lhu	a5,12(s0)
80001550:	8ba1                	andi	a5,a5,8
80001552:	c3d9                	beqz	a5,800015d8 <__swbuf_r+0xba>
80001554:	481c                	lw	a5,16(s0)
80001556:	c3c9                	beqz	a5,800015d8 <__swbuf_r+0xba>
80001558:	481c                	lw	a5,16(s0)
8000155a:	4008                	lw	a0,0(s0)
8000155c:	0ff97993          	zext.b	s3,s2
80001560:	0ff97913          	zext.b	s2,s2
80001564:	8d1d                	sub	a0,a0,a5
80001566:	485c                	lw	a5,20(s0)
80001568:	00f54763          	blt	a0,a5,80001576 <__swbuf_r+0x58>
8000156c:	85a2                	mv	a1,s0
8000156e:	8526                	mv	a0,s1
80001570:	0c0010ef          	jal	ra,80002630 <_fflush_r>
80001574:	e535                	bnez	a0,800015e0 <__swbuf_r+0xc2>
80001576:	441c                	lw	a5,8(s0)
80001578:	0505                	addi	a0,a0,1
8000157a:	17fd                	addi	a5,a5,-1
8000157c:	c41c                	sw	a5,8(s0)
8000157e:	401c                	lw	a5,0(s0)
80001580:	00178713          	addi	a4,a5,1
80001584:	c018                	sw	a4,0(s0)
80001586:	01378023          	sb	s3,0(a5)
8000158a:	485c                	lw	a5,20(s0)
8000158c:	00a78963          	beq	a5,a0,8000159e <__swbuf_r+0x80>
80001590:	00c45783          	lhu	a5,12(s0)
80001594:	8b85                	andi	a5,a5,1
80001596:	cb89                	beqz	a5,800015a8 <__swbuf_r+0x8a>
80001598:	47a9                	li	a5,10
8000159a:	00f91763          	bne	s2,a5,800015a8 <__swbuf_r+0x8a>
8000159e:	85a2                	mv	a1,s0
800015a0:	8526                	mv	a0,s1
800015a2:	08e010ef          	jal	ra,80002630 <_fflush_r>
800015a6:	ed0d                	bnez	a0,800015e0 <__swbuf_r+0xc2>
800015a8:	40f2                	lw	ra,28(sp)
800015aa:	4462                	lw	s0,24(sp)
800015ac:	44d2                	lw	s1,20(sp)
800015ae:	49b2                	lw	s3,12(sp)
800015b0:	854a                	mv	a0,s2
800015b2:	4942                	lw	s2,16(sp)
800015b4:	6105                	addi	sp,sp,32
800015b6:	8082                	ret
800015b8:	00004797          	auipc	a5,0x4
800015bc:	48078793          	addi	a5,a5,1152 # 80005a38 <__sf_fake_stdout>
800015c0:	00f41463          	bne	s0,a5,800015c8 <__swbuf_r+0xaa>
800015c4:	4480                	lw	s0,8(s1)
800015c6:	b749                	j	80001548 <__swbuf_r+0x2a>
800015c8:	00004797          	auipc	a5,0x4
800015cc:	43078793          	addi	a5,a5,1072 # 800059f8 <__sf_fake_stderr>
800015d0:	f6f41ce3          	bne	s0,a5,80001548 <__swbuf_r+0x2a>
800015d4:	44c0                	lw	s0,12(s1)
800015d6:	bf8d                	j	80001548 <__swbuf_r+0x2a>
800015d8:	85a2                	mv	a1,s0
800015da:	8526                	mv	a0,s1
800015dc:	2021                	jal	800015e4 <__swsetup_r>
800015de:	dd2d                	beqz	a0,80001558 <__swbuf_r+0x3a>
800015e0:	597d                	li	s2,-1
800015e2:	b7d9                	j	800015a8 <__swbuf_r+0x8a>

800015e4 <__swsetup_r>:
__swsetup_r():
800015e4:	1141                	addi	sp,sp,-16
800015e6:	c422                	sw	s0,8(sp)
800015e8:	c226                	sw	s1,4(sp)
800015ea:	c04a                	sw	s2,0(sp)
800015ec:	c606                	sw	ra,12(sp)
800015ee:	0ffff497          	auipc	s1,0xffff
800015f2:	bea4a483          	lw	s1,-1046(s1) # 900001d8 <_impure_ptr>
800015f6:	892a                	mv	s2,a0
800015f8:	842e                	mv	s0,a1
800015fa:	c491                	beqz	s1,80001606 <__swsetup_r+0x22>
800015fc:	4c9c                	lw	a5,24(s1)
800015fe:	e781                	bnez	a5,80001606 <__swsetup_r+0x22>
80001600:	8526                	mv	a0,s1
80001602:	14a010ef          	jal	ra,8000274c <__sinit>
80001606:	00004797          	auipc	a5,0x4
8000160a:	41278793          	addi	a5,a5,1042 # 80005a18 <__sf_fake_stdin>
8000160e:	02f41763          	bne	s0,a5,8000163c <__swsetup_r+0x58>
80001612:	40c0                	lw	s0,4(s1)
80001614:	00c41783          	lh	a5,12(s0)
80001618:	01079713          	slli	a4,a5,0x10
8000161c:	0087f693          	andi	a3,a5,8
80001620:	8341                	srli	a4,a4,0x10
80001622:	eab5                	bnez	a3,80001696 <__swsetup_r+0xb2>
80001624:	01077693          	andi	a3,a4,16
80001628:	ea95                	bnez	a3,8000165c <__swsetup_r+0x78>
8000162a:	4725                	li	a4,9
8000162c:	00e92023          	sw	a4,0(s2)
80001630:	0407e793          	ori	a5,a5,64
80001634:	00f41623          	sh	a5,12(s0)
80001638:	557d                	li	a0,-1
8000163a:	a045                	j	800016da <__swsetup_r+0xf6>
8000163c:	00004797          	auipc	a5,0x4
80001640:	3fc78793          	addi	a5,a5,1020 # 80005a38 <__sf_fake_stdout>
80001644:	00f41463          	bne	s0,a5,8000164c <__swsetup_r+0x68>
80001648:	4480                	lw	s0,8(s1)
8000164a:	b7e9                	j	80001614 <__swsetup_r+0x30>
8000164c:	00004797          	auipc	a5,0x4
80001650:	3ac78793          	addi	a5,a5,940 # 800059f8 <__sf_fake_stderr>
80001654:	fcf410e3          	bne	s0,a5,80001614 <__swsetup_r+0x30>
80001658:	44c0                	lw	s0,12(s1)
8000165a:	bf6d                	j	80001614 <__swsetup_r+0x30>
8000165c:	8b11                	andi	a4,a4,4
8000165e:	c715                	beqz	a4,8000168a <__swsetup_r+0xa6>
80001660:	584c                	lw	a1,52(s0)
80001662:	c991                	beqz	a1,80001676 <__swsetup_r+0x92>
80001664:	04440793          	addi	a5,s0,68
80001668:	00f58563          	beq	a1,a5,80001672 <__swsetup_r+0x8e>
8000166c:	854a                	mv	a0,s2
8000166e:	5ad010ef          	jal	ra,8000341a <_free_r>
80001672:	02042a23          	sw	zero,52(s0)
80001676:	00c45783          	lhu	a5,12(s0)
8000167a:	00042223          	sw	zero,4(s0)
8000167e:	fdb7f793          	andi	a5,a5,-37
80001682:	00f41623          	sh	a5,12(s0)
80001686:	481c                	lw	a5,16(s0)
80001688:	c01c                	sw	a5,0(s0)
8000168a:	00c45783          	lhu	a5,12(s0)
8000168e:	0087e793          	ori	a5,a5,8
80001692:	00f41623          	sh	a5,12(s0)
80001696:	481c                	lw	a5,16(s0)
80001698:	ef89                	bnez	a5,800016b2 <__swsetup_r+0xce>
8000169a:	00c45783          	lhu	a5,12(s0)
8000169e:	20000713          	li	a4,512
800016a2:	2807f793          	andi	a5,a5,640
800016a6:	00e78663          	beq	a5,a4,800016b2 <__swsetup_r+0xce>
800016aa:	85a2                	mv	a1,s0
800016ac:	854a                	mv	a0,s2
800016ae:	26c010ef          	jal	ra,8000291a <__smakebuf_r>
800016b2:	00c41783          	lh	a5,12(s0)
800016b6:	01079713          	slli	a4,a5,0x10
800016ba:	0017f693          	andi	a3,a5,1
800016be:	8341                	srli	a4,a4,0x10
800016c0:	c29d                	beqz	a3,800016e6 <__swsetup_r+0x102>
800016c2:	4854                	lw	a3,20(s0)
800016c4:	00042423          	sw	zero,8(s0)
800016c8:	40d006b3          	neg	a3,a3
800016cc:	cc14                	sw	a3,24(s0)
800016ce:	4814                	lw	a3,16(s0)
800016d0:	4501                	li	a0,0
800016d2:	e681                	bnez	a3,800016da <__swsetup_r+0xf6>
800016d4:	08077713          	andi	a4,a4,128
800016d8:	ff21                	bnez	a4,80001630 <__swsetup_r+0x4c>
800016da:	40b2                	lw	ra,12(sp)
800016dc:	4422                	lw	s0,8(sp)
800016de:	4492                	lw	s1,4(sp)
800016e0:	4902                	lw	s2,0(sp)
800016e2:	0141                	addi	sp,sp,16
800016e4:	8082                	ret
800016e6:	00277693          	andi	a3,a4,2
800016ea:	4601                	li	a2,0
800016ec:	e291                	bnez	a3,800016f0 <__swsetup_r+0x10c>
800016ee:	4850                	lw	a2,20(s0)
800016f0:	c410                	sw	a2,8(s0)
800016f2:	bff1                	j	800016ce <__swsetup_r+0xea>

800016f4 <__register_exitproc>:
__register_exitproc():
800016f4:	88aa                	mv	a7,a0
800016f6:	86818513          	addi	a0,gp,-1944 # 90000238 <_global_atexit>
800016fa:	411c                	lw	a5,0(a0)
800016fc:	ef81                	bnez	a5,80001714 <__register_exitproc+0x20>
800016fe:	99c18713          	addi	a4,gp,-1636 # 9000036c <_global_atexit0>
80001702:	c118                	sw	a4,0(a0)
80001704:	00000513          	li	a0,0
80001708:	87ba                	mv	a5,a4
8000170a:	c509                	beqz	a0,80001714 <__register_exitproc+0x20>
8000170c:	411c                	lw	a5,0(a0)
8000170e:	08f72423          	sw	a5,136(a4)
80001712:	87ba                	mv	a5,a4
80001714:	43d8                	lw	a4,4(a5)
80001716:	487d                	li	a6,31
80001718:	557d                	li	a0,-1
8000171a:	04e84663          	blt	a6,a4,80001766 <__register_exitproc+0x72>
8000171e:	02088d63          	beqz	a7,80001758 <__register_exitproc+0x64>
80001722:	0887a803          	lw	a6,136(a5)
80001726:	04080063          	beqz	a6,80001766 <__register_exitproc+0x72>
8000172a:	00271513          	slli	a0,a4,0x2
8000172e:	9542                	add	a0,a0,a6
80001730:	c110                	sw	a2,0(a0)
80001732:	10082303          	lw	t1,256(a6)
80001736:	4605                	li	a2,1
80001738:	00e61633          	sll	a2,a2,a4
8000173c:	00c36333          	or	t1,t1,a2
80001740:	10682023          	sw	t1,256(a6)
80001744:	08d52023          	sw	a3,128(a0)
80001748:	4689                	li	a3,2
8000174a:	00d89763          	bne	a7,a3,80001758 <__register_exitproc+0x64>
8000174e:	10482683          	lw	a3,260(a6)
80001752:	8e55                	or	a2,a2,a3
80001754:	10c82223          	sw	a2,260(a6)
80001758:	00170693          	addi	a3,a4,1
8000175c:	070a                	slli	a4,a4,0x2
8000175e:	c3d4                	sw	a3,4(a5)
80001760:	97ba                	add	a5,a5,a4
80001762:	c78c                	sw	a1,8(a5)
80001764:	4501                	li	a0,0
80001766:	8082                	ret

80001768 <quorem>:
quorem():
80001768:	1101                	addi	sp,sp,-32
8000176a:	cc22                	sw	s0,24(sp)
8000176c:	491c                	lw	a5,16(a0)
8000176e:	4980                	lw	s0,16(a1)
80001770:	ce06                	sw	ra,28(sp)
80001772:	ca26                	sw	s1,20(sp)
80001774:	c84a                	sw	s2,16(sp)
80001776:	c64e                	sw	s3,12(sp)
80001778:	c452                	sw	s4,8(sp)
8000177a:	c256                	sw	s5,4(sp)
8000177c:	1087ca63          	blt	a5,s0,80001890 <quorem+0x128>
80001780:	147d                	addi	s0,s0,-1
80001782:	00241613          	slli	a2,s0,0x2
80001786:	01458a13          	addi	s4,a1,20
8000178a:	00ca0ab3          	add	s5,s4,a2
8000178e:	01450993          	addi	s3,a0,20
80001792:	000aa783          	lw	a5,0(s5)
80001796:	964e                	add	a2,a2,s3
80001798:	4218                	lw	a4,0(a2)
8000179a:	0785                	addi	a5,a5,1
8000179c:	892a                	mv	s2,a0
8000179e:	02f754b3          	divu	s1,a4,a5
800017a2:	06f76263          	bltu	a4,a5,80001806 <quorem+0x9e>
800017a6:	6541                	lui	a0,0x10
800017a8:	8852                	mv	a6,s4
800017aa:	88ce                	mv	a7,s3
800017ac:	4301                	li	t1,0
800017ae:	4e01                	li	t3,0
800017b0:	157d                	addi	a0,a0,-1
800017b2:	00082683          	lw	a3,0(a6)
800017b6:	0891                	addi	a7,a7,4
800017b8:	0811                	addi	a6,a6,4
800017ba:	00a6f7b3          	and	a5,a3,a0
800017be:	82c1                	srli	a3,a3,0x10
800017c0:	029787b3          	mul	a5,a5,s1
800017c4:	029686b3          	mul	a3,a3,s1
800017c8:	979a                	add	a5,a5,t1
800017ca:	0107d713          	srli	a4,a5,0x10
800017ce:	8fe9                	and	a5,a5,a0
800017d0:	40fe07b3          	sub	a5,t3,a5
800017d4:	96ba                	add	a3,a3,a4
800017d6:	ffc8a703          	lw	a4,-4(a7) # c001ffc <__stack_size+0xc0017fc>
800017da:	0106d313          	srli	t1,a3,0x10
800017de:	8ee9                	and	a3,a3,a0
800017e0:	00a77e33          	and	t3,a4,a0
800017e4:	97f2                	add	a5,a5,t3
800017e6:	8341                	srli	a4,a4,0x10
800017e8:	8f15                	sub	a4,a4,a3
800017ea:	4107d693          	srai	a3,a5,0x10
800017ee:	9736                	add	a4,a4,a3
800017f0:	41075e13          	srai	t3,a4,0x10
800017f4:	8fe9                	and	a5,a5,a0
800017f6:	0742                	slli	a4,a4,0x10
800017f8:	8fd9                	or	a5,a5,a4
800017fa:	fef8ae23          	sw	a5,-4(a7)
800017fe:	fb0afae3          	bgeu	s5,a6,800017b2 <quorem+0x4a>
80001802:	421c                	lw	a5,0(a2)
80001804:	c7bd                	beqz	a5,80001872 <quorem+0x10a>
80001806:	854a                	mv	a0,s2
80001808:	15d010ef          	jal	ra,80003164 <__mcmp>
8000180c:	04054663          	bltz	a0,80001858 <quorem+0xf0>
80001810:	66c1                	lui	a3,0x10
80001812:	0485                	addi	s1,s1,1
80001814:	864e                	mv	a2,s3
80001816:	4581                	li	a1,0
80001818:	16fd                	addi	a3,a3,-1
8000181a:	000a2503          	lw	a0,0(s4)
8000181e:	421c                	lw	a5,0(a2)
80001820:	0611                	addi	a2,a2,4
80001822:	00d57733          	and	a4,a0,a3
80001826:	8d99                	sub	a1,a1,a4
80001828:	00d7f733          	and	a4,a5,a3
8000182c:	972e                	add	a4,a4,a1
8000182e:	83c1                	srli	a5,a5,0x10
80001830:	8141                	srli	a0,a0,0x10
80001832:	41075593          	srai	a1,a4,0x10
80001836:	8f89                	sub	a5,a5,a0
80001838:	97ae                	add	a5,a5,a1
8000183a:	4107d593          	srai	a1,a5,0x10
8000183e:	8f75                	and	a4,a4,a3
80001840:	07c2                	slli	a5,a5,0x10
80001842:	8fd9                	or	a5,a5,a4
80001844:	0a11                	addi	s4,s4,4
80001846:	fef62e23          	sw	a5,-4(a2)
8000184a:	fd4af8e3          	bgeu	s5,s4,8000181a <quorem+0xb2>
8000184e:	00241793          	slli	a5,s0,0x2
80001852:	97ce                	add	a5,a5,s3
80001854:	4398                	lw	a4,0(a5)
80001856:	c71d                	beqz	a4,80001884 <quorem+0x11c>
80001858:	8526                	mv	a0,s1
8000185a:	40f2                	lw	ra,28(sp)
8000185c:	4462                	lw	s0,24(sp)
8000185e:	44d2                	lw	s1,20(sp)
80001860:	4942                	lw	s2,16(sp)
80001862:	49b2                	lw	s3,12(sp)
80001864:	4a22                	lw	s4,8(sp)
80001866:	4a92                	lw	s5,4(sp)
80001868:	6105                	addi	sp,sp,32
8000186a:	8082                	ret
8000186c:	421c                	lw	a5,0(a2)
8000186e:	e789                	bnez	a5,80001878 <quorem+0x110>
80001870:	147d                	addi	s0,s0,-1
80001872:	1671                	addi	a2,a2,-4
80001874:	fec9ece3          	bltu	s3,a2,8000186c <quorem+0x104>
80001878:	00892823          	sw	s0,16(s2)
8000187c:	b769                	j	80001806 <quorem+0x9e>
8000187e:	4398                	lw	a4,0(a5)
80001880:	e709                	bnez	a4,8000188a <quorem+0x122>
80001882:	147d                	addi	s0,s0,-1
80001884:	17f1                	addi	a5,a5,-4
80001886:	fef9ece3          	bltu	s3,a5,8000187e <quorem+0x116>
8000188a:	00892823          	sw	s0,16(s2)
8000188e:	b7e9                	j	80001858 <quorem+0xf0>
80001890:	4501                	li	a0,0
80001892:	b7e1                	j	8000185a <quorem+0xf2>

80001894 <_dtoa_r>:
_dtoa_r():
80001894:	7135                	addi	sp,sp,-160
80001896:	dc3e                	sw	a5,56(sp)
80001898:	515c                	lw	a5,36(a0)
8000189a:	cd22                	sw	s0,152(sp)
8000189c:	cb26                	sw	s1,148(sp)
8000189e:	c94a                	sw	s2,144(sp)
800018a0:	c74e                	sw	s3,140(sp)
800018a2:	c356                	sw	s5,132(sp)
800018a4:	c15a                	sw	s6,128(sp)
800018a6:	cf06                	sw	ra,156(sp)
800018a8:	c552                	sw	s4,136(sp)
800018aa:	dede                	sw	s7,124(sp)
800018ac:	dce2                	sw	s8,120(sp)
800018ae:	dae6                	sw	s9,116(sp)
800018b0:	d8ea                	sw	s10,112(sp)
800018b2:	d6ee                	sw	s11,108(sp)
800018b4:	ca36                	sw	a3,20(sp)
800018b6:	d03a                	sw	a4,32(sp)
800018b8:	d246                	sw	a7,36(sp)
800018ba:	84aa                	mv	s1,a0
800018bc:	8aae                	mv	s5,a1
800018be:	8432                	mv	s0,a2
800018c0:	8942                	mv	s2,a6
800018c2:	89ae                	mv	s3,a1
800018c4:	8b32                	mv	s6,a2
800018c6:	eb9d                	bnez	a5,800018fc <_dtoa_r+0x68>
800018c8:	4541                	li	a0,16
800018ca:	0f0010ef          	jal	ra,800029ba <malloc>
800018ce:	d0c8                	sw	a0,36(s1)
800018d0:	ed11                	bnez	a0,800018ec <_dtoa_r+0x58>
800018d2:	00004697          	auipc	a3,0x4
800018d6:	0a668693          	addi	a3,a3,166 # 80005978 <__clz_tab+0x1a4>
800018da:	4601                	li	a2,0
800018dc:	0ea00593          	li	a1,234
800018e0:	00004517          	auipc	a0,0x4
800018e4:	0b050513          	addi	a0,a0,176 # 80005990 <__clz_tab+0x1bc>
800018e8:	0b8020ef          	jal	ra,800039a0 <__assert_func>
800018ec:	00052223          	sw	zero,4(a0)
800018f0:	00052423          	sw	zero,8(a0)
800018f4:	00052023          	sw	zero,0(a0)
800018f8:	00052623          	sw	zero,12(a0)
800018fc:	50dc                	lw	a5,36(s1)
800018fe:	438c                	lw	a1,0(a5)
80001900:	cd89                	beqz	a1,8000191a <_dtoa_r+0x86>
80001902:	43d8                	lw	a4,4(a5)
80001904:	4785                	li	a5,1
80001906:	8526                	mv	a0,s1
80001908:	00e797b3          	sll	a5,a5,a4
8000190c:	c59c                	sw	a5,8(a1)
8000190e:	c1d8                	sw	a4,4(a1)
80001910:	302010ef          	jal	ra,80002c12 <_Bfree>
80001914:	50dc                	lw	a5,36(s1)
80001916:	0007a023          	sw	zero,0(a5)
8000191a:	04045263          	bgez	s0,8000195e <_dtoa_r+0xca>
8000191e:	4785                	li	a5,1
80001920:	0406                	slli	s0,s0,0x1
80001922:	00f92023          	sw	a5,0(s2)
80001926:	00145b13          	srli	s6,s0,0x1
8000192a:	7ff007b7          	lui	a5,0x7ff00
8000192e:	00fb7733          	and	a4,s6,a5
80001932:	06f71463          	bne	a4,a5,8000199a <_dtoa_r+0x106>
80001936:	5762                	lw	a4,56(sp)
80001938:	6789                	lui	a5,0x2
8000193a:	0b32                	slli	s6,s6,0xc
8000193c:	70f78793          	addi	a5,a5,1807 # 270f <__stack_size+0x1f0f>
80001940:	00cb5b13          	srli	s6,s6,0xc
80001944:	c31c                	sw	a5,0(a4)
80001946:	015b6ab3          	or	s5,s6,s5
8000194a:	340a82e3          	beqz	s5,8000248e <_dtoa_r+0xbfa>
8000194e:	5792                	lw	a5,36(sp)
80001950:	eb91                	bnez	a5,80001964 <_dtoa_r+0xd0>
80001952:	00004797          	auipc	a5,0x4
80001956:	02278793          	addi	a5,a5,34 # 80005974 <__clz_tab+0x1a0>
8000195a:	c63e                	sw	a5,12(sp)
8000195c:	a839                	j	8000197a <_dtoa_r+0xe6>
8000195e:	00092023          	sw	zero,0(s2)
80001962:	b7e1                	j	8000192a <_dtoa_r+0x96>
80001964:	00004797          	auipc	a5,0x4
80001968:	01078793          	addi	a5,a5,16 # 80005974 <__clz_tab+0x1a0>
8000196c:	c63e                	sw	a5,12(sp)
8000196e:	00004797          	auipc	a5,0x4
80001972:	00978793          	addi	a5,a5,9 # 80005977 <__clz_tab+0x1a3>
80001976:	5712                	lw	a4,36(sp)
80001978:	c31c                	sw	a5,0(a4)
8000197a:	40fa                	lw	ra,156(sp)
8000197c:	446a                	lw	s0,152(sp)
8000197e:	4532                	lw	a0,12(sp)
80001980:	44da                	lw	s1,148(sp)
80001982:	494a                	lw	s2,144(sp)
80001984:	49ba                	lw	s3,140(sp)
80001986:	4a2a                	lw	s4,136(sp)
80001988:	4a9a                	lw	s5,132(sp)
8000198a:	4b0a                	lw	s6,128(sp)
8000198c:	5bf6                	lw	s7,124(sp)
8000198e:	5c66                	lw	s8,120(sp)
80001990:	5cd6                	lw	s9,116(sp)
80001992:	5d46                	lw	s10,112(sp)
80001994:	5db6                	lw	s11,108(sp)
80001996:	610d                	addi	sp,sp,160
80001998:	8082                	ret
8000199a:	4601                	li	a2,0
8000199c:	4681                	li	a3,0
8000199e:	8556                	mv	a0,s5
800019a0:	85da                	mv	a1,s6
800019a2:	d656                	sw	s5,44(sp)
800019a4:	d85a                	sw	s6,48(sp)
800019a6:	583020ef          	jal	ra,80004728 <__eqdf2>
800019aa:	e105                	bnez	a0,800019ca <_dtoa_r+0x136>
800019ac:	5762                	lw	a4,56(sp)
800019ae:	4785                	li	a5,1
800019b0:	c31c                	sw	a5,0(a4)
800019b2:	00004797          	auipc	a5,0x4
800019b6:	f3278793          	addi	a5,a5,-206 # 800058e4 <__clz_tab+0x110>
800019ba:	c63e                	sw	a5,12(sp)
800019bc:	5792                	lw	a5,36(sp)
800019be:	dfd5                	beqz	a5,8000197a <_dtoa_r+0xe6>
800019c0:	00004797          	auipc	a5,0x4
800019c4:	f2578793          	addi	a5,a5,-219 # 800058e5 <__clz_tab+0x111>
800019c8:	b77d                	j	80001976 <_dtoa_r+0xe2>
800019ca:	08b8                	addi	a4,sp,88
800019cc:	08f4                	addi	a3,sp,92
800019ce:	865a                	mv	a2,s6
800019d0:	85d6                	mv	a1,s5
800019d2:	8526                	mv	a0,s1
800019d4:	014b5913          	srli	s2,s6,0x14
800019d8:	11f010ef          	jal	ra,800032f6 <__d2b>
800019dc:	7ff97913          	andi	s2,s2,2047
800019e0:	4a66                	lw	s4,88(sp)
800019e2:	842a                	mv	s0,a0
800019e4:	12090663          	beqz	s2,80001b10 <_dtoa_r+0x27c>
800019e8:	57c2                	lw	a5,48(sp)
800019ea:	5532                	lw	a0,44(sp)
800019ec:	c0190913          	addi	s2,s2,-1023
800019f0:	00c79593          	slli	a1,a5,0xc
800019f4:	81b1                	srli	a1,a1,0xc
800019f6:	3ff007b7          	lui	a5,0x3ff00
800019fa:	8ddd                	or	a1,a1,a5
800019fc:	c082                	sw	zero,64(sp)
800019fe:	0fffe797          	auipc	a5,0xfffe
80001a02:	7ea78793          	addi	a5,a5,2026 # 900001e8 <_impure_ptr+0x10>
80001a06:	4390                	lw	a2,0(a5)
80001a08:	43d4                	lw	a3,4(a5)
80001a0a:	316030ef          	jal	ra,80004d20 <__subdf3>
80001a0e:	0fffe797          	auipc	a5,0xfffe
80001a12:	7e278793          	addi	a5,a5,2018 # 900001f0 <_impure_ptr+0x18>
80001a16:	4390                	lw	a2,0(a5)
80001a18:	43d4                	lw	a3,4(a5)
80001a1a:	6c5020ef          	jal	ra,800048de <__muldf3>
80001a1e:	0fffe797          	auipc	a5,0xfffe
80001a22:	7da78793          	addi	a5,a5,2010 # 900001f8 <_impure_ptr+0x20>
80001a26:	4390                	lw	a2,0(a5)
80001a28:	43d4                	lw	a3,4(a5)
80001a2a:	1b4020ef          	jal	ra,80003bde <__adddf3>
80001a2e:	8baa                	mv	s7,a0
80001a30:	854a                	mv	a0,s2
80001a32:	8aae                	mv	s5,a1
80001a34:	1a3030ef          	jal	ra,800053d6 <__floatsidf>
80001a38:	0fffe797          	auipc	a5,0xfffe
80001a3c:	7c878793          	addi	a5,a5,1992 # 90000200 <_impure_ptr+0x28>
80001a40:	4390                	lw	a2,0(a5)
80001a42:	43d4                	lw	a3,4(a5)
80001a44:	69b020ef          	jal	ra,800048de <__muldf3>
80001a48:	862a                	mv	a2,a0
80001a4a:	86ae                	mv	a3,a1
80001a4c:	855e                	mv	a0,s7
80001a4e:	85d6                	mv	a1,s5
80001a50:	18e020ef          	jal	ra,80003bde <__adddf3>
80001a54:	8baa                	mv	s7,a0
80001a56:	8aae                	mv	s5,a1
80001a58:	11b030ef          	jal	ra,80005372 <__fixdfsi>
80001a5c:	8daa                	mv	s11,a0
80001a5e:	4601                	li	a2,0
80001a60:	4681                	li	a3,0
80001a62:	855e                	mv	a0,s7
80001a64:	85d6                	mv	a1,s5
80001a66:	5d3020ef          	jal	ra,80004838 <__ledf2>
80001a6a:	00055b63          	bgez	a0,80001a80 <_dtoa_r+0x1ec>
80001a6e:	856e                	mv	a0,s11
80001a70:	167030ef          	jal	ra,800053d6 <__floatsidf>
80001a74:	865e                	mv	a2,s7
80001a76:	86d6                	mv	a3,s5
80001a78:	4b1020ef          	jal	ra,80004728 <__eqdf2>
80001a7c:	c111                	beqz	a0,80001a80 <_dtoa_r+0x1ec>
80001a7e:	1dfd                	addi	s11,s11,-1
80001a80:	4705                	li	a4,1
80001a82:	47d9                	li	a5,22
80001a84:	da3a                	sw	a4,52(sp)
80001a86:	03b7e363          	bltu	a5,s11,80001aac <_dtoa_r+0x218>
80001a8a:	003d9713          	slli	a4,s11,0x3
80001a8e:	00004797          	auipc	a5,0x4
80001a92:	04a78793          	addi	a5,a5,74 # 80005ad8 <__mprec_tens>
80001a96:	97ba                	add	a5,a5,a4
80001a98:	4390                	lw	a2,0(a5)
80001a9a:	43d4                	lw	a3,4(a5)
80001a9c:	5532                	lw	a0,44(sp)
80001a9e:	55c2                	lw	a1,48(sp)
80001aa0:	599020ef          	jal	ra,80004838 <__ledf2>
80001aa4:	00055363          	bgez	a0,80001aaa <_dtoa_r+0x216>
80001aa8:	1dfd                	addi	s11,s11,-1
80001aaa:	da02                	sw	zero,52(sp)
80001aac:	412a0933          	sub	s2,s4,s2
80001ab0:	fff90c13          	addi	s8,s2,-1
80001ab4:	4b81                	li	s7,0
80001ab6:	000c5663          	bgez	s8,80001ac2 <_dtoa_r+0x22e>
80001aba:	4b85                	li	s7,1
80001abc:	412b8bb3          	sub	s7,s7,s2
80001ac0:	4c01                	li	s8,0
80001ac2:	080dc863          	bltz	s11,80001b52 <_dtoa_r+0x2be>
80001ac6:	9c6e                	add	s8,s8,s11
80001ac8:	d46e                	sw	s11,40(sp)
80001aca:	4c81                	li	s9,0
80001acc:	4752                	lw	a4,20(sp)
80001ace:	47a5                	li	a5,9
80001ad0:	0ee7e563          	bltu	a5,a4,80001bba <_dtoa_r+0x326>
80001ad4:	4795                	li	a5,5
80001ad6:	4905                	li	s2,1
80001ad8:	00e7d663          	bge	a5,a4,80001ae4 <_dtoa_r+0x250>
80001adc:	ffc70793          	addi	a5,a4,-4
80001ae0:	ca3e                	sw	a5,20(sp)
80001ae2:	4901                	li	s2,0
80001ae4:	4752                	lw	a4,20(sp)
80001ae6:	4791                	li	a5,4
80001ae8:	06f70b63          	beq	a4,a5,80001b5e <_dtoa_r+0x2ca>
80001aec:	4795                	li	a5,5
80001aee:	0af70a63          	beq	a4,a5,80001ba2 <_dtoa_r+0x30e>
80001af2:	4789                	li	a5,2
80001af4:	0af70563          	beq	a4,a5,80001b9e <_dtoa_r+0x30a>
80001af8:	478d                	li	a5,3
80001afa:	ce02                	sw	zero,28(sp)
80001afc:	0af70563          	beq	a4,a5,80001ba6 <_dtoa_r+0x312>
80001b00:	4785                	li	a5,1
80001b02:	ce3e                	sw	a5,28(sp)
80001b04:	57fd                	li	a5,-1
80001b06:	c83e                	sw	a5,16(sp)
80001b08:	5d7d                	li	s10,-1
80001b0a:	47c9                	li	a5,18
80001b0c:	d002                	sw	zero,32(sp)
80001b0e:	a095                	j	80001b72 <_dtoa_r+0x2de>
80001b10:	4976                	lw	s2,92(sp)
80001b12:	02000793          	li	a5,32
80001b16:	9952                	add	s2,s2,s4
80001b18:	43290593          	addi	a1,s2,1074
80001b1c:	02b7d663          	bge	a5,a1,80001b48 <_dtoa_r+0x2b4>
80001b20:	04000513          	li	a0,64
80001b24:	8d0d                	sub	a0,a0,a1
80001b26:	41290593          	addi	a1,s2,1042
80001b2a:	00ab1533          	sll	a0,s6,a0
80001b2e:	00badab3          	srl	s5,s5,a1
80001b32:	01556533          	or	a0,a0,s5
80001b36:	107030ef          	jal	ra,8000543c <__floatunsidf>
80001b3a:	fe1007b7          	lui	a5,0xfe100
80001b3e:	95be                	add	a1,a1,a5
80001b40:	4785                	li	a5,1
80001b42:	197d                	addi	s2,s2,-1
80001b44:	c0be                	sw	a5,64(sp)
80001b46:	bd65                	j	800019fe <_dtoa_r+0x16a>
80001b48:	40b78533          	sub	a0,a5,a1
80001b4c:	00aa9533          	sll	a0,s5,a0
80001b50:	b7dd                	j	80001b36 <_dtoa_r+0x2a2>
80001b52:	41bb8bb3          	sub	s7,s7,s11
80001b56:	41b00cb3          	neg	s9,s11
80001b5a:	d402                	sw	zero,40(sp)
80001b5c:	bf85                	j	80001acc <_dtoa_r+0x238>
80001b5e:	4785                	li	a5,1
80001b60:	ce3e                	sw	a5,28(sp)
80001b62:	5782                	lw	a5,32(sp)
80001b64:	04f04e63          	bgtz	a5,80001bc0 <_dtoa_r+0x32c>
80001b68:	4785                	li	a5,1
80001b6a:	4705                	li	a4,1
80001b6c:	c83e                	sw	a5,16(sp)
80001b6e:	4d05                	li	s10,1
80001b70:	d03a                	sw	a4,32(sp)
80001b72:	50d4                	lw	a3,36(s1)
80001b74:	4711                	li	a4,4
80001b76:	0006a223          	sw	zero,4(a3)
80001b7a:	01470613          	addi	a2,a4,20
80001b7e:	42cc                	lw	a1,4(a3)
80001b80:	04c7f463          	bgeu	a5,a2,80001bc8 <_dtoa_r+0x334>
80001b84:	8526                	mv	a0,s1
80001b86:	7e1000ef          	jal	ra,80002b66 <_Balloc>
80001b8a:	c62a                	sw	a0,12(sp)
80001b8c:	e131                	bnez	a0,80001bd0 <_dtoa_r+0x33c>
80001b8e:	00004697          	auipc	a3,0x4
80001b92:	e5668693          	addi	a3,a3,-426 # 800059e4 <__clz_tab+0x210>
80001b96:	4601                	li	a2,0
80001b98:	1aa00593          	li	a1,426
80001b9c:	b391                	j	800018e0 <_dtoa_r+0x4c>
80001b9e:	ce02                	sw	zero,28(sp)
80001ba0:	b7c9                	j	80001b62 <_dtoa_r+0x2ce>
80001ba2:	4785                	li	a5,1
80001ba4:	ce3e                	sw	a5,28(sp)
80001ba6:	5782                	lw	a5,32(sp)
80001ba8:	97ee                	add	a5,a5,s11
80001baa:	c83e                	sw	a5,16(sp)
80001bac:	00178d13          	addi	s10,a5,1 # fe100001 <_sp+0x6e0f0001>
80001bb0:	87ea                	mv	a5,s10
80001bb2:	fda040e3          	bgtz	s10,80001b72 <_dtoa_r+0x2de>
80001bb6:	4785                	li	a5,1
80001bb8:	bf6d                	j	80001b72 <_dtoa_r+0x2de>
80001bba:	4905                	li	s2,1
80001bbc:	ca02                	sw	zero,20(sp)
80001bbe:	b789                	j	80001b00 <_dtoa_r+0x26c>
80001bc0:	5782                	lw	a5,32(sp)
80001bc2:	c83e                	sw	a5,16(sp)
80001bc4:	8d3e                	mv	s10,a5
80001bc6:	b775                	j	80001b72 <_dtoa_r+0x2de>
80001bc8:	0585                	addi	a1,a1,1
80001bca:	c2cc                	sw	a1,4(a3)
80001bcc:	0706                	slli	a4,a4,0x1
80001bce:	b775                	j	80001b7a <_dtoa_r+0x2e6>
80001bd0:	50dc                	lw	a5,36(s1)
80001bd2:	4732                	lw	a4,12(sp)
80001bd4:	c398                	sw	a4,0(a5)
80001bd6:	47b9                	li	a5,14
80001bd8:	13a7e863          	bltu	a5,s10,80001d08 <_dtoa_r+0x474>
80001bdc:	12090663          	beqz	s2,80001d08 <_dtoa_r+0x474>
80001be0:	1bb05a63          	blez	s11,80001d94 <_dtoa_r+0x500>
80001be4:	00fdf713          	andi	a4,s11,15
80001be8:	00371793          	slli	a5,a4,0x3
80001bec:	00004717          	auipc	a4,0x4
80001bf0:	eec70713          	addi	a4,a4,-276 # 80005ad8 <__mprec_tens>
80001bf4:	973e                	add	a4,a4,a5
80001bf6:	404dd913          	srai	s2,s11,0x4
80001bfa:	431c                	lw	a5,0(a4)
80001bfc:	00472a83          	lw	s5,4(a4)
80001c00:	01097713          	andi	a4,s2,16
80001c04:	4a09                	li	s4,2
80001c06:	c315                	beqz	a4,80001c2a <_dtoa_r+0x396>
80001c08:	00004717          	auipc	a4,0x4
80001c0c:	ea870713          	addi	a4,a4,-344 # 80005ab0 <__mprec_bigtens>
80001c10:	5310                	lw	a2,32(a4)
80001c12:	5354                	lw	a3,36(a4)
80001c14:	5532                	lw	a0,44(sp)
80001c16:	55c2                	lw	a1,48(sp)
80001c18:	cc3e                	sw	a5,24(sp)
80001c1a:	00f97913          	andi	s2,s2,15
80001c1e:	5ca020ef          	jal	ra,800041e8 <__divdf3>
80001c22:	47e2                	lw	a5,24(sp)
80001c24:	89aa                	mv	s3,a0
80001c26:	8b2e                	mv	s6,a1
80001c28:	4a0d                	li	s4,3
80001c2a:	00004717          	auipc	a4,0x4
80001c2e:	e8670713          	addi	a4,a4,-378 # 80005ab0 <__mprec_bigtens>
80001c32:	12091f63          	bnez	s2,80001d70 <_dtoa_r+0x4dc>
80001c36:	854e                	mv	a0,s3
80001c38:	863e                	mv	a2,a5
80001c3a:	86d6                	mv	a3,s5
80001c3c:	85da                	mv	a1,s6
80001c3e:	5aa020ef          	jal	ra,800041e8 <__divdf3>
80001c42:	89aa                	mv	s3,a0
80001c44:	8b2e                	mv	s6,a1
80001c46:	57d2                	lw	a5,52(sp)
80001c48:	1a078b63          	beqz	a5,80001dfe <_dtoa_r+0x56a>
80001c4c:	0fffe797          	auipc	a5,0xfffe
80001c50:	5bc78793          	addi	a5,a5,1468 # 90000208 <_impure_ptr+0x30>
80001c54:	4390                	lw	a2,0(a5)
80001c56:	43d4                	lw	a3,4(a5)
80001c58:	854e                	mv	a0,s3
80001c5a:	85da                	mv	a1,s6
80001c5c:	3dd020ef          	jal	ra,80004838 <__ledf2>
80001c60:	18055f63          	bgez	a0,80001dfe <_dtoa_r+0x56a>
80001c64:	1a0d0063          	beqz	s10,80001e04 <_dtoa_r+0x570>
80001c68:	47c2                	lw	a5,16(sp)
80001c6a:	08f05d63          	blez	a5,80001d04 <_dtoa_r+0x470>
80001c6e:	fffd8793          	addi	a5,s11,-1
80001c72:	cc3e                	sw	a5,24(sp)
80001c74:	0fffe797          	auipc	a5,0xfffe
80001c78:	59c78793          	addi	a5,a5,1436 # 90000210 <_impure_ptr+0x38>
80001c7c:	4390                	lw	a2,0(a5)
80001c7e:	43d4                	lw	a3,4(a5)
80001c80:	854e                	mv	a0,s3
80001c82:	85da                	mv	a1,s6
80001c84:	45b020ef          	jal	ra,800048de <__muldf3>
80001c88:	4842                	lw	a6,16(sp)
80001c8a:	89aa                	mv	s3,a0
80001c8c:	8b2e                	mv	s6,a1
80001c8e:	0a05                	addi	s4,s4,1
80001c90:	8552                	mv	a0,s4
80001c92:	c4c2                	sw	a6,72(sp)
80001c94:	de5a                	sw	s6,60(sp)
80001c96:	c2ce                	sw	s3,68(sp)
80001c98:	73e030ef          	jal	ra,800053d6 <__floatsidf>
80001c9c:	86da                	mv	a3,s6
80001c9e:	864e                	mv	a2,s3
80001ca0:	43f020ef          	jal	ra,800048de <__muldf3>
80001ca4:	0fffe697          	auipc	a3,0xfffe
80001ca8:	57468693          	addi	a3,a3,1396 # 90000218 <_impure_ptr+0x40>
80001cac:	4290                	lw	a2,0(a3)
80001cae:	42d4                	lw	a3,4(a3)
80001cb0:	895a                	mv	s2,s6
80001cb2:	8ace                	mv	s5,s3
80001cb4:	72b010ef          	jal	ra,80003bde <__adddf3>
80001cb8:	4826                	lw	a6,72(sp)
80001cba:	fcc008b7          	lui	a7,0xfcc00
80001cbe:	8b2a                	mv	s6,a0
80001cc0:	00b88a33          	add	s4,a7,a1
80001cc4:	14081363          	bnez	a6,80001e0a <_dtoa_r+0x576>
80001cc8:	0fffe697          	auipc	a3,0xfffe
80001ccc:	55868693          	addi	a3,a3,1368 # 90000220 <_impure_ptr+0x48>
80001cd0:	4290                	lw	a2,0(a3)
80001cd2:	42d4                	lw	a3,4(a3)
80001cd4:	854e                	mv	a0,s3
80001cd6:	85ca                	mv	a1,s2
80001cd8:	048030ef          	jal	ra,80004d20 <__subdf3>
80001cdc:	865a                	mv	a2,s6
80001cde:	86d2                	mv	a3,s4
80001ce0:	89aa                	mv	s3,a0
80001ce2:	892e                	mv	s2,a1
80001ce4:	2af020ef          	jal	ra,80004792 <__gedf2>
80001ce8:	5aa04b63          	bgtz	a0,8000229e <_dtoa_r+0xa0a>
80001cec:	800007b7          	lui	a5,0x80000
80001cf0:	0147c7b3          	xor	a5,a5,s4
80001cf4:	865a                	mv	a2,s6
80001cf6:	86be                	mv	a3,a5
80001cf8:	854e                	mv	a0,s3
80001cfa:	85ca                	mv	a1,s2
80001cfc:	33d020ef          	jal	ra,80004838 <__ledf2>
80001d00:	58054c63          	bltz	a0,80002298 <_dtoa_r+0xa04>
80001d04:	59b2                	lw	s3,44(sp)
80001d06:	5b42                	lw	s6,48(sp)
80001d08:	47f6                	lw	a5,92(sp)
80001d0a:	3607c863          	bltz	a5,8000207a <_dtoa_r+0x7e6>
80001d0e:	4739                	li	a4,14
80001d10:	37b74563          	blt	a4,s11,8000207a <_dtoa_r+0x7e6>
80001d14:	003d9713          	slli	a4,s11,0x3
80001d18:	00004797          	auipc	a5,0x4
80001d1c:	dc078793          	addi	a5,a5,-576 # 80005ad8 <__mprec_tens>
80001d20:	97ba                	add	a5,a5,a4
80001d22:	0007aa03          	lw	s4,0(a5)
80001d26:	0047aa83          	lw	s5,4(a5)
80001d2a:	5782                	lw	a5,32(sp)
80001d2c:	2607d163          	bgez	a5,80001f8e <_dtoa_r+0x6fa>
80001d30:	25a04f63          	bgtz	s10,80001f8e <_dtoa_r+0x6fa>
80001d34:	560d1263          	bnez	s10,80002298 <_dtoa_r+0xa04>
80001d38:	0fffe797          	auipc	a5,0xfffe
80001d3c:	4e878793          	addi	a5,a5,1256 # 90000220 <_impure_ptr+0x48>
80001d40:	4390                	lw	a2,0(a5)
80001d42:	43d4                	lw	a3,4(a5)
80001d44:	8552                	mv	a0,s4
80001d46:	85d6                	mv	a1,s5
80001d48:	397020ef          	jal	ra,800048de <__muldf3>
80001d4c:	864e                	mv	a2,s3
80001d4e:	86da                	mv	a3,s6
80001d50:	243020ef          	jal	ra,80004792 <__gedf2>
80001d54:	4a01                	li	s4,0
80001d56:	4901                	li	s2,0
80001d58:	50055863          	bgez	a0,80002268 <_dtoa_r+0x9d4>
80001d5c:	47b2                	lw	a5,12(sp)
80001d5e:	4732                	lw	a4,12(sp)
80001d60:	0d85                	addi	s11,s11,1
80001d62:	00178993          	addi	s3,a5,1
80001d66:	03100793          	li	a5,49
80001d6a:	00f70023          	sb	a5,0(a4)
80001d6e:	a309                	j	80002270 <_dtoa_r+0x9dc>
80001d70:	00197693          	andi	a3,s2,1
80001d74:	ce81                	beqz	a3,80001d8c <_dtoa_r+0x4f8>
80001d76:	4310                	lw	a2,0(a4)
80001d78:	4354                	lw	a3,4(a4)
80001d7a:	853e                	mv	a0,a5
80001d7c:	85d6                	mv	a1,s5
80001d7e:	cc3a                	sw	a4,24(sp)
80001d80:	35f020ef          	jal	ra,800048de <__muldf3>
80001d84:	4762                	lw	a4,24(sp)
80001d86:	0a05                	addi	s4,s4,1
80001d88:	87aa                	mv	a5,a0
80001d8a:	8aae                	mv	s5,a1
80001d8c:	40195913          	srai	s2,s2,0x1
80001d90:	0721                	addi	a4,a4,8
80001d92:	b545                	j	80001c32 <_dtoa_r+0x39e>
80001d94:	4a09                	li	s4,2
80001d96:	ea0d88e3          	beqz	s11,80001c46 <_dtoa_r+0x3b2>
80001d9a:	41b00933          	neg	s2,s11
80001d9e:	00f97793          	andi	a5,s2,15
80001da2:	00379713          	slli	a4,a5,0x3
80001da6:	00004797          	auipc	a5,0x4
80001daa:	d3278793          	addi	a5,a5,-718 # 80005ad8 <__mprec_tens>
80001dae:	97ba                	add	a5,a5,a4
80001db0:	4390                	lw	a2,0(a5)
80001db2:	43d4                	lw	a3,4(a5)
80001db4:	5532                	lw	a0,44(sp)
80001db6:	55c2                	lw	a1,48(sp)
80001db8:	40495913          	srai	s2,s2,0x4
80001dbc:	00004a97          	auipc	s5,0x4
80001dc0:	cf4a8a93          	addi	s5,s5,-780 # 80005ab0 <__mprec_bigtens>
80001dc4:	31b020ef          	jal	ra,800048de <__muldf3>
80001dc8:	87aa                	mv	a5,a0
80001dca:	89aa                	mv	s3,a0
80001dcc:	8b2e                	mv	s6,a1
80001dce:	4701                	li	a4,0
80001dd0:	00091663          	bnez	s2,80001ddc <_dtoa_r+0x548>
80001dd4:	e60709e3          	beqz	a4,80001c46 <_dtoa_r+0x3b2>
80001dd8:	89be                	mv	s3,a5
80001dda:	b5ad                	j	80001c44 <_dtoa_r+0x3b0>
80001ddc:	00197693          	andi	a3,s2,1
80001de0:	ca99                	beqz	a3,80001df6 <_dtoa_r+0x562>
80001de2:	000aa603          	lw	a2,0(s5)
80001de6:	004aa683          	lw	a3,4(s5)
80001dea:	853e                	mv	a0,a5
80001dec:	0a05                	addi	s4,s4,1
80001dee:	2f1020ef          	jal	ra,800048de <__muldf3>
80001df2:	87aa                	mv	a5,a0
80001df4:	4705                	li	a4,1
80001df6:	40195913          	srai	s2,s2,0x1
80001dfa:	0aa1                	addi	s5,s5,8
80001dfc:	bfd1                	j	80001dd0 <_dtoa_r+0x53c>
80001dfe:	cc6e                	sw	s11,24(sp)
80001e00:	886a                	mv	a6,s10
80001e02:	b579                	j	80001c90 <_dtoa_r+0x3fc>
80001e04:	cc6e                	sw	s11,24(sp)
80001e06:	4801                	li	a6,0
80001e08:	b561                	j	80001c90 <_dtoa_r+0x3fc>
80001e0a:	fff80793          	addi	a5,a6,-1
80001e0e:	00379713          	slli	a4,a5,0x3
80001e12:	00004797          	auipc	a5,0x4
80001e16:	cc678793          	addi	a5,a5,-826 # 80005ad8 <__mprec_tens>
80001e1a:	97ba                	add	a5,a5,a4
80001e1c:	4390                	lw	a2,0(a5)
80001e1e:	43d4                	lw	a3,4(a5)
80001e20:	47b2                	lw	a5,12(sp)
80001e22:	97c2                	add	a5,a5,a6
80001e24:	de3e                	sw	a5,60(sp)
80001e26:	47f2                	lw	a5,28(sp)
80001e28:	cbc5                	beqz	a5,80001ed8 <_dtoa_r+0x644>
80001e2a:	0fffe797          	auipc	a5,0xfffe
80001e2e:	3fe78793          	addi	a5,a5,1022 # 90000228 <_impure_ptr+0x50>
80001e32:	43cc                	lw	a1,4(a5)
80001e34:	c2aa                	sw	a0,68(sp)
80001e36:	4388                	lw	a0,0(a5)
80001e38:	3b0020ef          	jal	ra,800041e8 <__divdf3>
80001e3c:	865a                	mv	a2,s6
80001e3e:	86d2                	mv	a3,s4
80001e40:	6e1020ef          	jal	ra,80004d20 <__subdf3>
80001e44:	49b2                	lw	s3,12(sp)
80001e46:	8a2a                	mv	s4,a0
80001e48:	8b2e                	mv	s6,a1
80001e4a:	85ca                	mv	a1,s2
80001e4c:	8556                	mv	a0,s5
80001e4e:	524030ef          	jal	ra,80005372 <__fixdfsi>
80001e52:	c2aa                	sw	a0,68(sp)
80001e54:	582030ef          	jal	ra,800053d6 <__floatsidf>
80001e58:	862a                	mv	a2,a0
80001e5a:	86ae                	mv	a3,a1
80001e5c:	8556                	mv	a0,s5
80001e5e:	85ca                	mv	a1,s2
80001e60:	6c1020ef          	jal	ra,80004d20 <__subdf3>
80001e64:	4796                	lw	a5,68(sp)
80001e66:	0985                	addi	s3,s3,1
80001e68:	8652                	mv	a2,s4
80001e6a:	03078793          	addi	a5,a5,48
80001e6e:	fef98fa3          	sb	a5,-1(s3)
80001e72:	86da                	mv	a3,s6
80001e74:	892a                	mv	s2,a0
80001e76:	8aae                	mv	s5,a1
80001e78:	1c1020ef          	jal	ra,80004838 <__ledf2>
80001e7c:	0e054c63          	bltz	a0,80001f74 <_dtoa_r+0x6e0>
80001e80:	0fffe797          	auipc	a5,0xfffe
80001e84:	38878793          	addi	a5,a5,904 # 90000208 <_impure_ptr+0x30>
80001e88:	4388                	lw	a0,0(a5)
80001e8a:	43cc                	lw	a1,4(a5)
80001e8c:	864a                	mv	a2,s2
80001e8e:	86d6                	mv	a3,s5
80001e90:	691020ef          	jal	ra,80004d20 <__subdf3>
80001e94:	8652                	mv	a2,s4
80001e96:	86da                	mv	a3,s6
80001e98:	1a1020ef          	jal	ra,80004838 <__ledf2>
80001e9c:	18054763          	bltz	a0,8000202a <_dtoa_r+0x796>
80001ea0:	57f2                	lw	a5,60(sp)
80001ea2:	e6f981e3          	beq	s3,a5,80001d04 <_dtoa_r+0x470>
80001ea6:	0fffe797          	auipc	a5,0xfffe
80001eaa:	36a78793          	addi	a5,a5,874 # 90000210 <_impure_ptr+0x38>
80001eae:	4390                	lw	a2,0(a5)
80001eb0:	43d4                	lw	a3,4(a5)
80001eb2:	8552                	mv	a0,s4
80001eb4:	85da                	mv	a1,s6
80001eb6:	229020ef          	jal	ra,800048de <__muldf3>
80001eba:	0fffe797          	auipc	a5,0xfffe
80001ebe:	35678793          	addi	a5,a5,854 # 90000210 <_impure_ptr+0x38>
80001ec2:	4390                	lw	a2,0(a5)
80001ec4:	43d4                	lw	a3,4(a5)
80001ec6:	8a2a                	mv	s4,a0
80001ec8:	8b2e                	mv	s6,a1
80001eca:	854a                	mv	a0,s2
80001ecc:	85d6                	mv	a1,s5
80001ece:	211020ef          	jal	ra,800048de <__muldf3>
80001ed2:	8aaa                	mv	s5,a0
80001ed4:	892e                	mv	s2,a1
80001ed6:	bf95                	j	80001e4a <_dtoa_r+0x5b6>
80001ed8:	85d2                	mv	a1,s4
80001eda:	205020ef          	jal	ra,800048de <__muldf3>
80001ede:	57f2                	lw	a5,60(sp)
80001ee0:	49b2                	lw	s3,12(sp)
80001ee2:	c4aa                	sw	a0,72(sp)
80001ee4:	8b2e                	mv	s6,a1
80001ee6:	c2be                	sw	a5,68(sp)
80001ee8:	85ca                	mv	a1,s2
80001eea:	8556                	mv	a0,s5
80001eec:	486030ef          	jal	ra,80005372 <__fixdfsi>
80001ef0:	c6aa                	sw	a0,76(sp)
80001ef2:	4e4030ef          	jal	ra,800053d6 <__floatsidf>
80001ef6:	862a                	mv	a2,a0
80001ef8:	86ae                	mv	a3,a1
80001efa:	8556                	mv	a0,s5
80001efc:	85ca                	mv	a1,s2
80001efe:	623020ef          	jal	ra,80004d20 <__subdf3>
80001f02:	47b6                	lw	a5,76(sp)
80001f04:	0985                	addi	s3,s3,1
80001f06:	8a2a                	mv	s4,a0
80001f08:	03078793          	addi	a5,a5,48
80001f0c:	fef98fa3          	sb	a5,-1(s3)
80001f10:	57f2                	lw	a5,60(sp)
80001f12:	892e                	mv	s2,a1
80001f14:	06f99263          	bne	s3,a5,80001f78 <_dtoa_r+0x6e4>
80001f18:	0fffea97          	auipc	s5,0xfffe
80001f1c:	310a8a93          	addi	s5,s5,784 # 90000228 <_impure_ptr+0x50>
80001f20:	000aa603          	lw	a2,0(s5)
80001f24:	004aa683          	lw	a3,4(s5)
80001f28:	4526                	lw	a0,72(sp)
80001f2a:	85da                	mv	a1,s6
80001f2c:	4b3010ef          	jal	ra,80003bde <__adddf3>
80001f30:	862a                	mv	a2,a0
80001f32:	86ae                	mv	a3,a1
80001f34:	8552                	mv	a0,s4
80001f36:	85ca                	mv	a1,s2
80001f38:	05b020ef          	jal	ra,80004792 <__gedf2>
80001f3c:	0ea04763          	bgtz	a0,8000202a <_dtoa_r+0x796>
80001f40:	4626                	lw	a2,72(sp)
80001f42:	000aa503          	lw	a0,0(s5)
80001f46:	004aa583          	lw	a1,4(s5)
80001f4a:	86da                	mv	a3,s6
80001f4c:	5d5020ef          	jal	ra,80004d20 <__subdf3>
80001f50:	862a                	mv	a2,a0
80001f52:	86ae                	mv	a3,a1
80001f54:	8552                	mv	a0,s4
80001f56:	85ca                	mv	a1,s2
80001f58:	0e1020ef          	jal	ra,80004838 <__ledf2>
80001f5c:	da0554e3          	bgez	a0,80001d04 <_dtoa_r+0x470>
80001f60:	03000793          	li	a5,48
80001f64:	4996                	lw	s3,68(sp)
80001f66:	fff98713          	addi	a4,s3,-1
80001f6a:	c2ba                	sw	a4,68(sp)
80001f6c:	fff9c703          	lbu	a4,-1(s3)
80001f70:	fef70ae3          	beq	a4,a5,80001f64 <_dtoa_r+0x6d0>
80001f74:	4de2                	lw	s11,24(sp)
80001f76:	a849                	j	80002008 <_dtoa_r+0x774>
80001f78:	0fffe797          	auipc	a5,0xfffe
80001f7c:	29878793          	addi	a5,a5,664 # 90000210 <_impure_ptr+0x38>
80001f80:	4390                	lw	a2,0(a5)
80001f82:	43d4                	lw	a3,4(a5)
80001f84:	15b020ef          	jal	ra,800048de <__muldf3>
80001f88:	8aaa                	mv	s5,a0
80001f8a:	892e                	mv	s2,a1
80001f8c:	bfb1                	j	80001ee8 <_dtoa_r+0x654>
80001f8e:	47b2                	lw	a5,12(sp)
80001f90:	8c5a                	mv	s8,s6
80001f92:	8cce                	mv	s9,s3
80001f94:	00178b13          	addi	s6,a5,1
80001f98:	9d3e                	add	s10,s10,a5
80001f9a:	0fffeb97          	auipc	s7,0xfffe
80001f9e:	276b8b93          	addi	s7,s7,630 # 90000210 <_impure_ptr+0x38>
80001fa2:	8652                	mv	a2,s4
80001fa4:	86d6                	mv	a3,s5
80001fa6:	8566                	mv	a0,s9
80001fa8:	85e2                	mv	a1,s8
80001faa:	23e020ef          	jal	ra,800041e8 <__divdf3>
80001fae:	3c4030ef          	jal	ra,80005372 <__fixdfsi>
80001fb2:	892a                	mv	s2,a0
80001fb4:	422030ef          	jal	ra,800053d6 <__floatsidf>
80001fb8:	8652                	mv	a2,s4
80001fba:	86d6                	mv	a3,s5
80001fbc:	123020ef          	jal	ra,800048de <__muldf3>
80001fc0:	86ae                	mv	a3,a1
80001fc2:	862a                	mv	a2,a0
80001fc4:	85e2                	mv	a1,s8
80001fc6:	8566                	mv	a0,s9
80001fc8:	559020ef          	jal	ra,80004d20 <__subdf3>
80001fcc:	03090693          	addi	a3,s2,48
80001fd0:	fedb0fa3          	sb	a3,-1(s6)
80001fd4:	89da                	mv	s3,s6
80001fd6:	096d1363          	bne	s10,s6,8000205c <_dtoa_r+0x7c8>
80001fda:	862a                	mv	a2,a0
80001fdc:	86ae                	mv	a3,a1
80001fde:	401010ef          	jal	ra,80003bde <__adddf3>
80001fe2:	8652                	mv	a2,s4
80001fe4:	86d6                	mv	a3,s5
80001fe6:	8baa                	mv	s7,a0
80001fe8:	8b2e                	mv	s6,a1
80001fea:	7a8020ef          	jal	ra,80004792 <__gedf2>
80001fee:	02a04d63          	bgtz	a0,80002028 <_dtoa_r+0x794>
80001ff2:	8652                	mv	a2,s4
80001ff4:	86d6                	mv	a3,s5
80001ff6:	855e                	mv	a0,s7
80001ff8:	85da                	mv	a1,s6
80001ffa:	72e020ef          	jal	ra,80004728 <__eqdf2>
80001ffe:	e509                	bnez	a0,80002008 <_dtoa_r+0x774>
80002000:	00197913          	andi	s2,s2,1
80002004:	02091263          	bnez	s2,80002028 <_dtoa_r+0x794>
80002008:	8526                	mv	a0,s1
8000200a:	85a2                	mv	a1,s0
8000200c:	407000ef          	jal	ra,80002c12 <_Bfree>
80002010:	57e2                	lw	a5,56(sp)
80002012:	00098023          	sb	zero,0(s3)
80002016:	001d8513          	addi	a0,s11,1
8000201a:	c388                	sw	a0,0(a5)
8000201c:	5792                	lw	a5,36(sp)
8000201e:	94078ee3          	beqz	a5,8000197a <_dtoa_r+0xe6>
80002022:	0137a023          	sw	s3,0(a5)
80002026:	ba91                	j	8000197a <_dtoa_r+0xe6>
80002028:	cc6e                	sw	s11,24(sp)
8000202a:	87ce                	mv	a5,s3
8000202c:	03900713          	li	a4,57
80002030:	89be                	mv	s3,a5
80002032:	fff7c683          	lbu	a3,-1(a5)
80002036:	17fd                	addi	a5,a5,-1
80002038:	00e69c63          	bne	a3,a4,80002050 <_dtoa_r+0x7bc>
8000203c:	46b2                	lw	a3,12(sp)
8000203e:	fef699e3          	bne	a3,a5,80002030 <_dtoa_r+0x79c>
80002042:	4762                	lw	a4,24(sp)
80002044:	0705                	addi	a4,a4,1
80002046:	cc3a                	sw	a4,24(sp)
80002048:	03000713          	li	a4,48
8000204c:	00e68023          	sb	a4,0(a3)
80002050:	0007c703          	lbu	a4,0(a5)
80002054:	0705                	addi	a4,a4,1
80002056:	00e78023          	sb	a4,0(a5)
8000205a:	bf29                	j	80001f74 <_dtoa_r+0x6e0>
8000205c:	000ba603          	lw	a2,0(s7)
80002060:	004ba683          	lw	a3,4(s7)
80002064:	0b05                	addi	s6,s6,1
80002066:	079020ef          	jal	ra,800048de <__muldf3>
8000206a:	4601                	li	a2,0
8000206c:	4681                	li	a3,0
8000206e:	8caa                	mv	s9,a0
80002070:	8c2e                	mv	s8,a1
80002072:	6b6020ef          	jal	ra,80004728 <__eqdf2>
80002076:	f515                	bnez	a0,80001fa2 <_dtoa_r+0x70e>
80002078:	bf41                	j	80002008 <_dtoa_r+0x774>
8000207a:	4772                	lw	a4,28(sp)
8000207c:	10070063          	beqz	a4,8000217c <_dtoa_r+0x8e8>
80002080:	46d2                	lw	a3,20(sp)
80002082:	4705                	li	a4,1
80002084:	0cd74563          	blt	a4,a3,8000214e <_dtoa_r+0x8ba>
80002088:	4706                	lw	a4,64(sp)
8000208a:	43378793          	addi	a5,a5,1075
8000208e:	e709                	bnez	a4,80002098 <_dtoa_r+0x804>
80002090:	4766                	lw	a4,88(sp)
80002092:	03600793          	li	a5,54
80002096:	8f99                	sub	a5,a5,a4
80002098:	8a66                	mv	s4,s9
8000209a:	8ade                	mv	s5,s7
8000209c:	4585                	li	a1,1
8000209e:	8526                	mv	a0,s1
800020a0:	9bbe                	add	s7,s7,a5
800020a2:	9c3e                	add	s8,s8,a5
800020a4:	539000ef          	jal	ra,80002ddc <__i2b>
800020a8:	892a                	mv	s2,a0
800020aa:	01505e63          	blez	s5,800020c6 <_dtoa_r+0x832>
800020ae:	01805c63          	blez	s8,800020c6 <_dtoa_r+0x832>
800020b2:	87d6                	mv	a5,s5
800020b4:	015c5363          	bge	s8,s5,800020ba <_dtoa_r+0x826>
800020b8:	87e2                	mv	a5,s8
800020ba:	40fb8bb3          	sub	s7,s7,a5
800020be:	40fa8ab3          	sub	s5,s5,a5
800020c2:	40fc0c33          	sub	s8,s8,a5
800020c6:	040c8163          	beqz	s9,80002108 <_dtoa_r+0x874>
800020ca:	47f2                	lw	a5,28(sp)
800020cc:	cfc5                	beqz	a5,80002184 <_dtoa_r+0x8f0>
800020ce:	03405463          	blez	s4,800020f6 <_dtoa_r+0x862>
800020d2:	85ca                	mv	a1,s2
800020d4:	8652                	mv	a2,s4
800020d6:	8526                	mv	a0,s1
800020d8:	6b9000ef          	jal	ra,80002f90 <__pow5mult>
800020dc:	8622                	mv	a2,s0
800020de:	85aa                	mv	a1,a0
800020e0:	892a                	mv	s2,a0
800020e2:	8526                	mv	a0,s1
800020e4:	52f000ef          	jal	ra,80002e12 <__multiply>
800020e8:	cc2a                	sw	a0,24(sp)
800020ea:	85a2                	mv	a1,s0
800020ec:	8526                	mv	a0,s1
800020ee:	325000ef          	jal	ra,80002c12 <_Bfree>
800020f2:	47e2                	lw	a5,24(sp)
800020f4:	843e                	mv	s0,a5
800020f6:	414c8633          	sub	a2,s9,s4
800020fa:	014c8763          	beq	s9,s4,80002108 <_dtoa_r+0x874>
800020fe:	85a2                	mv	a1,s0
80002100:	8526                	mv	a0,s1
80002102:	68f000ef          	jal	ra,80002f90 <__pow5mult>
80002106:	842a                	mv	s0,a0
80002108:	4585                	li	a1,1
8000210a:	8526                	mv	a0,s1
8000210c:	4d1000ef          	jal	ra,80002ddc <__i2b>
80002110:	57a2                	lw	a5,40(sp)
80002112:	8a2a                	mv	s4,a0
80002114:	06f05a63          	blez	a5,80002188 <_dtoa_r+0x8f4>
80002118:	863e                	mv	a2,a5
8000211a:	85aa                	mv	a1,a0
8000211c:	8526                	mv	a0,s1
8000211e:	673000ef          	jal	ra,80002f90 <__pow5mult>
80002122:	4752                	lw	a4,20(sp)
80002124:	4785                	li	a5,1
80002126:	8a2a                	mv	s4,a0
80002128:	4c81                	li	s9,0
8000212a:	06e7c763          	blt	a5,a4,80002198 <_dtoa_r+0x904>
8000212e:	4c81                	li	s9,0
80002130:	06099163          	bnez	s3,80002192 <_dtoa_r+0x8fe>
80002134:	00cb1793          	slli	a5,s6,0xc
80002138:	efa9                	bnez	a5,80002192 <_dtoa_r+0x8fe>
8000213a:	7ff005b7          	lui	a1,0x7ff00
8000213e:	00bb7b33          	and	s6,s6,a1
80002142:	040b0863          	beqz	s6,80002192 <_dtoa_r+0x8fe>
80002146:	0b85                	addi	s7,s7,1
80002148:	0c05                	addi	s8,s8,1
8000214a:	4c85                	li	s9,1
8000214c:	a099                	j	80002192 <_dtoa_r+0x8fe>
8000214e:	fffd0a13          	addi	s4,s10,-1
80002152:	014cca63          	blt	s9,s4,80002166 <_dtoa_r+0x8d2>
80002156:	414c8a33          	sub	s4,s9,s4
8000215a:	000d5e63          	bgez	s10,80002176 <_dtoa_r+0x8e2>
8000215e:	41ab8ab3          	sub	s5,s7,s10
80002162:	4781                	li	a5,0
80002164:	bf25                	j	8000209c <_dtoa_r+0x808>
80002166:	57a2                	lw	a5,40(sp)
80002168:	419a0cb3          	sub	s9,s4,s9
8000216c:	97e6                	add	a5,a5,s9
8000216e:	d43e                	sw	a5,40(sp)
80002170:	8cd2                	mv	s9,s4
80002172:	4a01                	li	s4,0
80002174:	b7dd                	j	8000215a <_dtoa_r+0x8c6>
80002176:	8ade                	mv	s5,s7
80002178:	87ea                	mv	a5,s10
8000217a:	b70d                	j	8000209c <_dtoa_r+0x808>
8000217c:	8a66                	mv	s4,s9
8000217e:	8ade                	mv	s5,s7
80002180:	4901                	li	s2,0
80002182:	b725                	j	800020aa <_dtoa_r+0x816>
80002184:	8666                	mv	a2,s9
80002186:	bfa5                	j	800020fe <_dtoa_r+0x86a>
80002188:	4752                	lw	a4,20(sp)
8000218a:	4785                	li	a5,1
8000218c:	4c81                	li	s9,0
8000218e:	fae7d0e3          	bge	a5,a4,8000212e <_dtoa_r+0x89a>
80002192:	57a2                	lw	a5,40(sp)
80002194:	4505                	li	a0,1
80002196:	cf89                	beqz	a5,800021b0 <_dtoa_r+0x91c>
80002198:	010a2783          	lw	a5,16(s4)
8000219c:	078d                	addi	a5,a5,3
8000219e:	078a                	slli	a5,a5,0x2
800021a0:	97d2                	add	a5,a5,s4
800021a2:	43c8                	lw	a0,4(a5)
800021a4:	389000ef          	jal	ra,80002d2c <__hi0bits>
800021a8:	02000793          	li	a5,32
800021ac:	40a78533          	sub	a0,a5,a0
800021b0:	9562                	add	a0,a0,s8
800021b2:	897d                	andi	a0,a0,31
800021b4:	c151                	beqz	a0,80002238 <_dtoa_r+0x9a4>
800021b6:	02000793          	li	a5,32
800021ba:	8f89                	sub	a5,a5,a0
800021bc:	4711                	li	a4,4
800021be:	06f75a63          	bge	a4,a5,80002232 <_dtoa_r+0x99e>
800021c2:	47f1                	li	a5,28
800021c4:	40a78533          	sub	a0,a5,a0
800021c8:	9baa                	add	s7,s7,a0
800021ca:	9aaa                	add	s5,s5,a0
800021cc:	9c2a                	add	s8,s8,a0
800021ce:	01705863          	blez	s7,800021de <_dtoa_r+0x94a>
800021d2:	85a2                	mv	a1,s0
800021d4:	865e                	mv	a2,s7
800021d6:	8526                	mv	a0,s1
800021d8:	689000ef          	jal	ra,80003060 <__lshift>
800021dc:	842a                	mv	s0,a0
800021de:	01805863          	blez	s8,800021ee <_dtoa_r+0x95a>
800021e2:	85d2                	mv	a1,s4
800021e4:	8662                	mv	a2,s8
800021e6:	8526                	mv	a0,s1
800021e8:	679000ef          	jal	ra,80003060 <__lshift>
800021ec:	8a2a                	mv	s4,a0
800021ee:	57d2                	lw	a5,52(sp)
800021f0:	c7b1                	beqz	a5,8000223c <_dtoa_r+0x9a8>
800021f2:	85d2                	mv	a1,s4
800021f4:	8522                	mv	a0,s0
800021f6:	76f000ef          	jal	ra,80003164 <__mcmp>
800021fa:	04055163          	bgez	a0,8000223c <_dtoa_r+0x9a8>
800021fe:	85a2                	mv	a1,s0
80002200:	4681                	li	a3,0
80002202:	4629                	li	a2,10
80002204:	8526                	mv	a0,s1
80002206:	26d000ef          	jal	ra,80002c72 <__multadd>
8000220a:	47f2                	lw	a5,28(sp)
8000220c:	1dfd                	addi	s11,s11,-1
8000220e:	842a                	mv	s0,a0
80002210:	28078d63          	beqz	a5,800024aa <_dtoa_r+0xc16>
80002214:	85ca                	mv	a1,s2
80002216:	4681                	li	a3,0
80002218:	4629                	li	a2,10
8000221a:	8526                	mv	a0,s1
8000221c:	257000ef          	jal	ra,80002c72 <__multadd>
80002220:	47c2                	lw	a5,16(sp)
80002222:	892a                	mv	s2,a0
80002224:	08f04563          	bgtz	a5,800022ae <_dtoa_r+0xa1a>
80002228:	4752                	lw	a4,20(sp)
8000222a:	4789                	li	a5,2
8000222c:	00e7cf63          	blt	a5,a4,8000224a <_dtoa_r+0x9b6>
80002230:	a8bd                	j	800022ae <_dtoa_r+0xa1a>
80002232:	f8e78ee3          	beq	a5,a4,800021ce <_dtoa_r+0x93a>
80002236:	853e                	mv	a0,a5
80002238:	0571                	addi	a0,a0,28
8000223a:	b779                	j	800021c8 <_dtoa_r+0x934>
8000223c:	07a04563          	bgtz	s10,800022a6 <_dtoa_r+0xa12>
80002240:	4752                	lw	a4,20(sp)
80002242:	4789                	li	a5,2
80002244:	06e7d163          	bge	a5,a4,800022a6 <_dtoa_r+0xa12>
80002248:	c86a                	sw	s10,16(sp)
8000224a:	47c2                	lw	a5,16(sp)
8000224c:	ef91                	bnez	a5,80002268 <_dtoa_r+0x9d4>
8000224e:	85d2                	mv	a1,s4
80002250:	4681                	li	a3,0
80002252:	4615                	li	a2,5
80002254:	8526                	mv	a0,s1
80002256:	21d000ef          	jal	ra,80002c72 <__multadd>
8000225a:	8a2a                	mv	s4,a0
8000225c:	85aa                	mv	a1,a0
8000225e:	8522                	mv	a0,s0
80002260:	705000ef          	jal	ra,80003164 <__mcmp>
80002264:	aea04ce3          	bgtz	a0,80001d5c <_dtoa_r+0x4c8>
80002268:	5782                	lw	a5,32(sp)
8000226a:	49b2                	lw	s3,12(sp)
8000226c:	fff7cd93          	not	s11,a5
80002270:	4b01                	li	s6,0
80002272:	85d2                	mv	a1,s4
80002274:	8526                	mv	a0,s1
80002276:	19d000ef          	jal	ra,80002c12 <_Bfree>
8000227a:	d80907e3          	beqz	s2,80002008 <_dtoa_r+0x774>
8000227e:	000b0863          	beqz	s6,8000228e <_dtoa_r+0x9fa>
80002282:	012b0663          	beq	s6,s2,8000228e <_dtoa_r+0x9fa>
80002286:	85da                	mv	a1,s6
80002288:	8526                	mv	a0,s1
8000228a:	189000ef          	jal	ra,80002c12 <_Bfree>
8000228e:	85ca                	mv	a1,s2
80002290:	8526                	mv	a0,s1
80002292:	181000ef          	jal	ra,80002c12 <_Bfree>
80002296:	bb8d                	j	80002008 <_dtoa_r+0x774>
80002298:	4a01                	li	s4,0
8000229a:	4901                	li	s2,0
8000229c:	b7f1                	j	80002268 <_dtoa_r+0x9d4>
8000229e:	4de2                	lw	s11,24(sp)
800022a0:	4a01                	li	s4,0
800022a2:	4901                	li	s2,0
800022a4:	bc65                	j	80001d5c <_dtoa_r+0x4c8>
800022a6:	47f2                	lw	a5,28(sp)
800022a8:	c86a                	sw	s10,16(sp)
800022aa:	20078763          	beqz	a5,800024b8 <_dtoa_r+0xc24>
800022ae:	01505863          	blez	s5,800022be <_dtoa_r+0xa2a>
800022b2:	85ca                	mv	a1,s2
800022b4:	8656                	mv	a2,s5
800022b6:	8526                	mv	a0,s1
800022b8:	5a9000ef          	jal	ra,80003060 <__lshift>
800022bc:	892a                	mv	s2,a0
800022be:	854a                	mv	a0,s2
800022c0:	040c8063          	beqz	s9,80002300 <_dtoa_r+0xa6c>
800022c4:	00492583          	lw	a1,4(s2)
800022c8:	8526                	mv	a0,s1
800022ca:	09d000ef          	jal	ra,80002b66 <_Balloc>
800022ce:	8aaa                	mv	s5,a0
800022d0:	e911                	bnez	a0,800022e4 <_dtoa_r+0xa50>
800022d2:	00003697          	auipc	a3,0x3
800022d6:	71268693          	addi	a3,a3,1810 # 800059e4 <__clz_tab+0x210>
800022da:	4601                	li	a2,0
800022dc:	2ea00593          	li	a1,746
800022e0:	e00ff06f          	j	800018e0 <_dtoa_r+0x4c>
800022e4:	01092603          	lw	a2,16(s2)
800022e8:	00c90593          	addi	a1,s2,12
800022ec:	0531                	addi	a0,a0,12
800022ee:	0609                	addi	a2,a2,2
800022f0:	060a                	slli	a2,a2,0x2
800022f2:	6f0000ef          	jal	ra,800029e2 <memcpy>
800022f6:	4605                	li	a2,1
800022f8:	85d6                	mv	a1,s5
800022fa:	8526                	mv	a0,s1
800022fc:	565000ef          	jal	ra,80003060 <__lshift>
80002300:	47b2                	lw	a5,12(sp)
80002302:	4742                	lw	a4,16(sp)
80002304:	8b4a                	mv	s6,s2
80002306:	00178c13          	addi	s8,a5,1
8000230a:	97ba                	add	a5,a5,a4
8000230c:	cc3e                	sw	a5,24(sp)
8000230e:	0019f793          	andi	a5,s3,1
80002312:	892a                	mv	s2,a0
80002314:	c83e                	sw	a5,16(sp)
80002316:	85d2                	mv	a1,s4
80002318:	8522                	mv	a0,s0
8000231a:	c4eff0ef          	jal	ra,80001768 <quorem>
8000231e:	85da                	mv	a1,s6
80002320:	8caa                	mv	s9,a0
80002322:	03050a93          	addi	s5,a0,48
80002326:	8522                	mv	a0,s0
80002328:	63d000ef          	jal	ra,80003164 <__mcmp>
8000232c:	85d2                	mv	a1,s4
8000232e:	8baa                	mv	s7,a0
80002330:	864a                	mv	a2,s2
80002332:	8526                	mv	a0,s1
80002334:	667000ef          	jal	ra,8000319a <__mdiff>
80002338:	4554                	lw	a3,12(a0)
8000233a:	fffc0d13          	addi	s10,s8,-1
8000233e:	85aa                	mv	a1,a0
80002340:	4705                	li	a4,1
80002342:	e699                	bnez	a3,80002350 <_dtoa_r+0xabc>
80002344:	ce2a                	sw	a0,28(sp)
80002346:	8522                	mv	a0,s0
80002348:	61d000ef          	jal	ra,80003164 <__mcmp>
8000234c:	45f2                	lw	a1,28(sp)
8000234e:	872a                	mv	a4,a0
80002350:	8526                	mv	a0,s1
80002352:	ce3a                	sw	a4,28(sp)
80002354:	0bf000ef          	jal	ra,80002c12 <_Bfree>
80002358:	47d2                	lw	a5,20(sp)
8000235a:	4772                	lw	a4,28(sp)
8000235c:	89e2                	mv	s3,s8
8000235e:	00e7e6b3          	or	a3,a5,a4
80002362:	47c2                	lw	a5,16(sp)
80002364:	8edd                	or	a3,a3,a5
80002366:	ee81                	bnez	a3,8000237e <_dtoa_r+0xaea>
80002368:	03900713          	li	a4,57
8000236c:	04ea8863          	beq	s5,a4,800023bc <_dtoa_r+0xb28>
80002370:	01705463          	blez	s7,80002378 <_dtoa_r+0xae4>
80002374:	031c8a93          	addi	s5,s9,49
80002378:	015d0023          	sb	s5,0(s10)
8000237c:	bddd                	j	80002272 <_dtoa_r+0x9de>
8000237e:	000bca63          	bltz	s7,80002392 <_dtoa_r+0xafe>
80002382:	47d2                	lw	a5,20(sp)
80002384:	0177ebb3          	or	s7,a5,s7
80002388:	47c2                	lw	a5,16(sp)
8000238a:	00fbebb3          	or	s7,s7,a5
8000238e:	040b9863          	bnez	s7,800023de <_dtoa_r+0xb4a>
80002392:	fee053e3          	blez	a4,80002378 <_dtoa_r+0xae4>
80002396:	85a2                	mv	a1,s0
80002398:	4605                	li	a2,1
8000239a:	8526                	mv	a0,s1
8000239c:	4c5000ef          	jal	ra,80003060 <__lshift>
800023a0:	85d2                	mv	a1,s4
800023a2:	842a                	mv	s0,a0
800023a4:	5c1000ef          	jal	ra,80003164 <__mcmp>
800023a8:	00a04663          	bgtz	a0,800023b4 <_dtoa_r+0xb20>
800023ac:	f571                	bnez	a0,80002378 <_dtoa_r+0xae4>
800023ae:	001af713          	andi	a4,s5,1
800023b2:	d379                	beqz	a4,80002378 <_dtoa_r+0xae4>
800023b4:	03900713          	li	a4,57
800023b8:	faea9ee3          	bne	s5,a4,80002374 <_dtoa_r+0xae0>
800023bc:	03900793          	li	a5,57
800023c0:	00fd0023          	sb	a5,0(s10)
800023c4:	87ce                	mv	a5,s3
800023c6:	03900693          	li	a3,57
800023ca:	89be                	mv	s3,a5
800023cc:	fff9c703          	lbu	a4,-1(s3)
800023d0:	17fd                	addi	a5,a5,-1
800023d2:	0ad70563          	beq	a4,a3,8000247c <_dtoa_r+0xbe8>
800023d6:	0705                	addi	a4,a4,1
800023d8:	00e78023          	sb	a4,0(a5)
800023dc:	bd59                	j	80002272 <_dtoa_r+0x9de>
800023de:	00e05b63          	blez	a4,800023f4 <_dtoa_r+0xb60>
800023e2:	03900713          	li	a4,57
800023e6:	fcea8be3          	beq	s5,a4,800023bc <_dtoa_r+0xb28>
800023ea:	001a8793          	addi	a5,s5,1
800023ee:	00fd0023          	sb	a5,0(s10)
800023f2:	b541                	j	80002272 <_dtoa_r+0x9de>
800023f4:	47e2                	lw	a5,24(sp)
800023f6:	ff5c0fa3          	sb	s5,-1(s8)
800023fa:	05878863          	beq	a5,s8,8000244a <_dtoa_r+0xbb6>
800023fe:	85a2                	mv	a1,s0
80002400:	4681                	li	a3,0
80002402:	4629                	li	a2,10
80002404:	8526                	mv	a0,s1
80002406:	06d000ef          	jal	ra,80002c72 <__multadd>
8000240a:	842a                	mv	s0,a0
8000240c:	4681                	li	a3,0
8000240e:	4629                	li	a2,10
80002410:	85da                	mv	a1,s6
80002412:	8526                	mv	a0,s1
80002414:	012b1863          	bne	s6,s2,80002424 <_dtoa_r+0xb90>
80002418:	05b000ef          	jal	ra,80002c72 <__multadd>
8000241c:	8b2a                	mv	s6,a0
8000241e:	892a                	mv	s2,a0
80002420:	0c05                	addi	s8,s8,1
80002422:	bdd5                	j	80002316 <_dtoa_r+0xa82>
80002424:	04f000ef          	jal	ra,80002c72 <__multadd>
80002428:	85ca                	mv	a1,s2
8000242a:	8b2a                	mv	s6,a0
8000242c:	4681                	li	a3,0
8000242e:	4629                	li	a2,10
80002430:	8526                	mv	a0,s1
80002432:	041000ef          	jal	ra,80002c72 <__multadd>
80002436:	892a                	mv	s2,a0
80002438:	b7e5                	j	80002420 <_dtoa_r+0xb8c>
8000243a:	47c2                	lw	a5,16(sp)
8000243c:	4985                	li	s3,1
8000243e:	00f05363          	blez	a5,80002444 <_dtoa_r+0xbb0>
80002442:	89be                	mv	s3,a5
80002444:	47b2                	lw	a5,12(sp)
80002446:	4b01                	li	s6,0
80002448:	99be                	add	s3,s3,a5
8000244a:	85a2                	mv	a1,s0
8000244c:	4605                	li	a2,1
8000244e:	8526                	mv	a0,s1
80002450:	411000ef          	jal	ra,80003060 <__lshift>
80002454:	85d2                	mv	a1,s4
80002456:	842a                	mv	s0,a0
80002458:	50d000ef          	jal	ra,80003164 <__mcmp>
8000245c:	f6a044e3          	bgtz	a0,800023c4 <_dtoa_r+0xb30>
80002460:	e501                	bnez	a0,80002468 <_dtoa_r+0xbd4>
80002462:	001af793          	andi	a5,s5,1
80002466:	ffb9                	bnez	a5,800023c4 <_dtoa_r+0xb30>
80002468:	87ce                	mv	a5,s3
8000246a:	03000713          	li	a4,48
8000246e:	89be                	mv	s3,a5
80002470:	fff7c683          	lbu	a3,-1(a5)
80002474:	17fd                	addi	a5,a5,-1
80002476:	fee68ce3          	beq	a3,a4,8000246e <_dtoa_r+0xbda>
8000247a:	bbe5                	j	80002272 <_dtoa_r+0x9de>
8000247c:	4732                	lw	a4,12(sp)
8000247e:	f4f716e3          	bne	a4,a5,800023ca <_dtoa_r+0xb36>
80002482:	03100793          	li	a5,49
80002486:	0d85                	addi	s11,s11,1
80002488:	00f70023          	sb	a5,0(a4)
8000248c:	b3dd                	j	80002272 <_dtoa_r+0x9de>
8000248e:	5712                	lw	a4,36(sp)
80002490:	00003797          	auipc	a5,0x3
80002494:	4d878793          	addi	a5,a5,1240 # 80005968 <__clz_tab+0x194>
80002498:	c63e                	sw	a5,12(sp)
8000249a:	00003797          	auipc	a5,0x3
8000249e:	4d678793          	addi	a5,a5,1238 # 80005970 <__clz_tab+0x19c>
800024a2:	cc071a63          	bnez	a4,80001976 <_dtoa_r+0xe2>
800024a6:	cd4ff06f          	j	8000197a <_dtoa_r+0xe6>
800024aa:	47c2                	lw	a5,16(sp)
800024ac:	00f04663          	bgtz	a5,800024b8 <_dtoa_r+0xc24>
800024b0:	4752                	lw	a4,20(sp)
800024b2:	4789                	li	a5,2
800024b4:	d8e7cbe3          	blt	a5,a4,8000224a <_dtoa_r+0x9b6>
800024b8:	4981                	li	s3,0
800024ba:	85d2                	mv	a1,s4
800024bc:	8522                	mv	a0,s0
800024be:	aaaff0ef          	jal	ra,80001768 <quorem>
800024c2:	47b2                	lw	a5,12(sp)
800024c4:	03050a93          	addi	s5,a0,48
800024c8:	01378733          	add	a4,a5,s3
800024cc:	47c2                	lw	a5,16(sp)
800024ce:	01570023          	sb	s5,0(a4)
800024d2:	0985                	addi	s3,s3,1
800024d4:	f6f9d3e3          	bge	s3,a5,8000243a <_dtoa_r+0xba6>
800024d8:	85a2                	mv	a1,s0
800024da:	4681                	li	a3,0
800024dc:	4629                	li	a2,10
800024de:	8526                	mv	a0,s1
800024e0:	792000ef          	jal	ra,80002c72 <__multadd>
800024e4:	842a                	mv	s0,a0
800024e6:	bfd1                	j	800024ba <_dtoa_r+0xc26>

800024e8 <__sflush_r>:
__sflush_r():
800024e8:	00c5d783          	lhu	a5,12(a1) # 7ff0000c <__stack_size+0x7feff80c>
800024ec:	1101                	addi	sp,sp,-32
800024ee:	cc22                	sw	s0,24(sp)
800024f0:	ca26                	sw	s1,20(sp)
800024f2:	ce06                	sw	ra,28(sp)
800024f4:	c84a                	sw	s2,16(sp)
800024f6:	c64e                	sw	s3,12(sp)
800024f8:	0087f713          	andi	a4,a5,8
800024fc:	84aa                	mv	s1,a0
800024fe:	842e                	mv	s0,a1
80002500:	e37d                	bnez	a4,800025e6 <__sflush_r+0xfe>
80002502:	41d8                	lw	a4,4(a1)
80002504:	00e04763          	bgtz	a4,80002512 <__sflush_r+0x2a>
80002508:	41b8                	lw	a4,64(a1)
8000250a:	00e04463          	bgtz	a4,80002512 <__sflush_r+0x2a>
8000250e:	4501                	li	a0,0
80002510:	a87d                	j	800025ce <__sflush_r+0xe6>
80002512:	5458                	lw	a4,44(s0)
80002514:	df6d                	beqz	a4,8000250e <__sflush_r+0x26>
80002516:	6685                	lui	a3,0x1
80002518:	0004a903          	lw	s2,0(s1)
8000251c:	8ff5                	and	a5,a5,a3
8000251e:	0004a023          	sw	zero,0(s1)
80002522:	cfad                	beqz	a5,8000259c <__sflush_r+0xb4>
80002524:	4868                	lw	a0,84(s0)
80002526:	00c45783          	lhu	a5,12(s0)
8000252a:	8b91                	andi	a5,a5,4
8000252c:	c799                	beqz	a5,8000253a <__sflush_r+0x52>
8000252e:	405c                	lw	a5,4(s0)
80002530:	8d1d                	sub	a0,a0,a5
80002532:	585c                	lw	a5,52(s0)
80002534:	c399                	beqz	a5,8000253a <__sflush_r+0x52>
80002536:	403c                	lw	a5,64(s0)
80002538:	8d1d                	sub	a0,a0,a5
8000253a:	545c                	lw	a5,44(s0)
8000253c:	500c                	lw	a1,32(s0)
8000253e:	862a                	mv	a2,a0
80002540:	4681                	li	a3,0
80002542:	8526                	mv	a0,s1
80002544:	9782                	jalr	a5
80002546:	57fd                	li	a5,-1
80002548:	00c45703          	lhu	a4,12(s0)
8000254c:	00f51d63          	bne	a0,a5,80002566 <__sflush_r+0x7e>
80002550:	4094                	lw	a3,0(s1)
80002552:	47f5                	li	a5,29
80002554:	08d7e463          	bltu	a5,a3,800025dc <__sflush_r+0xf4>
80002558:	204007b7          	lui	a5,0x20400
8000255c:	0785                	addi	a5,a5,1
8000255e:	00d7d7b3          	srl	a5,a5,a3
80002562:	8b85                	andi	a5,a5,1
80002564:	cfa5                	beqz	a5,800025dc <__sflush_r+0xf4>
80002566:	481c                	lw	a5,16(s0)
80002568:	00042223          	sw	zero,4(s0)
8000256c:	c01c                	sw	a5,0(s0)
8000256e:	6785                	lui	a5,0x1
80002570:	8f7d                	and	a4,a4,a5
80002572:	c719                	beqz	a4,80002580 <__sflush_r+0x98>
80002574:	57fd                	li	a5,-1
80002576:	00f51463          	bne	a0,a5,8000257e <__sflush_r+0x96>
8000257a:	409c                	lw	a5,0(s1)
8000257c:	e391                	bnez	a5,80002580 <__sflush_r+0x98>
8000257e:	c868                	sw	a0,84(s0)
80002580:	584c                	lw	a1,52(s0)
80002582:	0124a023          	sw	s2,0(s1)
80002586:	d5c1                	beqz	a1,8000250e <__sflush_r+0x26>
80002588:	04440793          	addi	a5,s0,68
8000258c:	00f58563          	beq	a1,a5,80002596 <__sflush_r+0xae>
80002590:	8526                	mv	a0,s1
80002592:	689000ef          	jal	ra,8000341a <_free_r>
80002596:	02042a23          	sw	zero,52(s0)
8000259a:	bf95                	j	8000250e <__sflush_r+0x26>
8000259c:	500c                	lw	a1,32(s0)
8000259e:	4685                	li	a3,1
800025a0:	4601                	li	a2,0
800025a2:	8526                	mv	a0,s1
800025a4:	9702                	jalr	a4
800025a6:	57fd                	li	a5,-1
800025a8:	f6f51fe3          	bne	a0,a5,80002526 <__sflush_r+0x3e>
800025ac:	409c                	lw	a5,0(s1)
800025ae:	dfa5                	beqz	a5,80002526 <__sflush_r+0x3e>
800025b0:	4775                	li	a4,29
800025b2:	00e78563          	beq	a5,a4,800025bc <__sflush_r+0xd4>
800025b6:	4759                	li	a4,22
800025b8:	00e79563          	bne	a5,a4,800025c2 <__sflush_r+0xda>
800025bc:	0124a023          	sw	s2,0(s1)
800025c0:	b7b9                	j	8000250e <__sflush_r+0x26>
800025c2:	00c45783          	lhu	a5,12(s0)
800025c6:	0407e793          	ori	a5,a5,64
800025ca:	00f41623          	sh	a5,12(s0)
800025ce:	40f2                	lw	ra,28(sp)
800025d0:	4462                	lw	s0,24(sp)
800025d2:	44d2                	lw	s1,20(sp)
800025d4:	4942                	lw	s2,16(sp)
800025d6:	49b2                	lw	s3,12(sp)
800025d8:	6105                	addi	sp,sp,32
800025da:	8082                	ret
800025dc:	04076713          	ori	a4,a4,64
800025e0:	00e41623          	sh	a4,12(s0)
800025e4:	b7ed                	j	800025ce <__sflush_r+0xe6>
800025e6:	0105a983          	lw	s3,16(a1)
800025ea:	f20982e3          	beqz	s3,8000250e <__sflush_r+0x26>
800025ee:	0005a903          	lw	s2,0(a1)
800025f2:	8b8d                	andi	a5,a5,3
800025f4:	0135a023          	sw	s3,0(a1)
800025f8:	41390933          	sub	s2,s2,s3
800025fc:	4701                	li	a4,0
800025fe:	e391                	bnez	a5,80002602 <__sflush_r+0x11a>
80002600:	49d8                	lw	a4,20(a1)
80002602:	c418                	sw	a4,8(s0)
80002604:	f12055e3          	blez	s2,8000250e <__sflush_r+0x26>
80002608:	541c                	lw	a5,40(s0)
8000260a:	500c                	lw	a1,32(s0)
8000260c:	86ca                	mv	a3,s2
8000260e:	864e                	mv	a2,s3
80002610:	8526                	mv	a0,s1
80002612:	9782                	jalr	a5
80002614:	00a04a63          	bgtz	a0,80002628 <__sflush_r+0x140>
80002618:	00c45783          	lhu	a5,12(s0)
8000261c:	557d                	li	a0,-1
8000261e:	0407e793          	ori	a5,a5,64
80002622:	00f41623          	sh	a5,12(s0)
80002626:	b765                	j	800025ce <__sflush_r+0xe6>
80002628:	99aa                	add	s3,s3,a0
8000262a:	40a90933          	sub	s2,s2,a0
8000262e:	bfd9                	j	80002604 <__sflush_r+0x11c>

80002630 <_fflush_r>:
_fflush_r():
80002630:	499c                	lw	a5,16(a1)
80002632:	cfb9                	beqz	a5,80002690 <_fflush_r+0x60>
80002634:	1101                	addi	sp,sp,-32
80002636:	cc22                	sw	s0,24(sp)
80002638:	ce06                	sw	ra,28(sp)
8000263a:	842a                	mv	s0,a0
8000263c:	c511                	beqz	a0,80002648 <_fflush_r+0x18>
8000263e:	4d1c                	lw	a5,24(a0)
80002640:	e781                	bnez	a5,80002648 <_fflush_r+0x18>
80002642:	c62e                	sw	a1,12(sp)
80002644:	2221                	jal	8000274c <__sinit>
80002646:	45b2                	lw	a1,12(sp)
80002648:	00003797          	auipc	a5,0x3
8000264c:	3d078793          	addi	a5,a5,976 # 80005a18 <__sf_fake_stdin>
80002650:	00f59b63          	bne	a1,a5,80002666 <_fflush_r+0x36>
80002654:	404c                	lw	a1,4(s0)
80002656:	00c59783          	lh	a5,12(a1)
8000265a:	c795                	beqz	a5,80002686 <_fflush_r+0x56>
8000265c:	8522                	mv	a0,s0
8000265e:	4462                	lw	s0,24(sp)
80002660:	40f2                	lw	ra,28(sp)
80002662:	6105                	addi	sp,sp,32
80002664:	b551                	j	800024e8 <__sflush_r>
80002666:	00003797          	auipc	a5,0x3
8000266a:	3d278793          	addi	a5,a5,978 # 80005a38 <__sf_fake_stdout>
8000266e:	00f59463          	bne	a1,a5,80002676 <_fflush_r+0x46>
80002672:	440c                	lw	a1,8(s0)
80002674:	b7cd                	j	80002656 <_fflush_r+0x26>
80002676:	00003797          	auipc	a5,0x3
8000267a:	38278793          	addi	a5,a5,898 # 800059f8 <__sf_fake_stderr>
8000267e:	fcf59ce3          	bne	a1,a5,80002656 <_fflush_r+0x26>
80002682:	444c                	lw	a1,12(s0)
80002684:	bfc9                	j	80002656 <_fflush_r+0x26>
80002686:	40f2                	lw	ra,28(sp)
80002688:	4462                	lw	s0,24(sp)
8000268a:	4501                	li	a0,0
8000268c:	6105                	addi	sp,sp,32
8000268e:	8082                	ret
80002690:	4501                	li	a0,0
80002692:	8082                	ret

80002694 <std>:
std():
80002694:	1141                	addi	sp,sp,-16
80002696:	c422                	sw	s0,8(sp)
80002698:	c606                	sw	ra,12(sp)
8000269a:	842a                	mv	s0,a0
8000269c:	00b51623          	sh	a1,12(a0)
800026a0:	00c51723          	sh	a2,14(a0)
800026a4:	00052023          	sw	zero,0(a0)
800026a8:	00052223          	sw	zero,4(a0)
800026ac:	00052423          	sw	zero,8(a0)
800026b0:	06052223          	sw	zero,100(a0)
800026b4:	00052823          	sw	zero,16(a0)
800026b8:	00052a23          	sw	zero,20(a0)
800026bc:	00052c23          	sw	zero,24(a0)
800026c0:	4621                	li	a2,8
800026c2:	4581                	li	a1,0
800026c4:	05c50513          	addi	a0,a0,92
800026c8:	2edd                	jal	80002abe <memset>
800026ca:	00001797          	auipc	a5,0x1
800026ce:	1f078793          	addi	a5,a5,496 # 800038ba <__sread>
800026d2:	d05c                	sw	a5,36(s0)
800026d4:	00001797          	auipc	a5,0x1
800026d8:	21678793          	addi	a5,a5,534 # 800038ea <__swrite>
800026dc:	d41c                	sw	a5,40(s0)
800026de:	00001797          	auipc	a5,0x1
800026e2:	25a78793          	addi	a5,a5,602 # 80003938 <__sseek>
800026e6:	d45c                	sw	a5,44(s0)
800026e8:	00001797          	auipc	a5,0x1
800026ec:	28678793          	addi	a5,a5,646 # 8000396e <__sclose>
800026f0:	40b2                	lw	ra,12(sp)
800026f2:	d000                	sw	s0,32(s0)
800026f4:	d81c                	sw	a5,48(s0)
800026f6:	4422                	lw	s0,8(sp)
800026f8:	0141                	addi	sp,sp,16
800026fa:	8082                	ret

800026fc <_cleanup_r>:
_cleanup_r():
800026fc:	00000597          	auipc	a1,0x0
80002700:	f3458593          	addi	a1,a1,-204 # 80002630 <_fflush_r>
80002704:	a299                	j	8000284a <_fwalk_reent>

80002706 <__sfmoreglue>:
__sfmoreglue():
80002706:	1141                	addi	sp,sp,-16
80002708:	c226                	sw	s1,4(sp)
8000270a:	06800613          	li	a2,104
8000270e:	fff58493          	addi	s1,a1,-1
80002712:	02c484b3          	mul	s1,s1,a2
80002716:	c04a                	sw	s2,0(sp)
80002718:	892e                	mv	s2,a1
8000271a:	c422                	sw	s0,8(sp)
8000271c:	c606                	sw	ra,12(sp)
8000271e:	07448593          	addi	a1,s1,116
80002722:	597000ef          	jal	ra,800034b8 <_malloc_r>
80002726:	842a                	mv	s0,a0
80002728:	c919                	beqz	a0,8000273e <__sfmoreglue+0x38>
8000272a:	00052023          	sw	zero,0(a0)
8000272e:	01252223          	sw	s2,4(a0)
80002732:	0531                	addi	a0,a0,12
80002734:	c408                	sw	a0,8(s0)
80002736:	06848613          	addi	a2,s1,104
8000273a:	4581                	li	a1,0
8000273c:	2649                	jal	80002abe <memset>
8000273e:	40b2                	lw	ra,12(sp)
80002740:	8522                	mv	a0,s0
80002742:	4422                	lw	s0,8(sp)
80002744:	4492                	lw	s1,4(sp)
80002746:	4902                	lw	s2,0(sp)
80002748:	0141                	addi	sp,sp,16
8000274a:	8082                	ret

8000274c <__sinit>:
__sinit():
8000274c:	4d1c                	lw	a5,24(a0)
8000274e:	e3ad                	bnez	a5,800027b0 <__sinit+0x64>
80002750:	1141                	addi	sp,sp,-16
80002752:	c422                	sw	s0,8(sp)
80002754:	c606                	sw	ra,12(sp)
80002756:	00000797          	auipc	a5,0x0
8000275a:	fa678793          	addi	a5,a5,-90 # 800026fc <_cleanup_r>
8000275e:	d51c                	sw	a5,40(a0)
80002760:	04052423          	sw	zero,72(a0)
80002764:	04052623          	sw	zero,76(a0)
80002768:	04052823          	sw	zero,80(a0)
8000276c:	8601a783          	lw	a5,-1952(gp) # 90000230 <_global_impure_ptr>
80002770:	842a                	mv	s0,a0
80002772:	00f51463          	bne	a0,a5,8000277a <__sinit+0x2e>
80002776:	4785                	li	a5,1
80002778:	cd1c                	sw	a5,24(a0)
8000277a:	8522                	mv	a0,s0
8000277c:	281d                	jal	800027b2 <__sfp>
8000277e:	c048                	sw	a0,4(s0)
80002780:	8522                	mv	a0,s0
80002782:	2805                	jal	800027b2 <__sfp>
80002784:	c408                	sw	a0,8(s0)
80002786:	8522                	mv	a0,s0
80002788:	202d                	jal	800027b2 <__sfp>
8000278a:	c448                	sw	a0,12(s0)
8000278c:	4048                	lw	a0,4(s0)
8000278e:	4601                	li	a2,0
80002790:	4591                	li	a1,4
80002792:	3709                	jal	80002694 <std>
80002794:	4408                	lw	a0,8(s0)
80002796:	4605                	li	a2,1
80002798:	45a5                	li	a1,9
8000279a:	3ded                	jal	80002694 <std>
8000279c:	4448                	lw	a0,12(s0)
8000279e:	4609                	li	a2,2
800027a0:	45c9                	li	a1,18
800027a2:	3dcd                	jal	80002694 <std>
800027a4:	4785                	li	a5,1
800027a6:	40b2                	lw	ra,12(sp)
800027a8:	cc1c                	sw	a5,24(s0)
800027aa:	4422                	lw	s0,8(sp)
800027ac:	0141                	addi	sp,sp,16
800027ae:	8082                	ret
800027b0:	8082                	ret

800027b2 <__sfp>:
__sfp():
800027b2:	1141                	addi	sp,sp,-16
800027b4:	c226                	sw	s1,4(sp)
800027b6:	8601a483          	lw	s1,-1952(gp) # 90000230 <_global_impure_ptr>
800027ba:	4c9c                	lw	a5,24(s1)
800027bc:	c04a                	sw	s2,0(sp)
800027be:	c606                	sw	ra,12(sp)
800027c0:	c422                	sw	s0,8(sp)
800027c2:	892a                	mv	s2,a0
800027c4:	e399                	bnez	a5,800027ca <__sfp+0x18>
800027c6:	8526                	mv	a0,s1
800027c8:	3751                	jal	8000274c <__sinit>
800027ca:	04848493          	addi	s1,s1,72
800027ce:	4480                	lw	s0,8(s1)
800027d0:	40dc                	lw	a5,4(s1)
800027d2:	17fd                	addi	a5,a5,-1
800027d4:	0007d663          	bgez	a5,800027e0 <__sfp+0x2e>
800027d8:	409c                	lw	a5,0(s1)
800027da:	cfb1                	beqz	a5,80002836 <__sfp+0x84>
800027dc:	4084                	lw	s1,0(s1)
800027de:	bfc5                	j	800027ce <__sfp+0x1c>
800027e0:	00c41703          	lh	a4,12(s0)
800027e4:	e731                	bnez	a4,80002830 <__sfp+0x7e>
800027e6:	77c1                	lui	a5,0xffff0
800027e8:	0785                	addi	a5,a5,1
800027ea:	06042223          	sw	zero,100(s0)
800027ee:	00042023          	sw	zero,0(s0)
800027f2:	00042223          	sw	zero,4(s0)
800027f6:	00042423          	sw	zero,8(s0)
800027fa:	c45c                	sw	a5,12(s0)
800027fc:	00042823          	sw	zero,16(s0)
80002800:	00042a23          	sw	zero,20(s0)
80002804:	00042c23          	sw	zero,24(s0)
80002808:	4621                	li	a2,8
8000280a:	4581                	li	a1,0
8000280c:	05c40513          	addi	a0,s0,92
80002810:	247d                	jal	80002abe <memset>
80002812:	02042a23          	sw	zero,52(s0)
80002816:	02042c23          	sw	zero,56(s0)
8000281a:	04042423          	sw	zero,72(s0)
8000281e:	04042623          	sw	zero,76(s0)
80002822:	40b2                	lw	ra,12(sp)
80002824:	8522                	mv	a0,s0
80002826:	4422                	lw	s0,8(sp)
80002828:	4492                	lw	s1,4(sp)
8000282a:	4902                	lw	s2,0(sp)
8000282c:	0141                	addi	sp,sp,16
8000282e:	8082                	ret
80002830:	06840413          	addi	s0,s0,104
80002834:	bf79                	j	800027d2 <__sfp+0x20>
80002836:	4591                	li	a1,4
80002838:	854a                	mv	a0,s2
8000283a:	35f1                	jal	80002706 <__sfmoreglue>
8000283c:	c088                	sw	a0,0(s1)
8000283e:	842a                	mv	s0,a0
80002840:	fd51                	bnez	a0,800027dc <__sfp+0x2a>
80002842:	47b1                	li	a5,12
80002844:	00f92023          	sw	a5,0(s2)
80002848:	bfe9                	j	80002822 <__sfp+0x70>

8000284a <_fwalk_reent>:
_fwalk_reent():
8000284a:	7179                	addi	sp,sp,-48
8000284c:	d422                	sw	s0,40(sp)
8000284e:	d04a                	sw	s2,32(sp)
80002850:	ce4e                	sw	s3,28(sp)
80002852:	cc52                	sw	s4,24(sp)
80002854:	c85a                	sw	s6,16(sp)
80002856:	c65e                	sw	s7,12(sp)
80002858:	d606                	sw	ra,44(sp)
8000285a:	d226                	sw	s1,36(sp)
8000285c:	ca56                	sw	s5,20(sp)
8000285e:	892a                	mv	s2,a0
80002860:	8a2e                	mv	s4,a1
80002862:	04850413          	addi	s0,a0,72
80002866:	4981                	li	s3,0
80002868:	4b05                	li	s6,1
8000286a:	5bfd                	li	s7,-1
8000286c:	4404                	lw	s1,8(s0)
8000286e:	00442a83          	lw	s5,4(s0)
80002872:	1afd                	addi	s5,s5,-1
80002874:	020ad063          	bgez	s5,80002894 <_fwalk_reent+0x4a>
80002878:	4000                	lw	s0,0(s0)
8000287a:	f86d                	bnez	s0,8000286c <_fwalk_reent+0x22>
8000287c:	50b2                	lw	ra,44(sp)
8000287e:	5422                	lw	s0,40(sp)
80002880:	5492                	lw	s1,36(sp)
80002882:	5902                	lw	s2,32(sp)
80002884:	4a62                	lw	s4,24(sp)
80002886:	4ad2                	lw	s5,20(sp)
80002888:	4b42                	lw	s6,16(sp)
8000288a:	4bb2                	lw	s7,12(sp)
8000288c:	854e                	mv	a0,s3
8000288e:	49f2                	lw	s3,28(sp)
80002890:	6145                	addi	sp,sp,48
80002892:	8082                	ret
80002894:	00c4d783          	lhu	a5,12(s1)
80002898:	00fb7b63          	bgeu	s6,a5,800028ae <_fwalk_reent+0x64>
8000289c:	00e49783          	lh	a5,14(s1)
800028a0:	01778763          	beq	a5,s7,800028ae <_fwalk_reent+0x64>
800028a4:	85a6                	mv	a1,s1
800028a6:	854a                	mv	a0,s2
800028a8:	9a02                	jalr	s4
800028aa:	00a9e9b3          	or	s3,s3,a0
800028ae:	06848493          	addi	s1,s1,104
800028b2:	b7c1                	j	80002872 <_fwalk_reent+0x28>

800028b4 <_localeconv_r>:
_localeconv_r():
800028b4:	0fffe517          	auipc	a0,0xfffe
800028b8:	89c50513          	addi	a0,a0,-1892 # 90000150 <__global_locale+0xf0>
800028bc:	8082                	ret

800028be <__swhatbuf_r>:
__swhatbuf_r():
800028be:	7159                	addi	sp,sp,-112
800028c0:	d0ca                	sw	s2,96(sp)
800028c2:	892e                	mv	s2,a1
800028c4:	00e59583          	lh	a1,14(a1)
800028c8:	d4a2                	sw	s0,104(sp)
800028ca:	d2a6                	sw	s1,100(sp)
800028cc:	d686                	sw	ra,108(sp)
800028ce:	8432                	mv	s0,a2
800028d0:	84b6                	mv	s1,a3
800028d2:	0005dc63          	bgez	a1,800028ea <__swhatbuf_r+0x2c>
800028d6:	00c91783          	lh	a5,12(s2)
800028da:	0004a023          	sw	zero,0(s1)
800028de:	0807f793          	andi	a5,a5,128
800028e2:	e395                	bnez	a5,80002906 <__swhatbuf_r+0x48>
800028e4:	40000793          	li	a5,1024
800028e8:	a00d                	j	8000290a <__swhatbuf_r+0x4c>
800028ea:	0030                	addi	a2,sp,8
800028ec:	140010ef          	jal	ra,80003a2c <_fstat_r>
800028f0:	fe0543e3          	bltz	a0,800028d6 <__swhatbuf_r+0x18>
800028f4:	4732                	lw	a4,12(sp)
800028f6:	67bd                	lui	a5,0xf
800028f8:	8ff9                	and	a5,a5,a4
800028fa:	7779                	lui	a4,0xffffe
800028fc:	97ba                	add	a5,a5,a4
800028fe:	0017b793          	seqz	a5,a5
80002902:	c09c                	sw	a5,0(s1)
80002904:	b7c5                	j	800028e4 <__swhatbuf_r+0x26>
80002906:	04000793          	li	a5,64
8000290a:	50b6                	lw	ra,108(sp)
8000290c:	c01c                	sw	a5,0(s0)
8000290e:	5426                	lw	s0,104(sp)
80002910:	5496                	lw	s1,100(sp)
80002912:	5906                	lw	s2,96(sp)
80002914:	4501                	li	a0,0
80002916:	6165                	addi	sp,sp,112
80002918:	8082                	ret

8000291a <__smakebuf_r>:
__smakebuf_r():
8000291a:	00c5d783          	lhu	a5,12(a1)
8000291e:	1101                	addi	sp,sp,-32
80002920:	cc22                	sw	s0,24(sp)
80002922:	ce06                	sw	ra,28(sp)
80002924:	ca26                	sw	s1,20(sp)
80002926:	c84a                	sw	s2,16(sp)
80002928:	8b89                	andi	a5,a5,2
8000292a:	842e                	mv	s0,a1
8000292c:	cf89                	beqz	a5,80002946 <__smakebuf_r+0x2c>
8000292e:	04740793          	addi	a5,s0,71
80002932:	c01c                	sw	a5,0(s0)
80002934:	c81c                	sw	a5,16(s0)
80002936:	4785                	li	a5,1
80002938:	c85c                	sw	a5,20(s0)
8000293a:	40f2                	lw	ra,28(sp)
8000293c:	4462                	lw	s0,24(sp)
8000293e:	44d2                	lw	s1,20(sp)
80002940:	4942                	lw	s2,16(sp)
80002942:	6105                	addi	sp,sp,32
80002944:	8082                	ret
80002946:	0074                	addi	a3,sp,12
80002948:	0030                	addi	a2,sp,8
8000294a:	892a                	mv	s2,a0
8000294c:	3f8d                	jal	800028be <__swhatbuf_r>
8000294e:	45a2                	lw	a1,8(sp)
80002950:	84aa                	mv	s1,a0
80002952:	854a                	mv	a0,s2
80002954:	365000ef          	jal	ra,800034b8 <_malloc_r>
80002958:	ed01                	bnez	a0,80002970 <__smakebuf_r+0x56>
8000295a:	00c41783          	lh	a5,12(s0)
8000295e:	2007f713          	andi	a4,a5,512
80002962:	ff61                	bnez	a4,8000293a <__smakebuf_r+0x20>
80002964:	9bf1                	andi	a5,a5,-4
80002966:	0027e793          	ori	a5,a5,2
8000296a:	00f41623          	sh	a5,12(s0)
8000296e:	b7c1                	j	8000292e <__smakebuf_r+0x14>
80002970:	00000797          	auipc	a5,0x0
80002974:	d8c78793          	addi	a5,a5,-628 # 800026fc <_cleanup_r>
80002978:	02f92423          	sw	a5,40(s2)
8000297c:	00c45783          	lhu	a5,12(s0)
80002980:	c008                	sw	a0,0(s0)
80002982:	c808                	sw	a0,16(s0)
80002984:	0807e793          	ori	a5,a5,128
80002988:	00f41623          	sh	a5,12(s0)
8000298c:	47a2                	lw	a5,8(sp)
8000298e:	c85c                	sw	a5,20(s0)
80002990:	47b2                	lw	a5,12(sp)
80002992:	cf91                	beqz	a5,800029ae <__smakebuf_r+0x94>
80002994:	00e41583          	lh	a1,14(s0)
80002998:	854a                	mv	a0,s2
8000299a:	0bc010ef          	jal	ra,80003a56 <_isatty_r>
8000299e:	c901                	beqz	a0,800029ae <__smakebuf_r+0x94>
800029a0:	00c45783          	lhu	a5,12(s0)
800029a4:	9bf1                	andi	a5,a5,-4
800029a6:	0017e793          	ori	a5,a5,1
800029aa:	00f41623          	sh	a5,12(s0)
800029ae:	00c45503          	lhu	a0,12(s0)
800029b2:	8cc9                	or	s1,s1,a0
800029b4:	00941623          	sh	s1,12(s0)
800029b8:	b749                	j	8000293a <__smakebuf_r+0x20>

800029ba <malloc>:
malloc():
800029ba:	85aa                	mv	a1,a0
800029bc:	0fffe517          	auipc	a0,0xfffe
800029c0:	81c52503          	lw	a0,-2020(a0) # 900001d8 <_impure_ptr>
800029c4:	2f50006f          	j	800034b8 <_malloc_r>

800029c8 <memchr>:
memchr():
800029c8:	0ff5f593          	zext.b	a1,a1
800029cc:	962a                	add	a2,a2,a0
800029ce:	00c51463          	bne	a0,a2,800029d6 <memchr+0xe>
800029d2:	4501                	li	a0,0
800029d4:	8082                	ret
800029d6:	00054783          	lbu	a5,0(a0)
800029da:	feb78de3          	beq	a5,a1,800029d4 <memchr+0xc>
800029de:	0505                	addi	a0,a0,1
800029e0:	b7fd                	j	800029ce <memchr+0x6>

800029e2 <memcpy>:
memcpy():
800029e2:	00a5c7b3          	xor	a5,a1,a0
800029e6:	8b8d                	andi	a5,a5,3
800029e8:	00c506b3          	add	a3,a0,a2
800029ec:	e781                	bnez	a5,800029f4 <memcpy+0x12>
800029ee:	478d                	li	a5,3
800029f0:	00c7ee63          	bltu	a5,a2,80002a0c <memcpy+0x2a>
800029f4:	87aa                	mv	a5,a0
800029f6:	06d57163          	bgeu	a0,a3,80002a58 <memcpy+0x76>
800029fa:	0005c703          	lbu	a4,0(a1)
800029fe:	0785                	addi	a5,a5,1
80002a00:	0585                	addi	a1,a1,1
80002a02:	fee78fa3          	sb	a4,-1(a5)
80002a06:	fed7eae3          	bltu	a5,a3,800029fa <memcpy+0x18>
80002a0a:	8082                	ret
80002a0c:	00357713          	andi	a4,a0,3
80002a10:	87aa                	mv	a5,a0
80002a12:	cb11                	beqz	a4,80002a26 <memcpy+0x44>
80002a14:	0005c703          	lbu	a4,0(a1)
80002a18:	0785                	addi	a5,a5,1
80002a1a:	0585                	addi	a1,a1,1
80002a1c:	fee78fa3          	sb	a4,-1(a5)
80002a20:	0037f713          	andi	a4,a5,3
80002a24:	b7fd                	j	80002a12 <memcpy+0x30>
80002a26:	ffc6f713          	andi	a4,a3,-4
80002a2a:	40f70833          	sub	a6,a4,a5
80002a2e:	02000613          	li	a2,32
80002a32:	03064463          	blt	a2,a6,80002a5a <memcpy+0x78>
80002a36:	882e                	mv	a6,a1
80002a38:	863e                	mv	a2,a5
80002a3a:	06e66b63          	bltu	a2,a4,80002ab0 <memcpy+0xce>
80002a3e:	ffd78813          	addi	a6,a5,-3
80002a42:	4601                	li	a2,0
80002a44:	01076663          	bltu	a4,a6,80002a50 <memcpy+0x6e>
80002a48:	070d                	addi	a4,a4,3
80002a4a:	8f1d                	sub	a4,a4,a5
80002a4c:	ffc77613          	andi	a2,a4,-4
80002a50:	97b2                	add	a5,a5,a2
80002a52:	95b2                	add	a1,a1,a2
80002a54:	fad7e3e3          	bltu	a5,a3,800029fa <memcpy+0x18>
80002a58:	8082                	ret
80002a5a:	0005a383          	lw	t2,0(a1)
80002a5e:	0045a283          	lw	t0,4(a1)
80002a62:	0085af83          	lw	t6,8(a1)
80002a66:	00c5af03          	lw	t5,12(a1)
80002a6a:	0105ae83          	lw	t4,16(a1)
80002a6e:	0145ae03          	lw	t3,20(a1)
80002a72:	0185a303          	lw	t1,24(a1)
80002a76:	01c5a883          	lw	a7,28(a1)
80002a7a:	0077a023          	sw	t2,0(a5)
80002a7e:	0057a223          	sw	t0,4(a5)
80002a82:	0205a803          	lw	a6,32(a1)
80002a86:	01f7a423          	sw	t6,8(a5)
80002a8a:	01e7a623          	sw	t5,12(a5)
80002a8e:	01d7a823          	sw	t4,16(a5)
80002a92:	01c7aa23          	sw	t3,20(a5)
80002a96:	0067ac23          	sw	t1,24(a5)
80002a9a:	0117ae23          	sw	a7,28(a5)
80002a9e:	02478793          	addi	a5,a5,36
80002aa2:	02458593          	addi	a1,a1,36
80002aa6:	ff07ae23          	sw	a6,-4(a5)
80002aaa:	40f70833          	sub	a6,a4,a5
80002aae:	b751                	j	80002a32 <memcpy+0x50>
80002ab0:	00082883          	lw	a7,0(a6)
80002ab4:	0611                	addi	a2,a2,4
80002ab6:	0811                	addi	a6,a6,4
80002ab8:	ff162e23          	sw	a7,-4(a2)
80002abc:	bfbd                	j	80002a3a <memcpy+0x58>

80002abe <memset>:
memset():
80002abe:	433d                	li	t1,15
80002ac0:	872a                	mv	a4,a0
80002ac2:	02c37363          	bgeu	t1,a2,80002ae8 <memset+0x2a>
80002ac6:	00f77793          	andi	a5,a4,15
80002aca:	efbd                	bnez	a5,80002b48 <memset+0x8a>
80002acc:	e5ad                	bnez	a1,80002b36 <memset+0x78>
80002ace:	ff067693          	andi	a3,a2,-16
80002ad2:	8a3d                	andi	a2,a2,15
80002ad4:	96ba                	add	a3,a3,a4
80002ad6:	c30c                	sw	a1,0(a4)
80002ad8:	c34c                	sw	a1,4(a4)
80002ada:	c70c                	sw	a1,8(a4)
80002adc:	c74c                	sw	a1,12(a4)
80002ade:	0741                	addi	a4,a4,16
80002ae0:	fed76be3          	bltu	a4,a3,80002ad6 <memset+0x18>
80002ae4:	e211                	bnez	a2,80002ae8 <memset+0x2a>
80002ae6:	8082                	ret
80002ae8:	40c306b3          	sub	a3,t1,a2
80002aec:	068a                	slli	a3,a3,0x2
80002aee:	00000297          	auipc	t0,0x0
80002af2:	9696                	add	a3,a3,t0
80002af4:	00a68067          	jr	10(a3) # 100a <__stack_size+0x80a>
80002af8:	00b70723          	sb	a1,14(a4) # ffffe00e <_sp+0x6ffee00e>
80002afc:	00b706a3          	sb	a1,13(a4)
80002b00:	00b70623          	sb	a1,12(a4)
80002b04:	00b705a3          	sb	a1,11(a4)
80002b08:	00b70523          	sb	a1,10(a4)
80002b0c:	00b704a3          	sb	a1,9(a4)
80002b10:	00b70423          	sb	a1,8(a4)
80002b14:	00b703a3          	sb	a1,7(a4)
80002b18:	00b70323          	sb	a1,6(a4)
80002b1c:	00b702a3          	sb	a1,5(a4)
80002b20:	00b70223          	sb	a1,4(a4)
80002b24:	00b701a3          	sb	a1,3(a4)
80002b28:	00b70123          	sb	a1,2(a4)
80002b2c:	00b700a3          	sb	a1,1(a4)
80002b30:	00b70023          	sb	a1,0(a4)
80002b34:	8082                	ret
80002b36:	0ff5f593          	zext.b	a1,a1
80002b3a:	00859693          	slli	a3,a1,0x8
80002b3e:	8dd5                	or	a1,a1,a3
80002b40:	01059693          	slli	a3,a1,0x10
80002b44:	8dd5                	or	a1,a1,a3
80002b46:	b761                	j	80002ace <memset+0x10>
80002b48:	00279693          	slli	a3,a5,0x2
80002b4c:	00000297          	auipc	t0,0x0
80002b50:	9696                	add	a3,a3,t0
80002b52:	8286                	mv	t0,ra
80002b54:	fa8680e7          	jalr	-88(a3)
80002b58:	8096                	mv	ra,t0
80002b5a:	17c1                	addi	a5,a5,-16
80002b5c:	8f1d                	sub	a4,a4,a5
80002b5e:	963e                	add	a2,a2,a5
80002b60:	f8c374e3          	bgeu	t1,a2,80002ae8 <memset+0x2a>
80002b64:	b7a5                	j	80002acc <memset+0xe>

80002b66 <_Balloc>:
_Balloc():
80002b66:	515c                	lw	a5,36(a0)
80002b68:	1141                	addi	sp,sp,-16
80002b6a:	c422                	sw	s0,8(sp)
80002b6c:	c226                	sw	s1,4(sp)
80002b6e:	c606                	sw	ra,12(sp)
80002b70:	c04a                	sw	s2,0(sp)
80002b72:	842a                	mv	s0,a0
80002b74:	84ae                	mv	s1,a1
80002b76:	eb95                	bnez	a5,80002baa <_Balloc+0x44>
80002b78:	4541                	li	a0,16
80002b7a:	3581                	jal	800029ba <malloc>
80002b7c:	d048                	sw	a0,36(s0)
80002b7e:	ed11                	bnez	a0,80002b9a <_Balloc+0x34>
80002b80:	00003697          	auipc	a3,0x3
80002b84:	df868693          	addi	a3,a3,-520 # 80005978 <__clz_tab+0x1a4>
80002b88:	4601                	li	a2,0
80002b8a:	06600593          	li	a1,102
80002b8e:	00003517          	auipc	a0,0x3
80002b92:	eca50513          	addi	a0,a0,-310 # 80005a58 <__sf_fake_stdout+0x20>
80002b96:	60b000ef          	jal	ra,800039a0 <__assert_func>
80002b9a:	00052223          	sw	zero,4(a0)
80002b9e:	00052423          	sw	zero,8(a0)
80002ba2:	00052023          	sw	zero,0(a0)
80002ba6:	00052623          	sw	zero,12(a0)
80002baa:	02442903          	lw	s2,36(s0)
80002bae:	00c92783          	lw	a5,12(s2)
80002bb2:	c79d                	beqz	a5,80002be0 <_Balloc+0x7a>
80002bb4:	5058                	lw	a4,36(s0)
80002bb6:	00249793          	slli	a5,s1,0x2
80002bba:	4758                	lw	a4,12(a4)
80002bbc:	97ba                	add	a5,a5,a4
80002bbe:	4388                	lw	a0,0(a5)
80002bc0:	e131                	bnez	a0,80002c04 <_Balloc+0x9e>
80002bc2:	4905                	li	s2,1
80002bc4:	00991933          	sll	s2,s2,s1
80002bc8:	00590613          	addi	a2,s2,5
80002bcc:	060a                	slli	a2,a2,0x2
80002bce:	4585                	li	a1,1
80002bd0:	8522                	mv	a0,s0
80002bd2:	013000ef          	jal	ra,800033e4 <_calloc_r>
80002bd6:	c105                	beqz	a0,80002bf6 <_Balloc+0x90>
80002bd8:	c144                	sw	s1,4(a0)
80002bda:	01252423          	sw	s2,8(a0)
80002bde:	a02d                	j	80002c08 <_Balloc+0xa2>
80002be0:	02100613          	li	a2,33
80002be4:	4591                	li	a1,4
80002be6:	8522                	mv	a0,s0
80002be8:	7fc000ef          	jal	ra,800033e4 <_calloc_r>
80002bec:	505c                	lw	a5,36(s0)
80002bee:	00a92623          	sw	a0,12(s2)
80002bf2:	47dc                	lw	a5,12(a5)
80002bf4:	f3e1                	bnez	a5,80002bb4 <_Balloc+0x4e>
80002bf6:	4501                	li	a0,0
80002bf8:	40b2                	lw	ra,12(sp)
80002bfa:	4422                	lw	s0,8(sp)
80002bfc:	4492                	lw	s1,4(sp)
80002bfe:	4902                	lw	s2,0(sp)
80002c00:	0141                	addi	sp,sp,16
80002c02:	8082                	ret
80002c04:	4118                	lw	a4,0(a0)
80002c06:	c398                	sw	a4,0(a5)
80002c08:	00052823          	sw	zero,16(a0)
80002c0c:	00052623          	sw	zero,12(a0)
80002c10:	b7e5                	j	80002bf8 <_Balloc+0x92>

80002c12 <_Bfree>:
_Bfree():
80002c12:	515c                	lw	a5,36(a0)
80002c14:	1141                	addi	sp,sp,-16
80002c16:	c422                	sw	s0,8(sp)
80002c18:	c226                	sw	s1,4(sp)
80002c1a:	c606                	sw	ra,12(sp)
80002c1c:	84aa                	mv	s1,a0
80002c1e:	842e                	mv	s0,a1
80002c20:	eb95                	bnez	a5,80002c54 <_Bfree+0x42>
80002c22:	4541                	li	a0,16
80002c24:	3b59                	jal	800029ba <malloc>
80002c26:	d0c8                	sw	a0,36(s1)
80002c28:	ed11                	bnez	a0,80002c44 <_Bfree+0x32>
80002c2a:	00003697          	auipc	a3,0x3
80002c2e:	d4e68693          	addi	a3,a3,-690 # 80005978 <__clz_tab+0x1a4>
80002c32:	4601                	li	a2,0
80002c34:	08a00593          	li	a1,138
80002c38:	00003517          	auipc	a0,0x3
80002c3c:	e2050513          	addi	a0,a0,-480 # 80005a58 <__sf_fake_stdout+0x20>
80002c40:	561000ef          	jal	ra,800039a0 <__assert_func>
80002c44:	00052223          	sw	zero,4(a0)
80002c48:	00052423          	sw	zero,8(a0)
80002c4c:	00052023          	sw	zero,0(a0)
80002c50:	00052623          	sw	zero,12(a0)
80002c54:	c811                	beqz	s0,80002c68 <_Bfree+0x56>
80002c56:	50d4                	lw	a3,36(s1)
80002c58:	405c                	lw	a5,4(s0)
80002c5a:	00279713          	slli	a4,a5,0x2
80002c5e:	46dc                	lw	a5,12(a3)
80002c60:	97ba                	add	a5,a5,a4
80002c62:	4398                	lw	a4,0(a5)
80002c64:	c018                	sw	a4,0(s0)
80002c66:	c380                	sw	s0,0(a5)
80002c68:	40b2                	lw	ra,12(sp)
80002c6a:	4422                	lw	s0,8(sp)
80002c6c:	4492                	lw	s1,4(sp)
80002c6e:	0141                	addi	sp,sp,16
80002c70:	8082                	ret

80002c72 <__multadd>:
__multadd():
80002c72:	1101                	addi	sp,sp,-32
80002c74:	cc22                	sw	s0,24(sp)
80002c76:	c84a                	sw	s2,16(sp)
80002c78:	c64e                	sw	s3,12(sp)
80002c7a:	0105a903          	lw	s2,16(a1)
80002c7e:	842e                	mv	s0,a1
80002c80:	89b6                	mv	s3,a3
80002c82:	01458693          	addi	a3,a1,20
80002c86:	65c1                	lui	a1,0x10
80002c88:	ca26                	sw	s1,20(sp)
80002c8a:	ce06                	sw	ra,28(sp)
80002c8c:	84aa                	mv	s1,a0
80002c8e:	c452                	sw	s4,8(sp)
80002c90:	4501                	li	a0,0
80002c92:	15fd                	addi	a1,a1,-1
80002c94:	429c                	lw	a5,0(a3)
80002c96:	0691                	addi	a3,a3,4
80002c98:	0505                	addi	a0,a0,1
80002c9a:	00b7f733          	and	a4,a5,a1
80002c9e:	02c70733          	mul	a4,a4,a2
80002ca2:	83c1                	srli	a5,a5,0x10
80002ca4:	02c787b3          	mul	a5,a5,a2
80002ca8:	974e                	add	a4,a4,s3
80002caa:	01075813          	srli	a6,a4,0x10
80002cae:	8f6d                	and	a4,a4,a1
80002cb0:	97c2                	add	a5,a5,a6
80002cb2:	0107d993          	srli	s3,a5,0x10
80002cb6:	07c2                	slli	a5,a5,0x10
80002cb8:	97ba                	add	a5,a5,a4
80002cba:	fef6ae23          	sw	a5,-4(a3)
80002cbe:	fd254be3          	blt	a0,s2,80002c94 <__multadd+0x22>
80002cc2:	04098c63          	beqz	s3,80002d1a <__multadd+0xa8>
80002cc6:	441c                	lw	a5,8(s0)
80002cc8:	04f94063          	blt	s2,a5,80002d08 <__multadd+0x96>
80002ccc:	404c                	lw	a1,4(s0)
80002cce:	8526                	mv	a0,s1
80002cd0:	0585                	addi	a1,a1,1
80002cd2:	3d51                	jal	80002b66 <_Balloc>
80002cd4:	8a2a                	mv	s4,a0
80002cd6:	ed11                	bnez	a0,80002cf2 <__multadd+0x80>
80002cd8:	00003697          	auipc	a3,0x3
80002cdc:	d0c68693          	addi	a3,a3,-756 # 800059e4 <__clz_tab+0x210>
80002ce0:	4601                	li	a2,0
80002ce2:	0b500593          	li	a1,181
80002ce6:	00003517          	auipc	a0,0x3
80002cea:	d7250513          	addi	a0,a0,-654 # 80005a58 <__sf_fake_stdout+0x20>
80002cee:	4b3000ef          	jal	ra,800039a0 <__assert_func>
80002cf2:	4810                	lw	a2,16(s0)
80002cf4:	00c40593          	addi	a1,s0,12
80002cf8:	0531                	addi	a0,a0,12
80002cfa:	0609                	addi	a2,a2,2
80002cfc:	060a                	slli	a2,a2,0x2
80002cfe:	31d5                	jal	800029e2 <memcpy>
80002d00:	85a2                	mv	a1,s0
80002d02:	8526                	mv	a0,s1
80002d04:	3739                	jal	80002c12 <_Bfree>
80002d06:	8452                	mv	s0,s4
80002d08:	00490793          	addi	a5,s2,4
80002d0c:	078a                	slli	a5,a5,0x2
80002d0e:	97a2                	add	a5,a5,s0
80002d10:	0137a223          	sw	s3,4(a5)
80002d14:	0905                	addi	s2,s2,1
80002d16:	01242823          	sw	s2,16(s0)
80002d1a:	40f2                	lw	ra,28(sp)
80002d1c:	8522                	mv	a0,s0
80002d1e:	4462                	lw	s0,24(sp)
80002d20:	44d2                	lw	s1,20(sp)
80002d22:	4942                	lw	s2,16(sp)
80002d24:	49b2                	lw	s3,12(sp)
80002d26:	4a22                	lw	s4,8(sp)
80002d28:	6105                	addi	sp,sp,32
80002d2a:	8082                	ret

80002d2c <__hi0bits>:
__hi0bits():
80002d2c:	7741                	lui	a4,0xffff0
80002d2e:	8f69                	and	a4,a4,a0
80002d30:	87aa                	mv	a5,a0
80002d32:	4501                	li	a0,0
80002d34:	e319                	bnez	a4,80002d3a <__hi0bits+0xe>
80002d36:	07c2                	slli	a5,a5,0x10
80002d38:	4541                	li	a0,16
80002d3a:	ff000737          	lui	a4,0xff000
80002d3e:	8f7d                	and	a4,a4,a5
80002d40:	e319                	bnez	a4,80002d46 <__hi0bits+0x1a>
80002d42:	0521                	addi	a0,a0,8
80002d44:	07a2                	slli	a5,a5,0x8
80002d46:	f0000737          	lui	a4,0xf0000
80002d4a:	8f7d                	and	a4,a4,a5
80002d4c:	e319                	bnez	a4,80002d52 <__hi0bits+0x26>
80002d4e:	0511                	addi	a0,a0,4
80002d50:	0792                	slli	a5,a5,0x4
80002d52:	c0000737          	lui	a4,0xc0000
80002d56:	8f7d                	and	a4,a4,a5
80002d58:	e319                	bnez	a4,80002d5e <__hi0bits+0x32>
80002d5a:	0509                	addi	a0,a0,2
80002d5c:	078a                	slli	a5,a5,0x2
80002d5e:	0007c963          	bltz	a5,80002d70 <__hi0bits+0x44>
80002d62:	40000737          	lui	a4,0x40000
80002d66:	8ff9                	and	a5,a5,a4
80002d68:	0505                	addi	a0,a0,1
80002d6a:	e399                	bnez	a5,80002d70 <__hi0bits+0x44>
80002d6c:	02000513          	li	a0,32
80002d70:	8082                	ret

80002d72 <__lo0bits>:
__lo0bits():
80002d72:	411c                	lw	a5,0(a0)
80002d74:	872a                	mv	a4,a0
80002d76:	0077f693          	andi	a3,a5,7
80002d7a:	c285                	beqz	a3,80002d9a <__lo0bits+0x28>
80002d7c:	0017f693          	andi	a3,a5,1
80002d80:	4501                	li	a0,0
80002d82:	eea1                	bnez	a3,80002dda <__lo0bits+0x68>
80002d84:	0027f693          	andi	a3,a5,2
80002d88:	c689                	beqz	a3,80002d92 <__lo0bits+0x20>
80002d8a:	8385                	srli	a5,a5,0x1
80002d8c:	c31c                	sw	a5,0(a4)
80002d8e:	4505                	li	a0,1
80002d90:	8082                	ret
80002d92:	8389                	srli	a5,a5,0x2
80002d94:	c31c                	sw	a5,0(a4)
80002d96:	4509                	li	a0,2
80002d98:	8082                	ret
80002d9a:	01079693          	slli	a3,a5,0x10
80002d9e:	82c1                	srli	a3,a3,0x10
80002da0:	4501                	li	a0,0
80002da2:	e299                	bnez	a3,80002da8 <__lo0bits+0x36>
80002da4:	83c1                	srli	a5,a5,0x10
80002da6:	4541                	li	a0,16
80002da8:	0ff7f693          	zext.b	a3,a5
80002dac:	e299                	bnez	a3,80002db2 <__lo0bits+0x40>
80002dae:	0521                	addi	a0,a0,8
80002db0:	83a1                	srli	a5,a5,0x8
80002db2:	00f7f693          	andi	a3,a5,15
80002db6:	e299                	bnez	a3,80002dbc <__lo0bits+0x4a>
80002db8:	0511                	addi	a0,a0,4
80002dba:	8391                	srli	a5,a5,0x4
80002dbc:	0037f693          	andi	a3,a5,3
80002dc0:	e299                	bnez	a3,80002dc6 <__lo0bits+0x54>
80002dc2:	0509                	addi	a0,a0,2
80002dc4:	8389                	srli	a5,a5,0x2
80002dc6:	0017f693          	andi	a3,a5,1
80002dca:	e681                	bnez	a3,80002dd2 <__lo0bits+0x60>
80002dcc:	8385                	srli	a5,a5,0x1
80002dce:	0505                	addi	a0,a0,1
80002dd0:	c399                	beqz	a5,80002dd6 <__lo0bits+0x64>
80002dd2:	c31c                	sw	a5,0(a4)
80002dd4:	8082                	ret
80002dd6:	02000513          	li	a0,32
80002dda:	8082                	ret

80002ddc <__i2b>:
__i2b():
80002ddc:	1141                	addi	sp,sp,-16
80002dde:	c422                	sw	s0,8(sp)
80002de0:	842e                	mv	s0,a1
80002de2:	4585                	li	a1,1
80002de4:	c606                	sw	ra,12(sp)
80002de6:	3341                	jal	80002b66 <_Balloc>
80002de8:	ed11                	bnez	a0,80002e04 <__i2b+0x28>
80002dea:	00003697          	auipc	a3,0x3
80002dee:	bfa68693          	addi	a3,a3,-1030 # 800059e4 <__clz_tab+0x210>
80002df2:	4601                	li	a2,0
80002df4:	14000593          	li	a1,320
80002df8:	00003517          	auipc	a0,0x3
80002dfc:	c6050513          	addi	a0,a0,-928 # 80005a58 <__sf_fake_stdout+0x20>
80002e00:	3a1000ef          	jal	ra,800039a0 <__assert_func>
80002e04:	40b2                	lw	ra,12(sp)
80002e06:	c940                	sw	s0,20(a0)
80002e08:	4422                	lw	s0,8(sp)
80002e0a:	4705                	li	a4,1
80002e0c:	c918                	sw	a4,16(a0)
80002e0e:	0141                	addi	sp,sp,16
80002e10:	8082                	ret

80002e12 <__multiply>:
__multiply():
80002e12:	4998                	lw	a4,16(a1)
80002e14:	4a1c                	lw	a5,16(a2)
80002e16:	1101                	addi	sp,sp,-32
80002e18:	cc22                	sw	s0,24(sp)
80002e1a:	c84a                	sw	s2,16(sp)
80002e1c:	ce06                	sw	ra,28(sp)
80002e1e:	ca26                	sw	s1,20(sp)
80002e20:	c64e                	sw	s3,12(sp)
80002e22:	c452                	sw	s4,8(sp)
80002e24:	842e                	mv	s0,a1
80002e26:	8932                	mv	s2,a2
80002e28:	00f75463          	bge	a4,a5,80002e30 <__multiply+0x1e>
80002e2c:	8432                	mv	s0,a2
80002e2e:	892e                	mv	s2,a1
80002e30:	01042a03          	lw	s4,16(s0)
80002e34:	01092983          	lw	s3,16(s2)
80002e38:	441c                	lw	a5,8(s0)
80002e3a:	404c                	lw	a1,4(s0)
80002e3c:	013a04b3          	add	s1,s4,s3
80002e40:	0097d363          	bge	a5,s1,80002e46 <__multiply+0x34>
80002e44:	0585                	addi	a1,a1,1
80002e46:	3305                	jal	80002b66 <_Balloc>
80002e48:	ed11                	bnez	a0,80002e64 <__multiply+0x52>
80002e4a:	00003697          	auipc	a3,0x3
80002e4e:	b9a68693          	addi	a3,a3,-1126 # 800059e4 <__clz_tab+0x210>
80002e52:	4601                	li	a2,0
80002e54:	15d00593          	li	a1,349
80002e58:	00003517          	auipc	a0,0x3
80002e5c:	c0050513          	addi	a0,a0,-1024 # 80005a58 <__sf_fake_stdout+0x20>
80002e60:	341000ef          	jal	ra,800039a0 <__assert_func>
80002e64:	01450693          	addi	a3,a0,20
80002e68:	00249813          	slli	a6,s1,0x2
80002e6c:	9836                	add	a6,a6,a3
80002e6e:	87b6                	mv	a5,a3
80002e70:	0507ea63          	bltu	a5,a6,80002ec4 <__multiply+0xb2>
80002e74:	01440313          	addi	t1,s0,20
80002e78:	002a1593          	slli	a1,s4,0x2
80002e7c:	01490613          	addi	a2,s2,20
80002e80:	00299893          	slli	a7,s3,0x2
80002e84:	959a                	add	a1,a1,t1
80002e86:	01540793          	addi	a5,s0,21
80002e8a:	98b2                	add	a7,a7,a2
80002e8c:	4e11                	li	t3,4
80002e8e:	00f5e863          	bltu	a1,a5,80002e9e <__multiply+0x8c>
80002e92:	40858433          	sub	s0,a1,s0
80002e96:	142d                	addi	s0,s0,-21
80002e98:	9871                	andi	s0,s0,-4
80002e9a:	00440e13          	addi	t3,s0,4
80002e9e:	6ec1                	lui	t4,0x10
80002ea0:	1efd                	addi	t4,t4,-1
80002ea2:	03166563          	bltu	a2,a7,80002ecc <__multiply+0xba>
80002ea6:	00905663          	blez	s1,80002eb2 <__multiply+0xa0>
80002eaa:	ffc82783          	lw	a5,-4(a6)
80002eae:	1871                	addi	a6,a6,-4
80002eb0:	cff1                	beqz	a5,80002f8c <__multiply+0x17a>
80002eb2:	40f2                	lw	ra,28(sp)
80002eb4:	4462                	lw	s0,24(sp)
80002eb6:	c904                	sw	s1,16(a0)
80002eb8:	4942                	lw	s2,16(sp)
80002eba:	44d2                	lw	s1,20(sp)
80002ebc:	49b2                	lw	s3,12(sp)
80002ebe:	4a22                	lw	s4,8(sp)
80002ec0:	6105                	addi	sp,sp,32
80002ec2:	8082                	ret
80002ec4:	0007a023          	sw	zero,0(a5)
80002ec8:	0791                	addi	a5,a5,4
80002eca:	b75d                	j	80002e70 <__multiply+0x5e>
80002ecc:	00062f83          	lw	t6,0(a2)
80002ed0:	01dfffb3          	and	t6,t6,t4
80002ed4:	040f8b63          	beqz	t6,80002f2a <__multiply+0x118>
80002ed8:	83b6                	mv	t2,a3
80002eda:	829a                	mv	t0,t1
80002edc:	4901                	li	s2,0
80002ede:	0002a703          	lw	a4,0(t0) # 80002b4c <memset+0x8e>
80002ee2:	0003a403          	lw	s0,0(t2)
80002ee6:	0391                	addi	t2,t2,4
80002ee8:	01d77f33          	and	t5,a4,t4
80002eec:	03ff0f33          	mul	t5,t5,t6
80002ef0:	01d477b3          	and	a5,s0,t4
80002ef4:	8041                	srli	s0,s0,0x10
80002ef6:	0291                	addi	t0,t0,4
80002ef8:	9f3e                	add	t5,t5,a5
80002efa:	01075793          	srli	a5,a4,0x10
80002efe:	03f787b3          	mul	a5,a5,t6
80002f02:	9f4a                	add	t5,t5,s2
80002f04:	010f5713          	srli	a4,t5,0x10
80002f08:	01df7f33          	and	t5,t5,t4
80002f0c:	97a2                	add	a5,a5,s0
80002f0e:	97ba                	add	a5,a5,a4
80002f10:	0107d913          	srli	s2,a5,0x10
80002f14:	07c2                	slli	a5,a5,0x10
80002f16:	01e7e7b3          	or	a5,a5,t5
80002f1a:	fef3ae23          	sw	a5,-4(t2)
80002f1e:	fcb2e0e3          	bltu	t0,a1,80002ede <__multiply+0xcc>
80002f22:	01c687b3          	add	a5,a3,t3
80002f26:	0127a023          	sw	s2,0(a5)
80002f2a:	00265383          	lhu	t2,2(a2)
80002f2e:	04038c63          	beqz	t2,80002f86 <__multiply+0x174>
80002f32:	429c                	lw	a5,0(a3)
80002f34:	8fb6                	mv	t6,a3
80002f36:	8f1a                	mv	t5,t1
80002f38:	4281                	li	t0,0
80002f3a:	000f2703          	lw	a4,0(t5)
80002f3e:	002fd403          	lhu	s0,2(t6)
80002f42:	01d7f7b3          	and	a5,a5,t4
80002f46:	01d77733          	and	a4,a4,t4
80002f4a:	02770733          	mul	a4,a4,t2
80002f4e:	0f91                	addi	t6,t6,4
80002f50:	0f11                	addi	t5,t5,4
80002f52:	9722                	add	a4,a4,s0
80002f54:	9716                	add	a4,a4,t0
80002f56:	01071293          	slli	t0,a4,0x10
80002f5a:	00f2e7b3          	or	a5,t0,a5
80002f5e:	feffae23          	sw	a5,-4(t6)
80002f62:	ffef5783          	lhu	a5,-2(t5)
80002f66:	000fa283          	lw	t0,0(t6)
80002f6a:	8341                	srli	a4,a4,0x10
80002f6c:	027787b3          	mul	a5,a5,t2
80002f70:	01d2f2b3          	and	t0,t0,t4
80002f74:	9796                	add	a5,a5,t0
80002f76:	97ba                	add	a5,a5,a4
80002f78:	0107d293          	srli	t0,a5,0x10
80002f7c:	fabf6fe3          	bltu	t5,a1,80002f3a <__multiply+0x128>
80002f80:	01c68733          	add	a4,a3,t3
80002f84:	c31c                	sw	a5,0(a4)
80002f86:	0611                	addi	a2,a2,4
80002f88:	0691                	addi	a3,a3,4
80002f8a:	bf21                	j	80002ea2 <__multiply+0x90>
80002f8c:	14fd                	addi	s1,s1,-1
80002f8e:	bf21                	j	80002ea6 <__multiply+0x94>

80002f90 <__pow5mult>:
__pow5mult():
80002f90:	1101                	addi	sp,sp,-32
80002f92:	ca26                	sw	s1,20(sp)
80002f94:	c84a                	sw	s2,16(sp)
80002f96:	c64e                	sw	s3,12(sp)
80002f98:	ce06                	sw	ra,28(sp)
80002f9a:	cc22                	sw	s0,24(sp)
80002f9c:	c452                	sw	s4,8(sp)
80002f9e:	00367793          	andi	a5,a2,3
80002fa2:	892a                	mv	s2,a0
80002fa4:	84b2                	mv	s1,a2
80002fa6:	89ae                	mv	s3,a1
80002fa8:	cf81                	beqz	a5,80002fc0 <__pow5mult+0x30>
80002faa:	17fd                	addi	a5,a5,-1
80002fac:	00003717          	auipc	a4,0x3
80002fb0:	bf470713          	addi	a4,a4,-1036 # 80005ba0 <p05.0>
80002fb4:	078a                	slli	a5,a5,0x2
80002fb6:	97ba                	add	a5,a5,a4
80002fb8:	4390                	lw	a2,0(a5)
80002fba:	4681                	li	a3,0
80002fbc:	395d                	jal	80002c72 <__multadd>
80002fbe:	89aa                	mv	s3,a0
80002fc0:	8489                	srai	s1,s1,0x2
80002fc2:	c4d1                	beqz	s1,8000304e <__pow5mult+0xbe>
80002fc4:	02492783          	lw	a5,36(s2)
80002fc8:	ef85                	bnez	a5,80003000 <__pow5mult+0x70>
80002fca:	4541                	li	a0,16
80002fcc:	9efff0ef          	jal	ra,800029ba <malloc>
80002fd0:	02a92223          	sw	a0,36(s2)
80002fd4:	ed11                	bnez	a0,80002ff0 <__pow5mult+0x60>
80002fd6:	00003697          	auipc	a3,0x3
80002fda:	9a268693          	addi	a3,a3,-1630 # 80005978 <__clz_tab+0x1a4>
80002fde:	4601                	li	a2,0
80002fe0:	1ae00593          	li	a1,430
80002fe4:	00003517          	auipc	a0,0x3
80002fe8:	a7450513          	addi	a0,a0,-1420 # 80005a58 <__sf_fake_stdout+0x20>
80002fec:	1b5000ef          	jal	ra,800039a0 <__assert_func>
80002ff0:	00052223          	sw	zero,4(a0)
80002ff4:	00052423          	sw	zero,8(a0)
80002ff8:	00052023          	sw	zero,0(a0)
80002ffc:	00052623          	sw	zero,12(a0)
80003000:	02492a03          	lw	s4,36(s2)
80003004:	008a2403          	lw	s0,8(s4)
80003008:	e811                	bnez	s0,8000301c <__pow5mult+0x8c>
8000300a:	27100593          	li	a1,625
8000300e:	854a                	mv	a0,s2
80003010:	33f1                	jal	80002ddc <__i2b>
80003012:	00aa2423          	sw	a0,8(s4)
80003016:	842a                	mv	s0,a0
80003018:	00052023          	sw	zero,0(a0)
8000301c:	0014f793          	andi	a5,s1,1
80003020:	cb91                	beqz	a5,80003034 <__pow5mult+0xa4>
80003022:	85ce                	mv	a1,s3
80003024:	8622                	mv	a2,s0
80003026:	854a                	mv	a0,s2
80003028:	33ed                	jal	80002e12 <__multiply>
8000302a:	8a2a                	mv	s4,a0
8000302c:	85ce                	mv	a1,s3
8000302e:	854a                	mv	a0,s2
80003030:	36cd                	jal	80002c12 <_Bfree>
80003032:	89d2                	mv	s3,s4
80003034:	8485                	srai	s1,s1,0x1
80003036:	cc81                	beqz	s1,8000304e <__pow5mult+0xbe>
80003038:	4008                	lw	a0,0(s0)
8000303a:	e901                	bnez	a0,8000304a <__pow5mult+0xba>
8000303c:	8622                	mv	a2,s0
8000303e:	85a2                	mv	a1,s0
80003040:	854a                	mv	a0,s2
80003042:	3bc1                	jal	80002e12 <__multiply>
80003044:	c008                	sw	a0,0(s0)
80003046:	00052023          	sw	zero,0(a0)
8000304a:	842a                	mv	s0,a0
8000304c:	bfc1                	j	8000301c <__pow5mult+0x8c>
8000304e:	40f2                	lw	ra,28(sp)
80003050:	4462                	lw	s0,24(sp)
80003052:	44d2                	lw	s1,20(sp)
80003054:	4942                	lw	s2,16(sp)
80003056:	4a22                	lw	s4,8(sp)
80003058:	854e                	mv	a0,s3
8000305a:	49b2                	lw	s3,12(sp)
8000305c:	6105                	addi	sp,sp,32
8000305e:	8082                	ret

80003060 <__lshift>:
__lshift():
80003060:	1101                	addi	sp,sp,-32
80003062:	cc22                	sw	s0,24(sp)
80003064:	842e                	mv	s0,a1
80003066:	c05a                	sw	s6,0(sp)
80003068:	01042b03          	lw	s6,16(s0)
8000306c:	ca26                	sw	s1,20(sp)
8000306e:	41cc                	lw	a1,4(a1)
80003070:	40565493          	srai	s1,a2,0x5
80003074:	441c                	lw	a5,8(s0)
80003076:	9b26                	add	s6,s6,s1
80003078:	c84a                	sw	s2,16(sp)
8000307a:	c452                	sw	s4,8(sp)
8000307c:	c256                	sw	s5,4(sp)
8000307e:	ce06                	sw	ra,28(sp)
80003080:	c64e                	sw	s3,12(sp)
80003082:	8aaa                	mv	s5,a0
80003084:	8932                	mv	s2,a2
80003086:	001b0a13          	addi	s4,s6,1
8000308a:	0347c463          	blt	a5,s4,800030b2 <__lshift+0x52>
8000308e:	8556                	mv	a0,s5
80003090:	ad7ff0ef          	jal	ra,80002b66 <_Balloc>
80003094:	89aa                	mv	s3,a0
80003096:	e10d                	bnez	a0,800030b8 <__lshift+0x58>
80003098:	00003697          	auipc	a3,0x3
8000309c:	94c68693          	addi	a3,a3,-1716 # 800059e4 <__clz_tab+0x210>
800030a0:	4601                	li	a2,0
800030a2:	1d900593          	li	a1,473
800030a6:	00003517          	auipc	a0,0x3
800030aa:	9b250513          	addi	a0,a0,-1614 # 80005a58 <__sf_fake_stdout+0x20>
800030ae:	0f3000ef          	jal	ra,800039a0 <__assert_func>
800030b2:	0585                	addi	a1,a1,1
800030b4:	0786                	slli	a5,a5,0x1
800030b6:	bfd1                	j	8000308a <__lshift+0x2a>
800030b8:	01450793          	addi	a5,a0,20
800030bc:	86be                	mv	a3,a5
800030be:	4701                	li	a4,0
800030c0:	0691                	addi	a3,a3,4
800030c2:	08974563          	blt	a4,s1,8000314c <__lshift+0xec>
800030c6:	0004d363          	bgez	s1,800030cc <__lshift+0x6c>
800030ca:	4481                	li	s1,0
800030cc:	048a                	slli	s1,s1,0x2
800030ce:	009786b3          	add	a3,a5,s1
800030d2:	481c                	lw	a5,16(s0)
800030d4:	01440713          	addi	a4,s0,20
800030d8:	01f97613          	andi	a2,s2,31
800030dc:	078a                	slli	a5,a5,0x2
800030de:	97ba                	add	a5,a5,a4
800030e0:	ca35                	beqz	a2,80003154 <__lshift+0xf4>
800030e2:	02000813          	li	a6,32
800030e6:	40c80833          	sub	a6,a6,a2
800030ea:	88b6                	mv	a7,a3
800030ec:	4581                	li	a1,0
800030ee:	4308                	lw	a0,0(a4)
800030f0:	0891                	addi	a7,a7,4
800030f2:	0711                	addi	a4,a4,4
800030f4:	00c51533          	sll	a0,a0,a2
800030f8:	8dc9                	or	a1,a1,a0
800030fa:	feb8ae23          	sw	a1,-4(a7) # fcbffffc <_sp+0x6cbefffc>
800030fe:	ffc72583          	lw	a1,-4(a4)
80003102:	0105d5b3          	srl	a1,a1,a6
80003106:	fef764e3          	bltu	a4,a5,800030ee <__lshift+0x8e>
8000310a:	01540713          	addi	a4,s0,21
8000310e:	4611                	li	a2,4
80003110:	00e7e763          	bltu	a5,a4,8000311e <__lshift+0xbe>
80003114:	8f81                	sub	a5,a5,s0
80003116:	17ad                	addi	a5,a5,-21
80003118:	9bf1                	andi	a5,a5,-4
8000311a:	00478613          	addi	a2,a5,4
8000311e:	96b2                	add	a3,a3,a2
80003120:	c28c                	sw	a1,0(a3)
80003122:	c199                	beqz	a1,80003128 <__lshift+0xc8>
80003124:	002b0a13          	addi	s4,s6,2
80003128:	1a7d                	addi	s4,s4,-1
8000312a:	0149a823          	sw	s4,16(s3)
8000312e:	8556                	mv	a0,s5
80003130:	85a2                	mv	a1,s0
80003132:	ae1ff0ef          	jal	ra,80002c12 <_Bfree>
80003136:	40f2                	lw	ra,28(sp)
80003138:	4462                	lw	s0,24(sp)
8000313a:	44d2                	lw	s1,20(sp)
8000313c:	4942                	lw	s2,16(sp)
8000313e:	4a22                	lw	s4,8(sp)
80003140:	4a92                	lw	s5,4(sp)
80003142:	4b02                	lw	s6,0(sp)
80003144:	854e                	mv	a0,s3
80003146:	49b2                	lw	s3,12(sp)
80003148:	6105                	addi	sp,sp,32
8000314a:	8082                	ret
8000314c:	fe06ae23          	sw	zero,-4(a3)
80003150:	0705                	addi	a4,a4,1
80003152:	b7bd                	j	800030c0 <__lshift+0x60>
80003154:	4310                	lw	a2,0(a4)
80003156:	0711                	addi	a4,a4,4
80003158:	0691                	addi	a3,a3,4
8000315a:	fec6ae23          	sw	a2,-4(a3)
8000315e:	fef76be3          	bltu	a4,a5,80003154 <__lshift+0xf4>
80003162:	b7d9                	j	80003128 <__lshift+0xc8>

80003164 <__mcmp>:
__mcmp():
80003164:	4914                	lw	a3,16(a0)
80003166:	4998                	lw	a4,16(a1)
80003168:	87aa                	mv	a5,a0
8000316a:	40e68533          	sub	a0,a3,a4
8000316e:	02e69563          	bne	a3,a4,80003198 <__mcmp+0x34>
80003172:	070a                	slli	a4,a4,0x2
80003174:	07d1                	addi	a5,a5,20
80003176:	05d1                	addi	a1,a1,20
80003178:	00e786b3          	add	a3,a5,a4
8000317c:	95ba                	add	a1,a1,a4
8000317e:	16f1                	addi	a3,a3,-4
80003180:	15f1                	addi	a1,a1,-4
80003182:	4290                	lw	a2,0(a3)
80003184:	4198                	lw	a4,0(a1)
80003186:	00e60763          	beq	a2,a4,80003194 <__mcmp+0x30>
8000318a:	557d                	li	a0,-1
8000318c:	00e66663          	bltu	a2,a4,80003198 <__mcmp+0x34>
80003190:	4505                	li	a0,1
80003192:	8082                	ret
80003194:	fed7e5e3          	bltu	a5,a3,8000317e <__mcmp+0x1a>
80003198:	8082                	ret

8000319a <__mdiff>:
__mdiff():
8000319a:	1101                	addi	sp,sp,-32
8000319c:	cc22                	sw	s0,24(sp)
8000319e:	842e                	mv	s0,a1
800031a0:	c84a                	sw	s2,16(sp)
800031a2:	85b2                	mv	a1,a2
800031a4:	892a                	mv	s2,a0
800031a6:	8522                	mv	a0,s0
800031a8:	ca26                	sw	s1,20(sp)
800031aa:	ce06                	sw	ra,28(sp)
800031ac:	c64e                	sw	s3,12(sp)
800031ae:	84b2                	mv	s1,a2
800031b0:	3f55                	jal	80003164 <__mcmp>
800031b2:	ed15                	bnez	a0,800031ee <__mdiff+0x54>
800031b4:	4581                	li	a1,0
800031b6:	854a                	mv	a0,s2
800031b8:	9afff0ef          	jal	ra,80002b66 <_Balloc>
800031bc:	ed11                	bnez	a0,800031d8 <__mdiff+0x3e>
800031be:	00003697          	auipc	a3,0x3
800031c2:	82668693          	addi	a3,a3,-2010 # 800059e4 <__clz_tab+0x210>
800031c6:	4601                	li	a2,0
800031c8:	23200593          	li	a1,562
800031cc:	00003517          	auipc	a0,0x3
800031d0:	88c50513          	addi	a0,a0,-1908 # 80005a58 <__sf_fake_stdout+0x20>
800031d4:	7cc000ef          	jal	ra,800039a0 <__assert_func>
800031d8:	4785                	li	a5,1
800031da:	c91c                	sw	a5,16(a0)
800031dc:	00052a23          	sw	zero,20(a0)
800031e0:	40f2                	lw	ra,28(sp)
800031e2:	4462                	lw	s0,24(sp)
800031e4:	44d2                	lw	s1,20(sp)
800031e6:	4942                	lw	s2,16(sp)
800031e8:	49b2                	lw	s3,12(sp)
800031ea:	6105                	addi	sp,sp,32
800031ec:	8082                	ret
800031ee:	4985                	li	s3,1
800031f0:	00054663          	bltz	a0,800031fc <__mdiff+0x62>
800031f4:	87a6                	mv	a5,s1
800031f6:	4981                	li	s3,0
800031f8:	84a2                	mv	s1,s0
800031fa:	843e                	mv	s0,a5
800031fc:	40cc                	lw	a1,4(s1)
800031fe:	854a                	mv	a0,s2
80003200:	967ff0ef          	jal	ra,80002b66 <_Balloc>
80003204:	e909                	bnez	a0,80003216 <__mdiff+0x7c>
80003206:	00002697          	auipc	a3,0x2
8000320a:	7de68693          	addi	a3,a3,2014 # 800059e4 <__clz_tab+0x210>
8000320e:	4601                	li	a2,0
80003210:	24000593          	li	a1,576
80003214:	bf65                	j	800031cc <__mdiff+0x32>
80003216:	0104a803          	lw	a6,16(s1)
8000321a:	4818                	lw	a4,16(s0)
8000321c:	01448893          	addi	a7,s1,20
80003220:	00281693          	slli	a3,a6,0x2
80003224:	01440793          	addi	a5,s0,20
80003228:	070a                	slli	a4,a4,0x2
8000322a:	6ec1                	lui	t4,0x10
8000322c:	01352623          	sw	s3,12(a0)
80003230:	96c6                	add	a3,a3,a7
80003232:	97ba                	add	a5,a5,a4
80003234:	01450613          	addi	a2,a0,20
80003238:	4e51                	li	t3,20
8000323a:	4301                	li	t1,0
8000323c:	1efd                	addi	t4,t4,-1
8000323e:	01c48733          	add	a4,s1,t3
80003242:	4318                	lw	a4,0(a4)
80003244:	01c405b3          	add	a1,s0,t3
80003248:	0005af03          	lw	t5,0(a1) # 10000 <__stack_size+0xf800>
8000324c:	01d775b3          	and	a1,a4,t4
80003250:	959a                	add	a1,a1,t1
80003252:	01df7333          	and	t1,t5,t4
80003256:	406585b3          	sub	a1,a1,t1
8000325a:	010f5f13          	srli	t5,t5,0x10
8000325e:	8341                	srli	a4,a4,0x10
80003260:	4105d313          	srai	t1,a1,0x10
80003264:	41e70733          	sub	a4,a4,t5
80003268:	971a                	add	a4,a4,t1
8000326a:	41075313          	srai	t1,a4,0x10
8000326e:	01d5f5b3          	and	a1,a1,t4
80003272:	0742                	slli	a4,a4,0x10
80003274:	01c50f33          	add	t5,a0,t3
80003278:	8f4d                	or	a4,a4,a1
8000327a:	0e11                	addi	t3,t3,4
8000327c:	00ef2023          	sw	a4,0(t5)
80003280:	008e0733          	add	a4,t3,s0
80003284:	faf76de3          	bltu	a4,a5,8000323e <__mdiff+0xa4>
80003288:	01540593          	addi	a1,s0,21
8000328c:	4711                	li	a4,4
8000328e:	00b7e763          	bltu	a5,a1,8000329c <__mdiff+0x102>
80003292:	8f81                	sub	a5,a5,s0
80003294:	17ad                	addi	a5,a5,-21
80003296:	9bf1                	andi	a5,a5,-4
80003298:	00478713          	addi	a4,a5,4
8000329c:	98ba                	add	a7,a7,a4
8000329e:	6e41                	lui	t3,0x10
800032a0:	9732                	add	a4,a4,a2
800032a2:	8eba                	mv	t4,a4
800032a4:	85c6                	mv	a1,a7
800032a6:	1e7d                	addi	t3,t3,-1
800032a8:	02d5e263          	bltu	a1,a3,800032cc <__mdiff+0x132>
800032ac:	ffd88613          	addi	a2,a7,-3
800032b0:	4781                	li	a5,0
800032b2:	00c6e663          	bltu	a3,a2,800032be <__mdiff+0x124>
800032b6:	068d                	addi	a3,a3,3
800032b8:	411687b3          	sub	a5,a3,a7
800032bc:	9bf1                	andi	a5,a5,-4
800032be:	97ba                	add	a5,a5,a4
800032c0:	17f1                	addi	a5,a5,-4
800032c2:	4398                	lw	a4,0(a5)
800032c4:	c71d                	beqz	a4,800032f2 <__mdiff+0x158>
800032c6:	01052823          	sw	a6,16(a0)
800032ca:	bf19                	j	800031e0 <__mdiff+0x46>
800032cc:	419c                	lw	a5,0(a1)
800032ce:	0e91                	addi	t4,t4,4
800032d0:	0591                	addi	a1,a1,4
800032d2:	01c7f633          	and	a2,a5,t3
800032d6:	961a                	add	a2,a2,t1
800032d8:	41065313          	srai	t1,a2,0x10
800032dc:	83c1                	srli	a5,a5,0x10
800032de:	979a                	add	a5,a5,t1
800032e0:	4107d313          	srai	t1,a5,0x10
800032e4:	01c67633          	and	a2,a2,t3
800032e8:	07c2                	slli	a5,a5,0x10
800032ea:	8fd1                	or	a5,a5,a2
800032ec:	fefeae23          	sw	a5,-4(t4) # fffc <__stack_size+0xf7fc>
800032f0:	bf65                	j	800032a8 <__mdiff+0x10e>
800032f2:	187d                	addi	a6,a6,-1
800032f4:	b7f1                	j	800032c0 <__mdiff+0x126>

800032f6 <__d2b>:
__d2b():
800032f6:	7179                	addi	sp,sp,-48
800032f8:	d226                	sw	s1,36(sp)
800032fa:	84ae                	mv	s1,a1
800032fc:	4585                	li	a1,1
800032fe:	d422                	sw	s0,40(sp)
80003300:	d04a                	sw	s2,32(sp)
80003302:	ce4e                	sw	s3,28(sp)
80003304:	d606                	sw	ra,44(sp)
80003306:	cc52                	sw	s4,24(sp)
80003308:	8432                	mv	s0,a2
8000330a:	89b6                	mv	s3,a3
8000330c:	893a                	mv	s2,a4
8000330e:	859ff0ef          	jal	ra,80002b66 <_Balloc>
80003312:	ed09                	bnez	a0,8000332c <__d2b+0x36>
80003314:	00002697          	auipc	a3,0x2
80003318:	6d068693          	addi	a3,a3,1744 # 800059e4 <__clz_tab+0x210>
8000331c:	4601                	li	a2,0
8000331e:	30a00593          	li	a1,778
80003322:	00002517          	auipc	a0,0x2
80003326:	73650513          	addi	a0,a0,1846 # 80005a58 <__sf_fake_stdout+0x20>
8000332a:	2d9d                	jal	800039a0 <__assert_func>
8000332c:	00100737          	lui	a4,0x100
80003330:	fff70793          	addi	a5,a4,-1 # fffff <__stack_size+0xff7ff>
80003334:	8fe1                	and	a5,a5,s0
80003336:	8051                	srli	s0,s0,0x14
80003338:	7ff47413          	andi	s0,s0,2047
8000333c:	8a2a                	mv	s4,a0
8000333e:	e035                	bnez	s0,800033a2 <__d2b+0xac>
80003340:	c63e                	sw	a5,12(sp)
80003342:	c4ad                	beqz	s1,800033ac <__d2b+0xb6>
80003344:	0028                	addi	a0,sp,8
80003346:	c426                	sw	s1,8(sp)
80003348:	a2bff0ef          	jal	ra,80002d72 <__lo0bits>
8000334c:	46a2                	lw	a3,8(sp)
8000334e:	cd21                	beqz	a0,800033a6 <__d2b+0xb0>
80003350:	4732                	lw	a4,12(sp)
80003352:	02000793          	li	a5,32
80003356:	8f89                	sub	a5,a5,a0
80003358:	00f717b3          	sll	a5,a4,a5
8000335c:	8fd5                	or	a5,a5,a3
8000335e:	00a75733          	srl	a4,a4,a0
80003362:	00fa2a23          	sw	a5,20(s4)
80003366:	c63a                	sw	a4,12(sp)
80003368:	44b2                	lw	s1,12(sp)
8000336a:	009a2c23          	sw	s1,24(s4)
8000336e:	009034b3          	snez	s1,s1
80003372:	0485                	addi	s1,s1,1
80003374:	009a2823          	sw	s1,16(s4)
80003378:	c439                	beqz	s0,800033c6 <__d2b+0xd0>
8000337a:	bcd40413          	addi	s0,s0,-1075
8000337e:	942a                	add	s0,s0,a0
80003380:	03500793          	li	a5,53
80003384:	0089a023          	sw	s0,0(s3)
80003388:	40a78533          	sub	a0,a5,a0
8000338c:	00a92023          	sw	a0,0(s2)
80003390:	50b2                	lw	ra,44(sp)
80003392:	5422                	lw	s0,40(sp)
80003394:	5492                	lw	s1,36(sp)
80003396:	5902                	lw	s2,32(sp)
80003398:	49f2                	lw	s3,28(sp)
8000339a:	8552                	mv	a0,s4
8000339c:	4a62                	lw	s4,24(sp)
8000339e:	6145                	addi	sp,sp,48
800033a0:	8082                	ret
800033a2:	8fd9                	or	a5,a5,a4
800033a4:	bf71                	j	80003340 <__d2b+0x4a>
800033a6:	00da2a23          	sw	a3,20(s4)
800033aa:	bf7d                	j	80003368 <__d2b+0x72>
800033ac:	0068                	addi	a0,sp,12
800033ae:	9c5ff0ef          	jal	ra,80002d72 <__lo0bits>
800033b2:	47b2                	lw	a5,12(sp)
800033b4:	02050513          	addi	a0,a0,32
800033b8:	4485                	li	s1,1
800033ba:	00fa2a23          	sw	a5,20(s4)
800033be:	4785                	li	a5,1
800033c0:	00fa2823          	sw	a5,16(s4)
800033c4:	bf55                	j	80003378 <__d2b+0x82>
800033c6:	bce50793          	addi	a5,a0,-1074
800033ca:	00f9a023          	sw	a5,0(s3)
800033ce:	00249793          	slli	a5,s1,0x2
800033d2:	97d2                	add	a5,a5,s4
800033d4:	4b88                	lw	a0,16(a5)
800033d6:	0496                	slli	s1,s1,0x5
800033d8:	955ff0ef          	jal	ra,80002d2c <__hi0bits>
800033dc:	8c89                	sub	s1,s1,a0
800033de:	00992023          	sw	s1,0(s2)
800033e2:	b77d                	j	80003390 <__d2b+0x9a>

800033e4 <_calloc_r>:
_calloc_r():
800033e4:	8732                	mv	a4,a2
800033e6:	02e5b7b3          	mulhu	a5,a1,a4
800033ea:	1101                	addi	sp,sp,-32
800033ec:	ce06                	sw	ra,28(sp)
800033ee:	cc22                	sw	s0,24(sp)
800033f0:	02c58633          	mul	a2,a1,a2
800033f4:	cb89                	beqz	a5,80003406 <_calloc_r+0x22>
800033f6:	47b1                	li	a5,12
800033f8:	c11c                	sw	a5,0(a0)
800033fa:	4401                	li	s0,0
800033fc:	40f2                	lw	ra,28(sp)
800033fe:	8522                	mv	a0,s0
80003400:	4462                	lw	s0,24(sp)
80003402:	6105                	addi	sp,sp,32
80003404:	8082                	ret
80003406:	85b2                	mv	a1,a2
80003408:	c632                	sw	a2,12(sp)
8000340a:	207d                	jal	800034b8 <_malloc_r>
8000340c:	842a                	mv	s0,a0
8000340e:	d57d                	beqz	a0,800033fc <_calloc_r+0x18>
80003410:	4632                	lw	a2,12(sp)
80003412:	4581                	li	a1,0
80003414:	eaaff0ef          	jal	ra,80002abe <memset>
80003418:	b7d5                	j	800033fc <_calloc_r+0x18>

8000341a <_free_r>:
_free_r():
8000341a:	cdd1                	beqz	a1,800034b6 <_free_r+0x9c>
8000341c:	ffc5a783          	lw	a5,-4(a1)
80003420:	1101                	addi	sp,sp,-32
80003422:	cc22                	sw	s0,24(sp)
80003424:	ce06                	sw	ra,28(sp)
80003426:	ffc58413          	addi	s0,a1,-4
8000342a:	0007d363          	bgez	a5,80003430 <_free_r+0x16>
8000342e:	943e                	add	s0,s0,a5
80003430:	c62a                	sw	a0,12(sp)
80003432:	2d4d                	jal	80003ae4 <__malloc_lock>
80003434:	86c18713          	addi	a4,gp,-1940 # 9000023c <__malloc_free_list>
80003438:	431c                	lw	a5,0(a4)
8000343a:	4532                	lw	a0,12(sp)
8000343c:	eb81                	bnez	a5,8000344c <_free_r+0x32>
8000343e:	00042223          	sw	zero,4(s0)
80003442:	c300                	sw	s0,0(a4)
80003444:	4462                	lw	s0,24(sp)
80003446:	40f2                	lw	ra,28(sp)
80003448:	6105                	addi	sp,sp,32
8000344a:	ad71                	j	80003ae6 <__malloc_unlock>
8000344c:	00f47d63          	bgeu	s0,a5,80003466 <_free_r+0x4c>
80003450:	4010                	lw	a2,0(s0)
80003452:	00c406b3          	add	a3,s0,a2
80003456:	00d79663          	bne	a5,a3,80003462 <_free_r+0x48>
8000345a:	4394                	lw	a3,0(a5)
8000345c:	43dc                	lw	a5,4(a5)
8000345e:	96b2                	add	a3,a3,a2
80003460:	c014                	sw	a3,0(s0)
80003462:	c05c                	sw	a5,4(s0)
80003464:	bff9                	j	80003442 <_free_r+0x28>
80003466:	873e                	mv	a4,a5
80003468:	43dc                	lw	a5,4(a5)
8000346a:	c399                	beqz	a5,80003470 <_free_r+0x56>
8000346c:	fef47de3          	bgeu	s0,a5,80003466 <_free_r+0x4c>
80003470:	4314                	lw	a3,0(a4)
80003472:	00d70633          	add	a2,a4,a3
80003476:	00861f63          	bne	a2,s0,80003494 <_free_r+0x7a>
8000347a:	4010                	lw	a2,0(s0)
8000347c:	96b2                	add	a3,a3,a2
8000347e:	c314                	sw	a3,0(a4)
80003480:	00d70633          	add	a2,a4,a3
80003484:	fcc790e3          	bne	a5,a2,80003444 <_free_r+0x2a>
80003488:	4390                	lw	a2,0(a5)
8000348a:	43dc                	lw	a5,4(a5)
8000348c:	96b2                	add	a3,a3,a2
8000348e:	c314                	sw	a3,0(a4)
80003490:	c35c                	sw	a5,4(a4)
80003492:	bf4d                	j	80003444 <_free_r+0x2a>
80003494:	00c47563          	bgeu	s0,a2,8000349e <_free_r+0x84>
80003498:	47b1                	li	a5,12
8000349a:	c11c                	sw	a5,0(a0)
8000349c:	b765                	j	80003444 <_free_r+0x2a>
8000349e:	4010                	lw	a2,0(s0)
800034a0:	00c406b3          	add	a3,s0,a2
800034a4:	00d79663          	bne	a5,a3,800034b0 <_free_r+0x96>
800034a8:	4394                	lw	a3,0(a5)
800034aa:	43dc                	lw	a5,4(a5)
800034ac:	96b2                	add	a3,a3,a2
800034ae:	c014                	sw	a3,0(s0)
800034b0:	c05c                	sw	a5,4(s0)
800034b2:	c340                	sw	s0,4(a4)
800034b4:	bf41                	j	80003444 <_free_r+0x2a>
800034b6:	8082                	ret

800034b8 <_malloc_r>:
_malloc_r():
800034b8:	1101                	addi	sp,sp,-32
800034ba:	ca26                	sw	s1,20(sp)
800034bc:	00358493          	addi	s1,a1,3
800034c0:	98f1                	andi	s1,s1,-4
800034c2:	c84a                	sw	s2,16(sp)
800034c4:	ce06                	sw	ra,28(sp)
800034c6:	cc22                	sw	s0,24(sp)
800034c8:	c64e                	sw	s3,12(sp)
800034ca:	04a1                	addi	s1,s1,8
800034cc:	47b1                	li	a5,12
800034ce:	892a                	mv	s2,a0
800034d0:	04f4f063          	bgeu	s1,a5,80003510 <_malloc_r+0x58>
800034d4:	44b1                	li	s1,12
800034d6:	02b4ef63          	bltu	s1,a1,80003514 <_malloc_r+0x5c>
800034da:	854a                	mv	a0,s2
800034dc:	2521                	jal	80003ae4 <__malloc_lock>
800034de:	86c18693          	addi	a3,gp,-1940 # 9000023c <__malloc_free_list>
800034e2:	4298                	lw	a4,0(a3)
800034e4:	843a                	mv	s0,a4
800034e6:	e031                	bnez	s0,8000352a <_malloc_r+0x72>
800034e8:	87018413          	addi	s0,gp,-1936 # 90000240 <__malloc_sbrk_start>
800034ec:	401c                	lw	a5,0(s0)
800034ee:	e789                	bnez	a5,800034f8 <_malloc_r+0x40>
800034f0:	4581                	li	a1,0
800034f2:	854a                	mv	a0,s2
800034f4:	2e79                	jal	80003892 <_sbrk_r>
800034f6:	c008                	sw	a0,0(s0)
800034f8:	85a6                	mv	a1,s1
800034fa:	854a                	mv	a0,s2
800034fc:	2e59                	jal	80003892 <_sbrk_r>
800034fe:	59fd                	li	s3,-1
80003500:	07351863          	bne	a0,s3,80003570 <_malloc_r+0xb8>
80003504:	47b1                	li	a5,12
80003506:	00f92023          	sw	a5,0(s2)
8000350a:	854a                	mv	a0,s2
8000350c:	2be9                	jal	80003ae6 <__malloc_unlock>
8000350e:	a031                	j	8000351a <_malloc_r+0x62>
80003510:	fc04d3e3          	bgez	s1,800034d6 <_malloc_r+0x1e>
80003514:	47b1                	li	a5,12
80003516:	00f92023          	sw	a5,0(s2)
8000351a:	4501                	li	a0,0
8000351c:	40f2                	lw	ra,28(sp)
8000351e:	4462                	lw	s0,24(sp)
80003520:	44d2                	lw	s1,20(sp)
80003522:	4942                	lw	s2,16(sp)
80003524:	49b2                	lw	s3,12(sp)
80003526:	6105                	addi	sp,sp,32
80003528:	8082                	ret
8000352a:	401c                	lw	a5,0(s0)
8000352c:	8f85                	sub	a5,a5,s1
8000352e:	0207ce63          	bltz	a5,8000356a <_malloc_r+0xb2>
80003532:	462d                	li	a2,11
80003534:	00f67663          	bgeu	a2,a5,80003540 <_malloc_r+0x88>
80003538:	c01c                	sw	a5,0(s0)
8000353a:	943e                	add	s0,s0,a5
8000353c:	c004                	sw	s1,0(s0)
8000353e:	a029                	j	80003548 <_malloc_r+0x90>
80003540:	405c                	lw	a5,4(s0)
80003542:	02871263          	bne	a4,s0,80003566 <_malloc_r+0xae>
80003546:	c29c                	sw	a5,0(a3)
80003548:	854a                	mv	a0,s2
8000354a:	2b71                	jal	80003ae6 <__malloc_unlock>
8000354c:	00b40513          	addi	a0,s0,11
80003550:	00440793          	addi	a5,s0,4
80003554:	9961                	andi	a0,a0,-8
80003556:	40f50733          	sub	a4,a0,a5
8000355a:	fcf501e3          	beq	a0,a5,8000351c <_malloc_r+0x64>
8000355e:	943a                	add	s0,s0,a4
80003560:	8f89                	sub	a5,a5,a0
80003562:	c01c                	sw	a5,0(s0)
80003564:	bf65                	j	8000351c <_malloc_r+0x64>
80003566:	c35c                	sw	a5,4(a4)
80003568:	b7c5                	j	80003548 <_malloc_r+0x90>
8000356a:	8722                	mv	a4,s0
8000356c:	4040                	lw	s0,4(s0)
8000356e:	bfa5                	j	800034e6 <_malloc_r+0x2e>
80003570:	00350413          	addi	s0,a0,3
80003574:	9871                	andi	s0,s0,-4
80003576:	fc8503e3          	beq	a0,s0,8000353c <_malloc_r+0x84>
8000357a:	40a405b3          	sub	a1,s0,a0
8000357e:	854a                	mv	a0,s2
80003580:	2e09                	jal	80003892 <_sbrk_r>
80003582:	fb351de3          	bne	a0,s3,8000353c <_malloc_r+0x84>
80003586:	bfbd                	j	80003504 <_malloc_r+0x4c>

80003588 <__sfputc_r>:
__sfputc_r():
80003588:	461c                	lw	a5,8(a2)
8000358a:	17fd                	addi	a5,a5,-1
8000358c:	c61c                	sw	a5,8(a2)
8000358e:	0007da63          	bgez	a5,800035a2 <__sfputc_r+0x1a>
80003592:	4e18                	lw	a4,24(a2)
80003594:	00e7c563          	blt	a5,a4,8000359e <__sfputc_r+0x16>
80003598:	47a9                	li	a5,10
8000359a:	00f59463          	bne	a1,a5,800035a2 <__sfputc_r+0x1a>
8000359e:	f81fd06f          	j	8000151e <__swbuf_r>
800035a2:	421c                	lw	a5,0(a2)
800035a4:	852e                	mv	a0,a1
800035a6:	00178713          	addi	a4,a5,1
800035aa:	c218                	sw	a4,0(a2)
800035ac:	00b78023          	sb	a1,0(a5)
800035b0:	8082                	ret

800035b2 <__sfputs_r>:
__sfputs_r():
800035b2:	1101                	addi	sp,sp,-32
800035b4:	cc22                	sw	s0,24(sp)
800035b6:	ca26                	sw	s1,20(sp)
800035b8:	c84a                	sw	s2,16(sp)
800035ba:	c64e                	sw	s3,12(sp)
800035bc:	c452                	sw	s4,8(sp)
800035be:	ce06                	sw	ra,28(sp)
800035c0:	892a                	mv	s2,a0
800035c2:	89ae                	mv	s3,a1
800035c4:	8432                	mv	s0,a2
800035c6:	00d604b3          	add	s1,a2,a3
800035ca:	5a7d                	li	s4,-1
800035cc:	00941463          	bne	s0,s1,800035d4 <__sfputs_r+0x22>
800035d0:	4501                	li	a0,0
800035d2:	a809                	j	800035e4 <__sfputs_r+0x32>
800035d4:	00044583          	lbu	a1,0(s0)
800035d8:	864e                	mv	a2,s3
800035da:	854a                	mv	a0,s2
800035dc:	3775                	jal	80003588 <__sfputc_r>
800035de:	0405                	addi	s0,s0,1
800035e0:	ff4516e3          	bne	a0,s4,800035cc <__sfputs_r+0x1a>
800035e4:	40f2                	lw	ra,28(sp)
800035e6:	4462                	lw	s0,24(sp)
800035e8:	44d2                	lw	s1,20(sp)
800035ea:	4942                	lw	s2,16(sp)
800035ec:	49b2                	lw	s3,12(sp)
800035ee:	4a22                	lw	s4,8(sp)
800035f0:	6105                	addi	sp,sp,32
800035f2:	8082                	ret

800035f4 <_vfiprintf_r>:
_vfiprintf_r():
800035f4:	7135                	addi	sp,sp,-160
800035f6:	cd22                	sw	s0,152(sp)
800035f8:	cb26                	sw	s1,148(sp)
800035fa:	c94a                	sw	s2,144(sp)
800035fc:	c74e                	sw	s3,140(sp)
800035fe:	cf06                	sw	ra,156(sp)
80003600:	c552                	sw	s4,136(sp)
80003602:	c356                	sw	s5,132(sp)
80003604:	c15a                	sw	s6,128(sp)
80003606:	dede                	sw	s7,124(sp)
80003608:	dce2                	sw	s8,120(sp)
8000360a:	dae6                	sw	s9,116(sp)
8000360c:	89aa                	mv	s3,a0
8000360e:	84ae                	mv	s1,a1
80003610:	8932                	mv	s2,a2
80003612:	8436                	mv	s0,a3
80003614:	c509                	beqz	a0,8000361e <_vfiprintf_r+0x2a>
80003616:	4d1c                	lw	a5,24(a0)
80003618:	e399                	bnez	a5,8000361e <_vfiprintf_r+0x2a>
8000361a:	932ff0ef          	jal	ra,8000274c <__sinit>
8000361e:	00002797          	auipc	a5,0x2
80003622:	3fa78793          	addi	a5,a5,1018 # 80005a18 <__sf_fake_stdin>
80003626:	0cf49c63          	bne	s1,a5,800036fe <_vfiprintf_r+0x10a>
8000362a:	0049a483          	lw	s1,4(s3)
8000362e:	00c4d783          	lhu	a5,12(s1)
80003632:	8ba1                	andi	a5,a5,8
80003634:	c7fd                	beqz	a5,80003722 <_vfiprintf_r+0x12e>
80003636:	489c                	lw	a5,16(s1)
80003638:	c7ed                	beqz	a5,80003722 <_vfiprintf_r+0x12e>
8000363a:	02000793          	li	a5,32
8000363e:	02f104a3          	sb	a5,41(sp)
80003642:	03000793          	li	a5,48
80003646:	d202                	sw	zero,36(sp)
80003648:	02f10523          	sb	a5,42(sp)
8000364c:	c622                	sw	s0,12(sp)
8000364e:	02500b93          	li	s7,37
80003652:	00002a97          	auipc	s5,0x2
80003656:	55aa8a93          	addi	s5,s5,1370 # 80005bac <p05.0+0xc>
8000365a:	4c05                	li	s8,1
8000365c:	4b29                	li	s6,10
8000365e:	844a                	mv	s0,s2
80003660:	00044783          	lbu	a5,0(s0)
80003664:	c399                	beqz	a5,8000366a <_vfiprintf_r+0x76>
80003666:	0f779163          	bne	a5,s7,80003748 <_vfiprintf_r+0x154>
8000366a:	41240cb3          	sub	s9,s0,s2
8000366e:	01240d63          	beq	s0,s2,80003688 <_vfiprintf_r+0x94>
80003672:	86e6                	mv	a3,s9
80003674:	864a                	mv	a2,s2
80003676:	85a6                	mv	a1,s1
80003678:	854e                	mv	a0,s3
8000367a:	3f25                	jal	800035b2 <__sfputs_r>
8000367c:	57fd                	li	a5,-1
8000367e:	1ef50763          	beq	a0,a5,8000386c <_vfiprintf_r+0x278>
80003682:	5792                	lw	a5,36(sp)
80003684:	97e6                	add	a5,a5,s9
80003686:	d23e                	sw	a5,36(sp)
80003688:	00044783          	lbu	a5,0(s0)
8000368c:	1e078063          	beqz	a5,8000386c <_vfiprintf_r+0x278>
80003690:	57fd                	li	a5,-1
80003692:	00140913          	addi	s2,s0,1
80003696:	c802                	sw	zero,16(sp)
80003698:	ce02                	sw	zero,28(sp)
8000369a:	ca3e                	sw	a5,20(sp)
8000369c:	cc02                	sw	zero,24(sp)
8000369e:	040109a3          	sb	zero,83(sp)
800036a2:	d482                	sw	zero,104(sp)
800036a4:	00094583          	lbu	a1,0(s2)
800036a8:	4615                	li	a2,5
800036aa:	8556                	mv	a0,s5
800036ac:	b1cff0ef          	jal	ra,800029c8 <memchr>
800036b0:	47c2                	lw	a5,16(sp)
800036b2:	00190413          	addi	s0,s2,1
800036b6:	e959                	bnez	a0,8000374c <_vfiprintf_r+0x158>
800036b8:	0107f713          	andi	a4,a5,16
800036bc:	c709                	beqz	a4,800036c6 <_vfiprintf_r+0xd2>
800036be:	02000713          	li	a4,32
800036c2:	04e109a3          	sb	a4,83(sp)
800036c6:	0087f713          	andi	a4,a5,8
800036ca:	c709                	beqz	a4,800036d4 <_vfiprintf_r+0xe0>
800036cc:	02b00713          	li	a4,43
800036d0:	04e109a3          	sb	a4,83(sp)
800036d4:	00094683          	lbu	a3,0(s2)
800036d8:	02a00713          	li	a4,42
800036dc:	08e68063          	beq	a3,a4,8000375c <_vfiprintf_r+0x168>
800036e0:	47f2                	lw	a5,28(sp)
800036e2:	844a                	mv	s0,s2
800036e4:	4681                	li	a3,0
800036e6:	4625                	li	a2,9
800036e8:	00044703          	lbu	a4,0(s0)
800036ec:	00140593          	addi	a1,s0,1
800036f0:	fd070713          	addi	a4,a4,-48
800036f4:	0ae67963          	bgeu	a2,a4,800037a6 <_vfiprintf_r+0x1b2>
800036f8:	cab5                	beqz	a3,8000376c <_vfiprintf_r+0x178>
800036fa:	ce3e                	sw	a5,28(sp)
800036fc:	a885                	j	8000376c <_vfiprintf_r+0x178>
800036fe:	00002797          	auipc	a5,0x2
80003702:	33a78793          	addi	a5,a5,826 # 80005a38 <__sf_fake_stdout>
80003706:	00f49563          	bne	s1,a5,80003710 <_vfiprintf_r+0x11c>
8000370a:	0089a483          	lw	s1,8(s3)
8000370e:	b705                	j	8000362e <_vfiprintf_r+0x3a>
80003710:	00002797          	auipc	a5,0x2
80003714:	2e878793          	addi	a5,a5,744 # 800059f8 <__sf_fake_stderr>
80003718:	f0f49be3          	bne	s1,a5,8000362e <_vfiprintf_r+0x3a>
8000371c:	00c9a483          	lw	s1,12(s3)
80003720:	b739                	j	8000362e <_vfiprintf_r+0x3a>
80003722:	85a6                	mv	a1,s1
80003724:	854e                	mv	a0,s3
80003726:	ebffd0ef          	jal	ra,800015e4 <__swsetup_r>
8000372a:	d901                	beqz	a0,8000363a <_vfiprintf_r+0x46>
8000372c:	557d                	li	a0,-1
8000372e:	40fa                	lw	ra,156(sp)
80003730:	446a                	lw	s0,152(sp)
80003732:	44da                	lw	s1,148(sp)
80003734:	494a                	lw	s2,144(sp)
80003736:	49ba                	lw	s3,140(sp)
80003738:	4a2a                	lw	s4,136(sp)
8000373a:	4a9a                	lw	s5,132(sp)
8000373c:	4b0a                	lw	s6,128(sp)
8000373e:	5bf6                	lw	s7,124(sp)
80003740:	5c66                	lw	s8,120(sp)
80003742:	5cd6                	lw	s9,116(sp)
80003744:	610d                	addi	sp,sp,160
80003746:	8082                	ret
80003748:	0405                	addi	s0,s0,1
8000374a:	bf19                	j	80003660 <_vfiprintf_r+0x6c>
8000374c:	41550533          	sub	a0,a0,s5
80003750:	00ac1533          	sll	a0,s8,a0
80003754:	8fc9                	or	a5,a5,a0
80003756:	c83e                	sw	a5,16(sp)
80003758:	8922                	mv	s2,s0
8000375a:	b7a9                	j	800036a4 <_vfiprintf_r+0xb0>
8000375c:	4732                	lw	a4,12(sp)
8000375e:	00470693          	addi	a3,a4,4
80003762:	4318                	lw	a4,0(a4)
80003764:	c636                	sw	a3,12(sp)
80003766:	02074963          	bltz	a4,80003798 <_vfiprintf_r+0x1a4>
8000376a:	ce3a                	sw	a4,28(sp)
8000376c:	00044703          	lbu	a4,0(s0)
80003770:	02e00793          	li	a5,46
80003774:	04f71f63          	bne	a4,a5,800037d2 <_vfiprintf_r+0x1de>
80003778:	00144703          	lbu	a4,1(s0)
8000377c:	02a00793          	li	a5,42
80003780:	02f71b63          	bne	a4,a5,800037b6 <_vfiprintf_r+0x1c2>
80003784:	47b2                	lw	a5,12(sp)
80003786:	0409                	addi	s0,s0,2
80003788:	00478713          	addi	a4,a5,4
8000378c:	439c                	lw	a5,0(a5)
8000378e:	c63a                	sw	a4,12(sp)
80003790:	0207c163          	bltz	a5,800037b2 <_vfiprintf_r+0x1be>
80003794:	ca3e                	sw	a5,20(sp)
80003796:	a835                	j	800037d2 <_vfiprintf_r+0x1de>
80003798:	40e00733          	neg	a4,a4
8000379c:	0027e793          	ori	a5,a5,2
800037a0:	ce3a                	sw	a4,28(sp)
800037a2:	c83e                	sw	a5,16(sp)
800037a4:	b7e1                	j	8000376c <_vfiprintf_r+0x178>
800037a6:	036787b3          	mul	a5,a5,s6
800037aa:	842e                	mv	s0,a1
800037ac:	4685                	li	a3,1
800037ae:	97ba                	add	a5,a5,a4
800037b0:	bf25                	j	800036e8 <_vfiprintf_r+0xf4>
800037b2:	57fd                	li	a5,-1
800037b4:	b7c5                	j	80003794 <_vfiprintf_r+0x1a0>
800037b6:	0405                	addi	s0,s0,1
800037b8:	ca02                	sw	zero,20(sp)
800037ba:	4681                	li	a3,0
800037bc:	4781                	li	a5,0
800037be:	4625                	li	a2,9
800037c0:	00044703          	lbu	a4,0(s0)
800037c4:	00140593          	addi	a1,s0,1
800037c8:	fd070713          	addi	a4,a4,-48
800037cc:	06e67863          	bgeu	a2,a4,8000383c <_vfiprintf_r+0x248>
800037d0:	f2f1                	bnez	a3,80003794 <_vfiprintf_r+0x1a0>
800037d2:	00044583          	lbu	a1,0(s0)
800037d6:	460d                	li	a2,3
800037d8:	00002517          	auipc	a0,0x2
800037dc:	3dc50513          	addi	a0,a0,988 # 80005bb4 <p05.0+0x14>
800037e0:	9e8ff0ef          	jal	ra,800029c8 <memchr>
800037e4:	cd11                	beqz	a0,80003800 <_vfiprintf_r+0x20c>
800037e6:	00002797          	auipc	a5,0x2
800037ea:	3ce78793          	addi	a5,a5,974 # 80005bb4 <p05.0+0x14>
800037ee:	8d1d                	sub	a0,a0,a5
800037f0:	04000793          	li	a5,64
800037f4:	00a797b3          	sll	a5,a5,a0
800037f8:	4542                	lw	a0,16(sp)
800037fa:	0405                	addi	s0,s0,1
800037fc:	8d5d                	or	a0,a0,a5
800037fe:	c82a                	sw	a0,16(sp)
80003800:	00044583          	lbu	a1,0(s0)
80003804:	4619                	li	a2,6
80003806:	00002517          	auipc	a0,0x2
8000380a:	3b250513          	addi	a0,a0,946 # 80005bb8 <p05.0+0x18>
8000380e:	00140913          	addi	s2,s0,1
80003812:	02b10423          	sb	a1,40(sp)
80003816:	9b2ff0ef          	jal	ra,800029c8 <memchr>
8000381a:	c12d                	beqz	a0,8000387c <_vfiprintf_r+0x288>
8000381c:	ffffd797          	auipc	a5,0xffffd
80003820:	37078793          	addi	a5,a5,880 # 80000b8c <_printf_float>
80003824:	e795                	bnez	a5,80003850 <_vfiprintf_r+0x25c>
80003826:	4742                	lw	a4,16(sp)
80003828:	47b2                	lw	a5,12(sp)
8000382a:	10077713          	andi	a4,a4,256
8000382e:	cf09                	beqz	a4,80003848 <_vfiprintf_r+0x254>
80003830:	0791                	addi	a5,a5,4
80003832:	c63e                	sw	a5,12(sp)
80003834:	5792                	lw	a5,36(sp)
80003836:	97d2                	add	a5,a5,s4
80003838:	d23e                	sw	a5,36(sp)
8000383a:	b515                	j	8000365e <_vfiprintf_r+0x6a>
8000383c:	036787b3          	mul	a5,a5,s6
80003840:	842e                	mv	s0,a1
80003842:	4685                	li	a3,1
80003844:	97ba                	add	a5,a5,a4
80003846:	bfad                	j	800037c0 <_vfiprintf_r+0x1cc>
80003848:	079d                	addi	a5,a5,7
8000384a:	9be1                	andi	a5,a5,-8
8000384c:	07a1                	addi	a5,a5,8
8000384e:	b7d5                	j	80003832 <_vfiprintf_r+0x23e>
80003850:	0078                	addi	a4,sp,12
80003852:	00000697          	auipc	a3,0x0
80003856:	d6068693          	addi	a3,a3,-672 # 800035b2 <__sfputs_r>
8000385a:	8626                	mv	a2,s1
8000385c:	080c                	addi	a1,sp,16
8000385e:	854e                	mv	a0,s3
80003860:	b2cfd0ef          	jal	ra,80000b8c <_printf_float>
80003864:	57fd                	li	a5,-1
80003866:	8a2a                	mv	s4,a0
80003868:	fcf516e3          	bne	a0,a5,80003834 <_vfiprintf_r+0x240>
8000386c:	00c4d783          	lhu	a5,12(s1)
80003870:	0407f793          	andi	a5,a5,64
80003874:	ea079ce3          	bnez	a5,8000372c <_vfiprintf_r+0x138>
80003878:	5512                	lw	a0,36(sp)
8000387a:	bd55                	j	8000372e <_vfiprintf_r+0x13a>
8000387c:	0078                	addi	a4,sp,12
8000387e:	00000697          	auipc	a3,0x0
80003882:	d3468693          	addi	a3,a3,-716 # 800035b2 <__sfputs_r>
80003886:	8626                	mv	a2,s1
80003888:	080c                	addi	a1,sp,16
8000388a:	854e                	mv	a0,s3
8000388c:	8e1fd0ef          	jal	ra,8000116c <_printf_i>
80003890:	bfd1                	j	80003864 <_vfiprintf_r+0x270>

80003892 <_sbrk_r>:
_sbrk_r():
80003892:	1141                	addi	sp,sp,-16
80003894:	c422                	sw	s0,8(sp)
80003896:	842a                	mv	s0,a0
80003898:	852e                	mv	a0,a1
8000389a:	8601a223          	sw	zero,-1948(gp) # 90000234 <errno>
8000389e:	c606                	sw	ra,12(sp)
800038a0:	8f9fc0ef          	jal	ra,80000198 <_sbrk>
800038a4:	57fd                	li	a5,-1
800038a6:	00f51663          	bne	a0,a5,800038b2 <_sbrk_r+0x20>
800038aa:	8641a783          	lw	a5,-1948(gp) # 90000234 <errno>
800038ae:	c391                	beqz	a5,800038b2 <_sbrk_r+0x20>
800038b0:	c01c                	sw	a5,0(s0)
800038b2:	40b2                	lw	ra,12(sp)
800038b4:	4422                	lw	s0,8(sp)
800038b6:	0141                	addi	sp,sp,16
800038b8:	8082                	ret

800038ba <__sread>:
__sread():
800038ba:	1141                	addi	sp,sp,-16
800038bc:	c422                	sw	s0,8(sp)
800038be:	842e                	mv	s0,a1
800038c0:	00e59583          	lh	a1,14(a1)
800038c4:	c606                	sw	ra,12(sp)
800038c6:	240d                	jal	80003ae8 <_read_r>
800038c8:	00054963          	bltz	a0,800038da <__sread+0x20>
800038cc:	487c                	lw	a5,84(s0)
800038ce:	97aa                	add	a5,a5,a0
800038d0:	c87c                	sw	a5,84(s0)
800038d2:	40b2                	lw	ra,12(sp)
800038d4:	4422                	lw	s0,8(sp)
800038d6:	0141                	addi	sp,sp,16
800038d8:	8082                	ret
800038da:	00c45783          	lhu	a5,12(s0)
800038de:	777d                	lui	a4,0xfffff
800038e0:	177d                	addi	a4,a4,-1
800038e2:	8ff9                	and	a5,a5,a4
800038e4:	00f41623          	sh	a5,12(s0)
800038e8:	b7ed                	j	800038d2 <__sread+0x18>

800038ea <__swrite>:
__swrite():
800038ea:	00c5d783          	lhu	a5,12(a1)
800038ee:	1101                	addi	sp,sp,-32
800038f0:	cc22                	sw	s0,24(sp)
800038f2:	ca26                	sw	s1,20(sp)
800038f4:	c84a                	sw	s2,16(sp)
800038f6:	c64e                	sw	s3,12(sp)
800038f8:	ce06                	sw	ra,28(sp)
800038fa:	1007f793          	andi	a5,a5,256
800038fe:	84aa                	mv	s1,a0
80003900:	842e                	mv	s0,a1
80003902:	8932                	mv	s2,a2
80003904:	89b6                	mv	s3,a3
80003906:	c791                	beqz	a5,80003912 <__swrite+0x28>
80003908:	00e59583          	lh	a1,14(a1)
8000390c:	4689                	li	a3,2
8000390e:	4601                	li	a2,0
80003910:	22bd                	jal	80003a7e <_lseek_r>
80003912:	00c45783          	lhu	a5,12(s0)
80003916:	777d                	lui	a4,0xfffff
80003918:	177d                	addi	a4,a4,-1
8000391a:	8ff9                	and	a5,a5,a4
8000391c:	00e41583          	lh	a1,14(s0)
80003920:	00f41623          	sh	a5,12(s0)
80003924:	4462                	lw	s0,24(sp)
80003926:	40f2                	lw	ra,28(sp)
80003928:	86ce                	mv	a3,s3
8000392a:	864a                	mv	a2,s2
8000392c:	49b2                	lw	s3,12(sp)
8000392e:	4942                	lw	s2,16(sp)
80003930:	8526                	mv	a0,s1
80003932:	44d2                	lw	s1,20(sp)
80003934:	6105                	addi	sp,sp,32
80003936:	a83d                	j	80003974 <_write_r>

80003938 <__sseek>:
__sseek():
80003938:	1141                	addi	sp,sp,-16
8000393a:	c422                	sw	s0,8(sp)
8000393c:	842e                	mv	s0,a1
8000393e:	00e59583          	lh	a1,14(a1)
80003942:	c606                	sw	ra,12(sp)
80003944:	2a2d                	jal	80003a7e <_lseek_r>
80003946:	57fd                	li	a5,-1
80003948:	00c45703          	lhu	a4,12(s0)
8000394c:	00f51b63          	bne	a0,a5,80003962 <__sseek+0x2a>
80003950:	77fd                	lui	a5,0xfffff
80003952:	17fd                	addi	a5,a5,-1
80003954:	8ff9                	and	a5,a5,a4
80003956:	00f41623          	sh	a5,12(s0)
8000395a:	40b2                	lw	ra,12(sp)
8000395c:	4422                	lw	s0,8(sp)
8000395e:	0141                	addi	sp,sp,16
80003960:	8082                	ret
80003962:	6785                	lui	a5,0x1
80003964:	8fd9                	or	a5,a5,a4
80003966:	00f41623          	sh	a5,12(s0)
8000396a:	c868                	sw	a0,84(s0)
8000396c:	b7fd                	j	8000395a <__sseek+0x22>

8000396e <__sclose>:
__sclose():
8000396e:	00e59583          	lh	a1,14(a1)
80003972:	a0a5                	j	800039da <_close_r>

80003974 <_write_r>:
_write_r():
80003974:	1141                	addi	sp,sp,-16
80003976:	c422                	sw	s0,8(sp)
80003978:	842a                	mv	s0,a0
8000397a:	852e                	mv	a0,a1
8000397c:	85b2                	mv	a1,a2
8000397e:	8636                	mv	a2,a3
80003980:	8601a223          	sw	zero,-1948(gp) # 90000234 <errno>
80003984:	c606                	sw	ra,12(sp)
80003986:	83ffc0ef          	jal	ra,800001c4 <_write>
8000398a:	57fd                	li	a5,-1
8000398c:	00f51663          	bne	a0,a5,80003998 <_write_r+0x24>
80003990:	8641a783          	lw	a5,-1948(gp) # 90000234 <errno>
80003994:	c391                	beqz	a5,80003998 <_write_r+0x24>
80003996:	c01c                	sw	a5,0(s0)
80003998:	40b2                	lw	ra,12(sp)
8000399a:	4422                	lw	s0,8(sp)
8000399c:	0141                	addi	sp,sp,16
8000399e:	8082                	ret

800039a0 <__assert_func>:
__assert_func():
800039a0:	1141                	addi	sp,sp,-16
800039a2:	0fffd797          	auipc	a5,0xfffd
800039a6:	8367a783          	lw	a5,-1994(a5) # 900001d8 <_impure_ptr>
800039aa:	8832                	mv	a6,a2
800039ac:	c606                	sw	ra,12(sp)
800039ae:	88aa                	mv	a7,a0
800039b0:	872e                	mv	a4,a1
800039b2:	47c8                	lw	a0,12(a5)
800039b4:	8636                	mv	a2,a3
800039b6:	00002797          	auipc	a5,0x2
800039ba:	20a78793          	addi	a5,a5,522 # 80005bc0 <p05.0+0x20>
800039be:	00081763          	bnez	a6,800039cc <__assert_func+0x2c>
800039c2:	00002797          	auipc	a5,0x2
800039c6:	dda78793          	addi	a5,a5,-550 # 8000579c <__clzsi2+0xd6>
800039ca:	883e                	mv	a6,a5
800039cc:	86c6                	mv	a3,a7
800039ce:	00002597          	auipc	a1,0x2
800039d2:	20258593          	addi	a1,a1,514 # 80005bd0 <p05.0+0x30>
800039d6:	2035                	jal	80003a02 <fiprintf>
800039d8:	2ab1                	jal	80003b34 <abort>

800039da <_close_r>:
_close_r():
800039da:	1141                	addi	sp,sp,-16
800039dc:	c422                	sw	s0,8(sp)
800039de:	842a                	mv	s0,a0
800039e0:	852e                	mv	a0,a1
800039e2:	8601a223          	sw	zero,-1948(gp) # 90000234 <errno>
800039e6:	c606                	sw	ra,12(sp)
800039e8:	f4efc0ef          	jal	ra,80000136 <_close>
800039ec:	57fd                	li	a5,-1
800039ee:	00f51663          	bne	a0,a5,800039fa <_close_r+0x20>
800039f2:	8641a783          	lw	a5,-1948(gp) # 90000234 <errno>
800039f6:	c391                	beqz	a5,800039fa <_close_r+0x20>
800039f8:	c01c                	sw	a5,0(s0)
800039fa:	40b2                	lw	ra,12(sp)
800039fc:	4422                	lw	s0,8(sp)
800039fe:	0141                	addi	sp,sp,16
80003a00:	8082                	ret

80003a02 <fiprintf>:
fprintf():
80003a02:	7139                	addi	sp,sp,-64
80003a04:	d432                	sw	a2,40(sp)
80003a06:	d636                	sw	a3,44(sp)
80003a08:	862e                	mv	a2,a1
80003a0a:	1034                	addi	a3,sp,40
80003a0c:	85aa                	mv	a1,a0
80003a0e:	0fffc517          	auipc	a0,0xfffc
80003a12:	7ca52503          	lw	a0,1994(a0) # 900001d8 <_impure_ptr>
80003a16:	ce06                	sw	ra,28(sp)
80003a18:	d83a                	sw	a4,48(sp)
80003a1a:	da3e                	sw	a5,52(sp)
80003a1c:	dc42                	sw	a6,56(sp)
80003a1e:	de46                	sw	a7,60(sp)
80003a20:	c636                	sw	a3,12(sp)
80003a22:	bd3ff0ef          	jal	ra,800035f4 <_vfiprintf_r>
80003a26:	40f2                	lw	ra,28(sp)
80003a28:	6121                	addi	sp,sp,64
80003a2a:	8082                	ret

80003a2c <_fstat_r>:
_fstat_r():
80003a2c:	1141                	addi	sp,sp,-16
80003a2e:	c422                	sw	s0,8(sp)
80003a30:	842a                	mv	s0,a0
80003a32:	852e                	mv	a0,a1
80003a34:	85b2                	mv	a1,a2
80003a36:	8601a223          	sw	zero,-1948(gp) # 90000234 <errno>
80003a3a:	c606                	sw	ra,12(sp)
80003a3c:	f0afc0ef          	jal	ra,80000146 <_fstat>
80003a40:	57fd                	li	a5,-1
80003a42:	00f51663          	bne	a0,a5,80003a4e <_fstat_r+0x22>
80003a46:	8641a783          	lw	a5,-1948(gp) # 90000234 <errno>
80003a4a:	c391                	beqz	a5,80003a4e <_fstat_r+0x22>
80003a4c:	c01c                	sw	a5,0(s0)
80003a4e:	40b2                	lw	ra,12(sp)
80003a50:	4422                	lw	s0,8(sp)
80003a52:	0141                	addi	sp,sp,16
80003a54:	8082                	ret

80003a56 <_isatty_r>:
_isatty_r():
80003a56:	1141                	addi	sp,sp,-16
80003a58:	c422                	sw	s0,8(sp)
80003a5a:	842a                	mv	s0,a0
80003a5c:	852e                	mv	a0,a1
80003a5e:	8601a223          	sw	zero,-1948(gp) # 90000234 <errno>
80003a62:	c606                	sw	ra,12(sp)
80003a64:	f00fc0ef          	jal	ra,80000164 <_isatty>
80003a68:	57fd                	li	a5,-1
80003a6a:	00f51663          	bne	a0,a5,80003a76 <_isatty_r+0x20>
80003a6e:	8641a783          	lw	a5,-1948(gp) # 90000234 <errno>
80003a72:	c391                	beqz	a5,80003a76 <_isatty_r+0x20>
80003a74:	c01c                	sw	a5,0(s0)
80003a76:	40b2                	lw	ra,12(sp)
80003a78:	4422                	lw	s0,8(sp)
80003a7a:	0141                	addi	sp,sp,16
80003a7c:	8082                	ret

80003a7e <_lseek_r>:
_lseek_r():
80003a7e:	1141                	addi	sp,sp,-16
80003a80:	c422                	sw	s0,8(sp)
80003a82:	842a                	mv	s0,a0
80003a84:	852e                	mv	a0,a1
80003a86:	85b2                	mv	a1,a2
80003a88:	8636                	mv	a2,a3
80003a8a:	8601a223          	sw	zero,-1948(gp) # 90000234 <errno>
80003a8e:	c606                	sw	ra,12(sp)
80003a90:	ee2fc0ef          	jal	ra,80000172 <_lseek>
80003a94:	57fd                	li	a5,-1
80003a96:	00f51663          	bne	a0,a5,80003aa2 <_lseek_r+0x24>
80003a9a:	8641a783          	lw	a5,-1948(gp) # 90000234 <errno>
80003a9e:	c391                	beqz	a5,80003aa2 <_lseek_r+0x24>
80003aa0:	c01c                	sw	a5,0(s0)
80003aa2:	40b2                	lw	ra,12(sp)
80003aa4:	4422                	lw	s0,8(sp)
80003aa6:	0141                	addi	sp,sp,16
80003aa8:	8082                	ret

80003aaa <__ascii_mbtowc>:
__ascii_mbtowc():
80003aaa:	e185                	bnez	a1,80003aca <__ascii_mbtowc+0x20>
80003aac:	1141                	addi	sp,sp,-16
80003aae:	006c                	addi	a1,sp,12
80003ab0:	4501                	li	a0,0
80003ab2:	ca11                	beqz	a2,80003ac6 <__ascii_mbtowc+0x1c>
80003ab4:	5579                	li	a0,-2
80003ab6:	ca81                	beqz	a3,80003ac6 <__ascii_mbtowc+0x1c>
80003ab8:	00064783          	lbu	a5,0(a2)
80003abc:	c19c                	sw	a5,0(a1)
80003abe:	00064503          	lbu	a0,0(a2)
80003ac2:	00a03533          	snez	a0,a0
80003ac6:	0141                	addi	sp,sp,16
80003ac8:	8082                	ret
80003aca:	4501                	li	a0,0
80003acc:	ca19                	beqz	a2,80003ae2 <__ascii_mbtowc+0x38>
80003ace:	5579                	li	a0,-2
80003ad0:	ca89                	beqz	a3,80003ae2 <__ascii_mbtowc+0x38>
80003ad2:	00064783          	lbu	a5,0(a2)
80003ad6:	c19c                	sw	a5,0(a1)
80003ad8:	00064503          	lbu	a0,0(a2)
80003adc:	00a03533          	snez	a0,a0
80003ae0:	8082                	ret
80003ae2:	8082                	ret

80003ae4 <__malloc_lock>:
__malloc_lock():
80003ae4:	8082                	ret

80003ae6 <__malloc_unlock>:
__malloc_unlock():
80003ae6:	8082                	ret

80003ae8 <_read_r>:
_read_r():
80003ae8:	1141                	addi	sp,sp,-16
80003aea:	c422                	sw	s0,8(sp)
80003aec:	842a                	mv	s0,a0
80003aee:	852e                	mv	a0,a1
80003af0:	85b2                	mv	a1,a2
80003af2:	8636                	mv	a2,a3
80003af4:	8601a223          	sw	zero,-1948(gp) # 90000234 <errno>
80003af8:	c606                	sw	ra,12(sp)
80003afa:	e7cfc0ef          	jal	ra,80000176 <_read>
80003afe:	57fd                	li	a5,-1
80003b00:	00f51663          	bne	a0,a5,80003b0c <_read_r+0x24>
80003b04:	8641a783          	lw	a5,-1948(gp) # 90000234 <errno>
80003b08:	c391                	beqz	a5,80003b0c <_read_r+0x24>
80003b0a:	c01c                	sw	a5,0(s0)
80003b0c:	40b2                	lw	ra,12(sp)
80003b0e:	4422                	lw	s0,8(sp)
80003b10:	0141                	addi	sp,sp,16
80003b12:	8082                	ret

80003b14 <__ascii_wctomb>:
__ascii_wctomb():
80003b14:	cd91                	beqz	a1,80003b30 <__ascii_wctomb+0x1c>
80003b16:	0ff00793          	li	a5,255
80003b1a:	00c7f763          	bgeu	a5,a2,80003b28 <__ascii_wctomb+0x14>
80003b1e:	08a00793          	li	a5,138
80003b22:	c11c                	sw	a5,0(a0)
80003b24:	557d                	li	a0,-1
80003b26:	8082                	ret
80003b28:	00c58023          	sb	a2,0(a1)
80003b2c:	4505                	li	a0,1
80003b2e:	8082                	ret
80003b30:	4501                	li	a0,0
80003b32:	8082                	ret

80003b34 <abort>:
abort():
80003b34:	1141                	addi	sp,sp,-16
80003b36:	4519                	li	a0,6
80003b38:	c606                	sw	ra,12(sp)
80003b3a:	20ad                	jal	80003ba4 <raise>
80003b3c:	4505                	li	a0,1
80003b3e:	e02fc0ef          	jal	ra,80000140 <_exit>

80003b42 <_raise_r>:
_raise_r():
80003b42:	1101                	addi	sp,sp,-32
80003b44:	cc22                	sw	s0,24(sp)
80003b46:	ce06                	sw	ra,28(sp)
80003b48:	47fd                	li	a5,31
80003b4a:	842a                	mv	s0,a0
80003b4c:	00b7f963          	bgeu	a5,a1,80003b5e <_raise_r+0x1c>
80003b50:	47d9                	li	a5,22
80003b52:	c11c                	sw	a5,0(a0)
80003b54:	557d                	li	a0,-1
80003b56:	40f2                	lw	ra,28(sp)
80003b58:	4462                	lw	s0,24(sp)
80003b5a:	6105                	addi	sp,sp,32
80003b5c:	8082                	ret
80003b5e:	417c                	lw	a5,68(a0)
80003b60:	862e                	mv	a2,a1
80003b62:	c791                	beqz	a5,80003b6e <_raise_r+0x2c>
80003b64:	00259713          	slli	a4,a1,0x2
80003b68:	97ba                	add	a5,a5,a4
80003b6a:	4398                	lw	a4,0(a5)
80003b6c:	eb19                	bnez	a4,80003b82 <_raise_r+0x40>
80003b6e:	8522                	mv	a0,s0
80003b70:	c632                	sw	a2,12(sp)
80003b72:	20a5                	jal	80003bda <_getpid_r>
80003b74:	85aa                	mv	a1,a0
80003b76:	8522                	mv	a0,s0
80003b78:	4462                	lw	s0,24(sp)
80003b7a:	4632                	lw	a2,12(sp)
80003b7c:	40f2                	lw	ra,28(sp)
80003b7e:	6105                	addi	sp,sp,32
80003b80:	a805                	j	80003bb0 <_kill_r>
80003b82:	4685                	li	a3,1
80003b84:	4501                	li	a0,0
80003b86:	fcd708e3          	beq	a4,a3,80003b56 <_raise_r+0x14>
80003b8a:	56fd                	li	a3,-1
80003b8c:	00d71663          	bne	a4,a3,80003b98 <_raise_r+0x56>
80003b90:	47d9                	li	a5,22
80003b92:	c01c                	sw	a5,0(s0)
80003b94:	4505                	li	a0,1
80003b96:	b7c1                	j	80003b56 <_raise_r+0x14>
80003b98:	852e                	mv	a0,a1
80003b9a:	0007a023          	sw	zero,0(a5)
80003b9e:	9702                	jalr	a4
80003ba0:	4501                	li	a0,0
80003ba2:	bf55                	j	80003b56 <_raise_r+0x14>

80003ba4 <raise>:
raise():
80003ba4:	85aa                	mv	a1,a0
80003ba6:	0fffc517          	auipc	a0,0xfffc
80003baa:	63252503          	lw	a0,1586(a0) # 900001d8 <_impure_ptr>
80003bae:	bf51                	j	80003b42 <_raise_r>

80003bb0 <_kill_r>:
_kill_r():
80003bb0:	1141                	addi	sp,sp,-16
80003bb2:	c422                	sw	s0,8(sp)
80003bb4:	842a                	mv	s0,a0
80003bb6:	852e                	mv	a0,a1
80003bb8:	85b2                	mv	a1,a2
80003bba:	8601a223          	sw	zero,-1948(gp) # 90000234 <errno>
80003bbe:	c606                	sw	ra,12(sp)
80003bc0:	da8fc0ef          	jal	ra,80000168 <_kill>
80003bc4:	57fd                	li	a5,-1
80003bc6:	00f51663          	bne	a0,a5,80003bd2 <_kill_r+0x22>
80003bca:	8641a783          	lw	a5,-1948(gp) # 90000234 <errno>
80003bce:	c391                	beqz	a5,80003bd2 <_kill_r+0x22>
80003bd0:	c01c                	sw	a5,0(s0)
80003bd2:	40b2                	lw	ra,12(sp)
80003bd4:	4422                	lw	s0,8(sp)
80003bd6:	0141                	addi	sp,sp,16
80003bd8:	8082                	ret

80003bda <_getpid_r>:
_getpid_r():
80003bda:	d86fc06f          	j	80000160 <_getpid>

80003bde <__adddf3>:
__adddf3():
/home/xl_ci/toolchain/riscv-gnu-toolchain/riscv-gcc/libgcc/soft-fp/adddf3.c:44
80003bde:	00100837          	lui	a6,0x100
80003be2:	187d                	addi	a6,a6,-1
/home/xl_ci/toolchain/riscv-gnu-toolchain/riscv-gcc/libgcc/soft-fp/adddf3.c:36
80003be4:	1101                	addi	sp,sp,-32
/home/xl_ci/toolchain/riscv-gnu-toolchain/riscv-gcc/libgcc/soft-fp/adddf3.c:44
80003be6:	00b877b3          	and	a5,a6,a1
80003bea:	0145d713          	srli	a4,a1,0x14
/home/xl_ci/toolchain/riscv-gnu-toolchain/riscv-gcc/libgcc/soft-fp/adddf3.c:45
80003bee:	00d87833          	and	a6,a6,a3
80003bf2:	0146d313          	srli	t1,a3,0x14
/home/xl_ci/toolchain/riscv-gnu-toolchain/riscv-gcc/libgcc/soft-fp/adddf3.c:36
80003bf6:	cc22                	sw	s0,24(sp)
/home/xl_ci/toolchain/riscv-gnu-toolchain/riscv-gcc/libgcc/soft-fp/adddf3.c:44
80003bf8:	078e                	slli	a5,a5,0x3
80003bfa:	7ff77413          	andi	s0,a4,2047
80003bfe:	01d55713          	srli	a4,a0,0x1d
/home/xl_ci/toolchain/riscv-gnu-toolchain/riscv-gcc/libgcc/soft-fp/adddf3.c:45
80003c02:	080e                	slli	a6,a6,0x3
/home/xl_ci/toolchain/riscv-gnu-toolchain/riscv-gcc/libgcc/soft-fp/adddf3.c:36
80003c04:	ca26                	sw	s1,20(sp)
/home/xl_ci/toolchain/riscv-gnu-toolchain/riscv-gcc/libgcc/soft-fp/adddf3.c:44
80003c06:	8fd9                	or	a5,a5,a4
80003c08:	01f5d493          	srli	s1,a1,0x1f
/home/xl_ci/toolchain/riscv-gnu-toolchain/riscv-gcc/libgcc/soft-fp/adddf3.c:45
80003c0c:	01d65713          	srli	a4,a2,0x1d
80003c10:	7ff37313          	andi	t1,t1,2047
/home/xl_ci/toolchain/riscv-gnu-toolchain/riscv-gcc/libgcc/soft-fp/adddf3.c:36
80003c14:	ce06                	sw	ra,28(sp)
80003c16:	c84a                	sw	s2,16(sp)
80003c18:	c64e                	sw	s3,12(sp)
/home/xl_ci/toolchain/riscv-gnu-toolchain/riscv-gcc/libgcc/soft-fp/adddf3.c:45
80003c1a:	82fd                	srli	a3,a3,0x1f
80003c1c:	01076733          	or	a4,a4,a6
/home/xl_ci/toolchain/riscv-gnu-toolchain/riscv-gcc/libgcc/soft-fp/adddf3.c:44
80003c20:	00351593          	slli	a1,a0,0x3
/home/xl_ci/toolchain/riscv-gnu-toolchain/riscv-gcc/libgcc/soft-fp/adddf3.c:45
80003c24:	060e                	slli	a2,a2,0x3
/home/xl_ci/toolchain/riscv-gnu-toolchain/riscv-gcc/libgcc/soft-fp/adddf3.c:46
80003c26:	40640833          	sub	a6,s0,t1
80003c2a:	22d49863          	bne	s1,a3,80003e5a <__adddf3+0x27c>
/home/xl_ci/toolchain/riscv-gnu-toolchain/riscv-gcc/libgcc/soft-fp/adddf3.c:46 (discriminator 7)
80003c2e:	0f005363          	blez	a6,80003d14 <__adddf3+0x136>
/home/xl_ci/toolchain/riscv-gnu-toolchain/riscv-gcc/libgcc/soft-fp/adddf3.c:46 (discriminator 9)
80003c32:	02031863          	bnez	t1,80003c62 <__adddf3+0x84>
/home/xl_ci/toolchain/riscv-gnu-toolchain/riscv-gcc/libgcc/soft-fp/adddf3.c:46 (discriminator 11)
80003c36:	00c766b3          	or	a3,a4,a2
80003c3a:	58068363          	beqz	a3,800041c0 <__adddf3+0x5e2>
/home/xl_ci/toolchain/riscv-gnu-toolchain/riscv-gcc/libgcc/soft-fp/adddf3.c:46 (discriminator 14)
80003c3e:	fff80513          	addi	a0,a6,-1 # fffff <__stack_size+0xff7ff>
80003c42:	e909                	bnez	a0,80003c54 <__adddf3+0x76>
/home/xl_ci/toolchain/riscv-gnu-toolchain/riscv-gcc/libgcc/soft-fp/adddf3.c:46 (discriminator 23)
80003c44:	962e                	add	a2,a2,a1
80003c46:	00b63533          	sltu	a0,a2,a1
80003c4a:	97ba                	add	a5,a5,a4
80003c4c:	97aa                	add	a5,a5,a0
80003c4e:	85b2                	mv	a1,a2
/home/xl_ci/toolchain/riscv-gnu-toolchain/riscv-gcc/libgcc/soft-fp/adddf3.c:45 (discriminator 80)
80003c50:	4405                	li	s0,1
/home/xl_ci/toolchain/riscv-gnu-toolchain/riscv-gcc/libgcc/soft-fp/adddf3.c:46 (discriminator 80)
80003c52:	a8b9                	j	80003cb0 <__adddf3+0xd2>
/home/xl_ci/toolchain/riscv-gnu-toolchain/riscv-gcc/libgcc/soft-fp/adddf3.c:46 (discriminator 24)
80003c54:	7ff00693          	li	a3,2047
80003c58:	00d81d63          	bne	a6,a3,80003c72 <__adddf3+0x94>
/home/xl_ci/toolchain/riscv-gnu-toolchain/riscv-gcc/libgcc/soft-fp/adddf3.c:46
80003c5c:	7ff00413          	li	s0,2047
80003c60:	a24d                	j	80003e02 <__adddf3+0x224>
/home/xl_ci/toolchain/riscv-gnu-toolchain/riscv-gcc/libgcc/soft-fp/adddf3.c:46 (discriminator 12)
80003c62:	7ff00693          	li	a3,2047
80003c66:	18d40e63          	beq	s0,a3,80003e02 <__adddf3+0x224>
/home/xl_ci/toolchain/riscv-gnu-toolchain/riscv-gcc/libgcc/soft-fp/adddf3.c:46 (discriminator 38)
80003c6a:	008006b7          	lui	a3,0x800
80003c6e:	8f55                	or	a4,a4,a3
80003c70:	8542                	mv	a0,a6
/home/xl_ci/toolchain/riscv-gnu-toolchain/riscv-gcc/libgcc/soft-fp/adddf3.c:46 (discriminator 47)
80003c72:	03800693          	li	a3,56
80003c76:	08a6cb63          	blt	a3,a0,80003d0c <__adddf3+0x12e>
/home/xl_ci/toolchain/riscv-gnu-toolchain/riscv-gcc/libgcc/soft-fp/adddf3.c:46 (discriminator 48)
80003c7a:	46fd                	li	a3,31
80003c7c:	06a6c263          	blt	a3,a0,80003ce0 <__adddf3+0x102>
/home/xl_ci/toolchain/riscv-gnu-toolchain/riscv-gcc/libgcc/soft-fp/adddf3.c:46 (discriminator 50)
80003c80:	02000813          	li	a6,32
80003c84:	40a80833          	sub	a6,a6,a0
80003c88:	010716b3          	sll	a3,a4,a6
80003c8c:	00a658b3          	srl	a7,a2,a0
80003c90:	01061633          	sll	a2,a2,a6
80003c94:	0116e6b3          	or	a3,a3,a7
80003c98:	00c03633          	snez	a2,a2
80003c9c:	8e55                	or	a2,a2,a3
80003c9e:	00a75733          	srl	a4,a4,a0
/home/xl_ci/toolchain/riscv-gnu-toolchain/riscv-gcc/libgcc/soft-fp/adddf3.c:46 (discriminator 64)
80003ca2:	962e                	add	a2,a2,a1
80003ca4:	00b63533          	sltu	a0,a2,a1
80003ca8:	973e                	add	a4,a4,a5
80003caa:	00a707b3          	add	a5,a4,a0
80003cae:	85b2                	mv	a1,a2
/home/xl_ci/toolchain/riscv-gnu-toolchain/riscv-gcc/libgcc/soft-fp/adddf3.c:46 (discriminator 122)
80003cb0:	00800737          	lui	a4,0x800
80003cb4:	8f7d                	and	a4,a4,a5
80003cb6:	14070663          	beqz	a4,80003e02 <__adddf3+0x224>
/home/xl_ci/toolchain/riscv-gnu-toolchain/riscv-gcc/libgcc/soft-fp/adddf3.c:46 (discriminator 182)
80003cba:	0405                	addi	s0,s0,1
80003cbc:	7ff00713          	li	a4,2047
80003cc0:	48e40d63          	beq	s0,a4,8000415a <__adddf3+0x57c>
/home/xl_ci/toolchain/riscv-gnu-toolchain/riscv-gcc/libgcc/soft-fp/adddf3.c:46
80003cc4:	ff800737          	lui	a4,0xff800
80003cc8:	177d                	addi	a4,a4,-1
80003cca:	8ff9                	and	a5,a5,a4
80003ccc:	0015f513          	andi	a0,a1,1
80003cd0:	0015d713          	srli	a4,a1,0x1
80003cd4:	8d59                	or	a0,a0,a4
80003cd6:	01f79593          	slli	a1,a5,0x1f
80003cda:	8dc9                	or	a1,a1,a0
80003cdc:	8385                	srli	a5,a5,0x1
80003cde:	a215                	j	80003e02 <__adddf3+0x224>
/home/xl_ci/toolchain/riscv-gnu-toolchain/riscv-gcc/libgcc/soft-fp/adddf3.c:46 (discriminator 51)
80003ce0:	fe050693          	addi	a3,a0,-32
80003ce4:	02000893          	li	a7,32
80003ce8:	00d756b3          	srl	a3,a4,a3
80003cec:	4801                	li	a6,0
80003cee:	01150863          	beq	a0,a7,80003cfe <__adddf3+0x120>
/home/xl_ci/toolchain/riscv-gnu-toolchain/riscv-gcc/libgcc/soft-fp/adddf3.c:46 (discriminator 58)
80003cf2:	04000813          	li	a6,64
80003cf6:	40a80533          	sub	a0,a6,a0
80003cfa:	00a71833          	sll	a6,a4,a0
/home/xl_ci/toolchain/riscv-gnu-toolchain/riscv-gcc/libgcc/soft-fp/adddf3.c:46 (discriminator 61)
80003cfe:	00c86633          	or	a2,a6,a2
80003d02:	00c03633          	snez	a2,a2
80003d06:	8e55                	or	a2,a2,a3
/home/xl_ci/toolchain/riscv-gnu-toolchain/riscv-gcc/libgcc/soft-fp/adddf3.c:46 (discriminator 49)
80003d08:	4701                	li	a4,0
80003d0a:	bf61                	j	80003ca2 <__adddf3+0xc4>
80003d0c:	8e59                	or	a2,a2,a4
80003d0e:	00c03633          	snez	a2,a2
80003d12:	bfdd                	j	80003d08 <__adddf3+0x12a>
/home/xl_ci/toolchain/riscv-gnu-toolchain/riscv-gcc/libgcc/soft-fp/adddf3.c:46 (discriminator 10)
80003d14:	0a080b63          	beqz	a6,80003dca <__adddf3+0x1ec>
/home/xl_ci/toolchain/riscv-gnu-toolchain/riscv-gcc/libgcc/soft-fp/adddf3.c:46 (discriminator 66)
80003d18:	40830533          	sub	a0,t1,s0
80003d1c:	e40d                	bnez	s0,80003d46 <__adddf3+0x168>
/home/xl_ci/toolchain/riscv-gnu-toolchain/riscv-gcc/libgcc/soft-fp/adddf3.c:46 (discriminator 68)
80003d1e:	00b7e6b3          	or	a3,a5,a1
80003d22:	42068363          	beqz	a3,80004148 <__adddf3+0x56a>
/home/xl_ci/toolchain/riscv-gnu-toolchain/riscv-gcc/libgcc/soft-fp/adddf3.c:46 (discriminator 71)
80003d26:	fff50693          	addi	a3,a0,-1
80003d2a:	e699                	bnez	a3,80003d38 <__adddf3+0x15a>
/home/xl_ci/toolchain/riscv-gnu-toolchain/riscv-gcc/libgcc/soft-fp/adddf3.c:46 (discriminator 80)
80003d2c:	95b2                	add	a1,a1,a2
80003d2e:	97ba                	add	a5,a5,a4
80003d30:	00c5b633          	sltu	a2,a1,a2
80003d34:	97b2                	add	a5,a5,a2
80003d36:	bf29                	j	80003c50 <__adddf3+0x72>
/home/xl_ci/toolchain/riscv-gnu-toolchain/riscv-gcc/libgcc/soft-fp/adddf3.c:46 (discriminator 81)
80003d38:	7ff00813          	li	a6,2047
80003d3c:	01051d63          	bne	a0,a6,80003d56 <__adddf3+0x178>
/home/xl_ci/toolchain/riscv-gnu-toolchain/riscv-gcc/libgcc/soft-fp/adddf3.c:45
80003d40:	87ba                	mv	a5,a4
80003d42:	85b2                	mv	a1,a2
80003d44:	bf21                	j	80003c5c <__adddf3+0x7e>
/home/xl_ci/toolchain/riscv-gnu-toolchain/riscv-gcc/libgcc/soft-fp/adddf3.c:46 (discriminator 69)
80003d46:	7ff00693          	li	a3,2047
80003d4a:	fed30be3          	beq	t1,a3,80003d40 <__adddf3+0x162>
/home/xl_ci/toolchain/riscv-gnu-toolchain/riscv-gcc/libgcc/soft-fp/adddf3.c:46 (discriminator 95)
80003d4e:	008006b7          	lui	a3,0x800
80003d52:	8fd5                	or	a5,a5,a3
80003d54:	86aa                	mv	a3,a0
/home/xl_ci/toolchain/riscv-gnu-toolchain/riscv-gcc/libgcc/soft-fp/adddf3.c:46 (discriminator 104)
80003d56:	03800513          	li	a0,56
80003d5a:	06d54363          	blt	a0,a3,80003dc0 <__adddf3+0x1e2>
/home/xl_ci/toolchain/riscv-gnu-toolchain/riscv-gcc/libgcc/soft-fp/adddf3.c:46 (discriminator 105)
80003d5e:	457d                	li	a0,31
80003d60:	02d54b63          	blt	a0,a3,80003d96 <__adddf3+0x1b8>
/home/xl_ci/toolchain/riscv-gnu-toolchain/riscv-gcc/libgcc/soft-fp/adddf3.c:46 (discriminator 107)
80003d64:	02000813          	li	a6,32
80003d68:	40d80833          	sub	a6,a6,a3
80003d6c:	01079533          	sll	a0,a5,a6
80003d70:	00d5d8b3          	srl	a7,a1,a3
80003d74:	010595b3          	sll	a1,a1,a6
80003d78:	01156533          	or	a0,a0,a7
80003d7c:	00b035b3          	snez	a1,a1
80003d80:	8d4d                	or	a0,a0,a1
80003d82:	00d7d7b3          	srl	a5,a5,a3
/home/xl_ci/toolchain/riscv-gnu-toolchain/riscv-gcc/libgcc/soft-fp/adddf3.c:46 (discriminator 121)
80003d86:	00c505b3          	add	a1,a0,a2
80003d8a:	97ba                	add	a5,a5,a4
80003d8c:	00c5b633          	sltu	a2,a1,a2
80003d90:	97b2                	add	a5,a5,a2
/home/xl_ci/toolchain/riscv-gnu-toolchain/riscv-gcc/libgcc/soft-fp/adddf3.c:45 (discriminator 121)
80003d92:	841a                	mv	s0,t1
80003d94:	bf31                	j	80003cb0 <__adddf3+0xd2>
/home/xl_ci/toolchain/riscv-gnu-toolchain/riscv-gcc/libgcc/soft-fp/adddf3.c:46 (discriminator 108)
80003d96:	fe068513          	addi	a0,a3,-32 # 7fffe0 <__stack_size+0x7ff7e0>
80003d9a:	02000893          	li	a7,32
80003d9e:	00a7d833          	srl	a6,a5,a0
80003da2:	4501                	li	a0,0
80003da4:	01168763          	beq	a3,a7,80003db2 <__adddf3+0x1d4>
/home/xl_ci/toolchain/riscv-gnu-toolchain/riscv-gcc/libgcc/soft-fp/adddf3.c:46 (discriminator 115)
80003da8:	04000513          	li	a0,64
80003dac:	8d15                	sub	a0,a0,a3
80003dae:	00a79533          	sll	a0,a5,a0
/home/xl_ci/toolchain/riscv-gnu-toolchain/riscv-gcc/libgcc/soft-fp/adddf3.c:46 (discriminator 118)
80003db2:	8d4d                	or	a0,a0,a1
80003db4:	00a03533          	snez	a0,a0
80003db8:	00a86533          	or	a0,a6,a0
/home/xl_ci/toolchain/riscv-gnu-toolchain/riscv-gcc/libgcc/soft-fp/adddf3.c:46 (discriminator 106)
80003dbc:	4781                	li	a5,0
80003dbe:	b7e1                	j	80003d86 <__adddf3+0x1a8>
80003dc0:	00b7e533          	or	a0,a5,a1
80003dc4:	00a03533          	snez	a0,a0
80003dc8:	bfd5                	j	80003dbc <__adddf3+0x1de>
/home/xl_ci/toolchain/riscv-gnu-toolchain/riscv-gcc/libgcc/soft-fp/adddf3.c:46 (discriminator 67)
80003dca:	00140693          	addi	a3,s0,1
80003dce:	7fe6f513          	andi	a0,a3,2046
80003dd2:	e13d                	bnez	a0,80003e38 <__adddf3+0x25a>
/home/xl_ci/toolchain/riscv-gnu-toolchain/riscv-gcc/libgcc/soft-fp/adddf3.c:46 (discriminator 123)
80003dd4:	00b7e6b3          	or	a3,a5,a1
80003dd8:	e429                	bnez	s0,80003e22 <__adddf3+0x244>
/home/xl_ci/toolchain/riscv-gnu-toolchain/riscv-gcc/libgcc/soft-fp/adddf3.c:46 (discriminator 125)
80003dda:	36068b63          	beqz	a3,80004150 <__adddf3+0x572>
/home/xl_ci/toolchain/riscv-gnu-toolchain/riscv-gcc/libgcc/soft-fp/adddf3.c:46 (discriminator 128)
80003dde:	00c766b3          	or	a3,a4,a2
80003de2:	c285                	beqz	a3,80003e02 <__adddf3+0x224>
/home/xl_ci/toolchain/riscv-gnu-toolchain/riscv-gcc/libgcc/soft-fp/adddf3.c:46 (discriminator 134)
80003de4:	962e                	add	a2,a2,a1
80003de6:	97ba                	add	a5,a5,a4
80003de8:	00b63533          	sltu	a0,a2,a1
80003dec:	97aa                	add	a5,a5,a0
80003dee:	00800737          	lui	a4,0x800
80003df2:	8f7d                	and	a4,a4,a5
80003df4:	85b2                	mv	a1,a2
80003df6:	c711                	beqz	a4,80003e02 <__adddf3+0x224>
/home/xl_ci/toolchain/riscv-gnu-toolchain/riscv-gcc/libgcc/soft-fp/adddf3.c:46 (discriminator 136)
80003df8:	ff800737          	lui	a4,0xff800
80003dfc:	177d                	addi	a4,a4,-1
80003dfe:	8ff9                	and	a5,a5,a4
80003e00:	4405                	li	s0,1
/home/xl_ci/toolchain/riscv-gnu-toolchain/riscv-gcc/libgcc/soft-fp/adddf3.c:47 (discriminator 421)
80003e02:	0075f713          	andi	a4,a1,7
80003e06:	34070c63          	beqz	a4,8000415e <__adddf3+0x580>
/home/xl_ci/toolchain/riscv-gnu-toolchain/riscv-gcc/libgcc/soft-fp/adddf3.c:47 (discriminator 37)
80003e0a:	00f5f713          	andi	a4,a1,15
80003e0e:	4691                	li	a3,4
80003e10:	34d70763          	beq	a4,a3,8000415e <__adddf3+0x580>
/home/xl_ci/toolchain/riscv-gnu-toolchain/riscv-gcc/libgcc/soft-fp/adddf3.c:47 (discriminator 44)
80003e14:	00458713          	addi	a4,a1,4
80003e18:	00b73533          	sltu	a0,a4,a1
80003e1c:	97aa                	add	a5,a5,a0
80003e1e:	85ba                	mv	a1,a4
80003e20:	ae3d                	j	8000415e <__adddf3+0x580>
/home/xl_ci/toolchain/riscv-gnu-toolchain/riscv-gcc/libgcc/soft-fp/adddf3.c:46 (discriminator 153)
80003e22:	de99                	beqz	a3,80003d40 <__adddf3+0x162>
/home/xl_ci/toolchain/riscv-gnu-toolchain/riscv-gcc/libgcc/soft-fp/adddf3.c:46 (discriminator 155)
80003e24:	8e59                	or	a2,a2,a4
80003e26:	e2060be3          	beqz	a2,80003c5c <__adddf3+0x7e>
/home/xl_ci/toolchain/riscv-gnu-toolchain/riscv-gcc/libgcc/soft-fp/adddf3.c:46
80003e2a:	4481                	li	s1,0
80003e2c:	004007b7          	lui	a5,0x400
80003e30:	4581                	li	a1,0
80003e32:	7ff00413          	li	s0,2047
80003e36:	a625                	j	8000415e <__adddf3+0x580>
/home/xl_ci/toolchain/riscv-gnu-toolchain/riscv-gcc/libgcc/soft-fp/adddf3.c:46 (discriminator 124)
80003e38:	7ff00513          	li	a0,2047
80003e3c:	30a68d63          	beq	a3,a0,80004156 <__adddf3+0x578>
/home/xl_ci/toolchain/riscv-gnu-toolchain/riscv-gcc/libgcc/soft-fp/adddf3.c:46
80003e40:	962e                	add	a2,a2,a1
80003e42:	00b63533          	sltu	a0,a2,a1
80003e46:	97ba                	add	a5,a5,a4
80003e48:	97aa                	add	a5,a5,a0
80003e4a:	01f79513          	slli	a0,a5,0x1f
80003e4e:	8205                	srli	a2,a2,0x1
80003e50:	00c565b3          	or	a1,a0,a2
80003e54:	8385                	srli	a5,a5,0x1
80003e56:	8436                	mv	s0,a3
80003e58:	b76d                	j	80003e02 <__adddf3+0x224>
/home/xl_ci/toolchain/riscv-gnu-toolchain/riscv-gcc/libgcc/soft-fp/adddf3.c:46 (discriminator 8)
80003e5a:	0d005663          	blez	a6,80003f26 <__adddf3+0x348>
/home/xl_ci/toolchain/riscv-gnu-toolchain/riscv-gcc/libgcc/soft-fp/adddf3.c:46 (discriminator 200)
80003e5e:	08031163          	bnez	t1,80003ee0 <__adddf3+0x302>
/home/xl_ci/toolchain/riscv-gnu-toolchain/riscv-gcc/libgcc/soft-fp/adddf3.c:46 (discriminator 202)
80003e62:	00c766b3          	or	a3,a4,a2
80003e66:	34068d63          	beqz	a3,800041c0 <__adddf3+0x5e2>
/home/xl_ci/toolchain/riscv-gnu-toolchain/riscv-gcc/libgcc/soft-fp/adddf3.c:46 (discriminator 205)
80003e6a:	fff80513          	addi	a0,a6,-1
80003e6e:	e911                	bnez	a0,80003e82 <__adddf3+0x2a4>
/home/xl_ci/toolchain/riscv-gnu-toolchain/riscv-gcc/libgcc/soft-fp/adddf3.c:46 (discriminator 214)
80003e70:	40c58633          	sub	a2,a1,a2
80003e74:	00c5b533          	sltu	a0,a1,a2
80003e78:	8f99                	sub	a5,a5,a4
80003e7a:	8f89                	sub	a5,a5,a0
80003e7c:	85b2                	mv	a1,a2
/home/xl_ci/toolchain/riscv-gnu-toolchain/riscv-gcc/libgcc/soft-fp/adddf3.c:45 (discriminator 271)
80003e7e:	4405                	li	s0,1
/home/xl_ci/toolchain/riscv-gnu-toolchain/riscv-gcc/libgcc/soft-fp/adddf3.c:46 (discriminator 271)
80003e80:	a0b1                	j	80003ecc <__adddf3+0x2ee>
/home/xl_ci/toolchain/riscv-gnu-toolchain/riscv-gcc/libgcc/soft-fp/adddf3.c:46 (discriminator 215)
80003e82:	7ff00693          	li	a3,2047
80003e86:	dcd80be3          	beq	a6,a3,80003c5c <__adddf3+0x7e>
/home/xl_ci/toolchain/riscv-gnu-toolchain/riscv-gcc/libgcc/soft-fp/adddf3.c:46 (discriminator 238)
80003e8a:	03800693          	li	a3,56
80003e8e:	08a6c863          	blt	a3,a0,80003f1e <__adddf3+0x340>
/home/xl_ci/toolchain/riscv-gnu-toolchain/riscv-gcc/libgcc/soft-fp/adddf3.c:46 (discriminator 239)
80003e92:	46fd                	li	a3,31
80003e94:	04a6cf63          	blt	a3,a0,80003ef2 <__adddf3+0x314>
/home/xl_ci/toolchain/riscv-gnu-toolchain/riscv-gcc/libgcc/soft-fp/adddf3.c:46 (discriminator 241)
80003e98:	02000813          	li	a6,32
80003e9c:	40a80833          	sub	a6,a6,a0
80003ea0:	010716b3          	sll	a3,a4,a6
80003ea4:	00a658b3          	srl	a7,a2,a0
80003ea8:	01061633          	sll	a2,a2,a6
80003eac:	0116e6b3          	or	a3,a3,a7
80003eb0:	00c03633          	snez	a2,a2
80003eb4:	8e55                	or	a2,a2,a3
80003eb6:	00a75733          	srl	a4,a4,a0
/home/xl_ci/toolchain/riscv-gnu-toolchain/riscv-gcc/libgcc/soft-fp/adddf3.c:46 (discriminator 255)
80003eba:	40c58633          	sub	a2,a1,a2
80003ebe:	00c5b533          	sltu	a0,a1,a2
80003ec2:	40e78733          	sub	a4,a5,a4
80003ec6:	40a707b3          	sub	a5,a4,a0
80003eca:	85b2                	mv	a1,a2
/home/xl_ci/toolchain/riscv-gnu-toolchain/riscv-gcc/libgcc/soft-fp/adddf3.c:46 (discriminator 313)
80003ecc:	00800937          	lui	s2,0x800
80003ed0:	0127f733          	and	a4,a5,s2
80003ed4:	d71d                	beqz	a4,80003e02 <__adddf3+0x224>
/home/xl_ci/toolchain/riscv-gnu-toolchain/riscv-gcc/libgcc/soft-fp/adddf3.c:46 (discriminator 373)
80003ed6:	197d                	addi	s2,s2,-1
80003ed8:	0127f933          	and	s2,a5,s2
80003edc:	89ae                	mv	s3,a1
80003ede:	aa5d                	j	80004094 <__adddf3+0x4b6>
/home/xl_ci/toolchain/riscv-gnu-toolchain/riscv-gcc/libgcc/soft-fp/adddf3.c:46 (discriminator 203)
80003ee0:	7ff00693          	li	a3,2047
80003ee4:	f0d40fe3          	beq	s0,a3,80003e02 <__adddf3+0x224>
/home/xl_ci/toolchain/riscv-gnu-toolchain/riscv-gcc/libgcc/soft-fp/adddf3.c:46 (discriminator 229)
80003ee8:	008006b7          	lui	a3,0x800
80003eec:	8f55                	or	a4,a4,a3
80003eee:	8542                	mv	a0,a6
80003ef0:	bf69                	j	80003e8a <__adddf3+0x2ac>
/home/xl_ci/toolchain/riscv-gnu-toolchain/riscv-gcc/libgcc/soft-fp/adddf3.c:46 (discriminator 242)
80003ef2:	fe050693          	addi	a3,a0,-32
80003ef6:	02000893          	li	a7,32
80003efa:	00d756b3          	srl	a3,a4,a3
80003efe:	4801                	li	a6,0
80003f00:	01150863          	beq	a0,a7,80003f10 <__adddf3+0x332>
/home/xl_ci/toolchain/riscv-gnu-toolchain/riscv-gcc/libgcc/soft-fp/adddf3.c:46 (discriminator 249)
80003f04:	04000813          	li	a6,64
80003f08:	40a80533          	sub	a0,a6,a0
80003f0c:	00a71833          	sll	a6,a4,a0
/home/xl_ci/toolchain/riscv-gnu-toolchain/riscv-gcc/libgcc/soft-fp/adddf3.c:46 (discriminator 252)
80003f10:	00c86633          	or	a2,a6,a2
80003f14:	00c03633          	snez	a2,a2
80003f18:	8e55                	or	a2,a2,a3
/home/xl_ci/toolchain/riscv-gnu-toolchain/riscv-gcc/libgcc/soft-fp/adddf3.c:46 (discriminator 240)
80003f1a:	4701                	li	a4,0
80003f1c:	bf79                	j	80003eba <__adddf3+0x2dc>
80003f1e:	8e59                	or	a2,a2,a4
80003f20:	00c03633          	snez	a2,a2
80003f24:	bfdd                	j	80003f1a <__adddf3+0x33c>
/home/xl_ci/toolchain/riscv-gnu-toolchain/riscv-gcc/libgcc/soft-fp/adddf3.c:46 (discriminator 201)
80003f26:	0c080563          	beqz	a6,80003ff0 <__adddf3+0x412>
/home/xl_ci/toolchain/riscv-gnu-toolchain/riscv-gcc/libgcc/soft-fp/adddf3.c:46 (discriminator 257)
80003f2a:	40830533          	sub	a0,t1,s0
80003f2e:	e81d                	bnez	s0,80003f64 <__adddf3+0x386>
/home/xl_ci/toolchain/riscv-gnu-toolchain/riscv-gcc/libgcc/soft-fp/adddf3.c:46 (discriminator 259)
80003f30:	00b7e833          	or	a6,a5,a1
80003f34:	28080863          	beqz	a6,800041c4 <__adddf3+0x5e6>
/home/xl_ci/toolchain/riscv-gnu-toolchain/riscv-gcc/libgcc/soft-fp/adddf3.c:46 (discriminator 262)
80003f38:	fff50813          	addi	a6,a0,-1
80003f3c:	00081b63          	bnez	a6,80003f52 <__adddf3+0x374>
/home/xl_ci/toolchain/riscv-gnu-toolchain/riscv-gcc/libgcc/soft-fp/adddf3.c:46 (discriminator 271)
80003f40:	40b605b3          	sub	a1,a2,a1
80003f44:	40f707b3          	sub	a5,a4,a5
80003f48:	00b63633          	sltu	a2,a2,a1
80003f4c:	8f91                	sub	a5,a5,a2
80003f4e:	84b6                	mv	s1,a3
80003f50:	b73d                	j	80003e7e <__adddf3+0x2a0>
/home/xl_ci/toolchain/riscv-gnu-toolchain/riscv-gcc/libgcc/soft-fp/adddf3.c:46 (discriminator 272)
80003f52:	7ff00893          	li	a7,2047
80003f56:	03151063          	bne	a0,a7,80003f76 <__adddf3+0x398>
/home/xl_ci/toolchain/riscv-gnu-toolchain/riscv-gcc/libgcc/soft-fp/adddf3.c:45
80003f5a:	87ba                	mv	a5,a4
80003f5c:	85b2                	mv	a1,a2
/home/xl_ci/toolchain/riscv-gnu-toolchain/riscv-gcc/libgcc/soft-fp/adddf3.c:46
80003f5e:	7ff00413          	li	s0,2047
80003f62:	a07d                	j	80004010 <__adddf3+0x432>
/home/xl_ci/toolchain/riscv-gnu-toolchain/riscv-gcc/libgcc/soft-fp/adddf3.c:46 (discriminator 260)
80003f64:	7ff00813          	li	a6,2047
80003f68:	ff0309e3          	beq	t1,a6,80003f5a <__adddf3+0x37c>
/home/xl_ci/toolchain/riscv-gnu-toolchain/riscv-gcc/libgcc/soft-fp/adddf3.c:46 (discriminator 286)
80003f6c:	00800837          	lui	a6,0x800
80003f70:	0107e7b3          	or	a5,a5,a6
80003f74:	882a                	mv	a6,a0
/home/xl_ci/toolchain/riscv-gnu-toolchain/riscv-gcc/libgcc/soft-fp/adddf3.c:46 (discriminator 295)
80003f76:	03800513          	li	a0,56
80003f7a:	07054663          	blt	a0,a6,80003fe6 <__adddf3+0x408>
/home/xl_ci/toolchain/riscv-gnu-toolchain/riscv-gcc/libgcc/soft-fp/adddf3.c:46 (discriminator 296)
80003f7e:	457d                	li	a0,31
80003f80:	03054d63          	blt	a0,a6,80003fba <__adddf3+0x3dc>
/home/xl_ci/toolchain/riscv-gnu-toolchain/riscv-gcc/libgcc/soft-fp/adddf3.c:46 (discriminator 298)
80003f84:	02000893          	li	a7,32
80003f88:	410888b3          	sub	a7,a7,a6
80003f8c:	01179533          	sll	a0,a5,a7
80003f90:	0105de33          	srl	t3,a1,a6
80003f94:	011595b3          	sll	a1,a1,a7
80003f98:	01c56533          	or	a0,a0,t3
80003f9c:	00b035b3          	snez	a1,a1
80003fa0:	8d4d                	or	a0,a0,a1
80003fa2:	0107d7b3          	srl	a5,a5,a6
/home/xl_ci/toolchain/riscv-gnu-toolchain/riscv-gcc/libgcc/soft-fp/adddf3.c:46 (discriminator 312)
80003fa6:	40a605b3          	sub	a1,a2,a0
80003faa:	40f707b3          	sub	a5,a4,a5
80003fae:	00b63633          	sltu	a2,a2,a1
80003fb2:	8f91                	sub	a5,a5,a2
/home/xl_ci/toolchain/riscv-gnu-toolchain/riscv-gcc/libgcc/soft-fp/adddf3.c:45 (discriminator 312)
80003fb4:	841a                	mv	s0,t1
80003fb6:	84b6                	mv	s1,a3
80003fb8:	bf11                	j	80003ecc <__adddf3+0x2ee>
/home/xl_ci/toolchain/riscv-gnu-toolchain/riscv-gcc/libgcc/soft-fp/adddf3.c:46 (discriminator 299)
80003fba:	fe080513          	addi	a0,a6,-32 # 7fffe0 <__stack_size+0x7ff7e0>
80003fbe:	02000e13          	li	t3,32
80003fc2:	00a7d8b3          	srl	a7,a5,a0
80003fc6:	4501                	li	a0,0
80003fc8:	01c80863          	beq	a6,t3,80003fd8 <__adddf3+0x3fa>
/home/xl_ci/toolchain/riscv-gnu-toolchain/riscv-gcc/libgcc/soft-fp/adddf3.c:46 (discriminator 306)
80003fcc:	04000513          	li	a0,64
80003fd0:	41050533          	sub	a0,a0,a6
80003fd4:	00a79533          	sll	a0,a5,a0
/home/xl_ci/toolchain/riscv-gnu-toolchain/riscv-gcc/libgcc/soft-fp/adddf3.c:46 (discriminator 309)
80003fd8:	8d4d                	or	a0,a0,a1
80003fda:	00a03533          	snez	a0,a0
80003fde:	00a8e533          	or	a0,a7,a0
/home/xl_ci/toolchain/riscv-gnu-toolchain/riscv-gcc/libgcc/soft-fp/adddf3.c:46 (discriminator 297)
80003fe2:	4781                	li	a5,0
80003fe4:	b7c9                	j	80003fa6 <__adddf3+0x3c8>
80003fe6:	00b7e533          	or	a0,a5,a1
80003fea:	00a03533          	snez	a0,a0
80003fee:	bfd5                	j	80003fe2 <__adddf3+0x404>
/home/xl_ci/toolchain/riscv-gnu-toolchain/riscv-gcc/libgcc/soft-fp/adddf3.c:46 (discriminator 258)
80003ff0:	00140513          	addi	a0,s0,1
80003ff4:	7fe57513          	andi	a0,a0,2046
80003ff8:	e925                	bnez	a0,80004068 <__adddf3+0x48a>
/home/xl_ci/toolchain/riscv-gnu-toolchain/riscv-gcc/libgcc/soft-fp/adddf3.c:46 (discriminator 314)
80003ffa:	00b7e833          	or	a6,a5,a1
80003ffe:	00c76533          	or	a0,a4,a2
80004002:	e821                	bnez	s0,80004052 <__adddf3+0x474>
/home/xl_ci/toolchain/riscv-gnu-toolchain/riscv-gcc/libgcc/soft-fp/adddf3.c:46 (discriminator 316)
80004004:	00081863          	bnez	a6,80004014 <__adddf3+0x436>
/home/xl_ci/toolchain/riscv-gnu-toolchain/riscv-gcc/libgcc/soft-fp/adddf3.c:46 (discriminator 318)
80004008:	1c050263          	beqz	a0,800041cc <__adddf3+0x5ee>
/home/xl_ci/toolchain/riscv-gnu-toolchain/riscv-gcc/libgcc/soft-fp/adddf3.c:45
8000400c:	87ba                	mv	a5,a4
8000400e:	85b2                	mv	a1,a2
80004010:	84b6                	mv	s1,a3
80004012:	bbc5                	j	80003e02 <__adddf3+0x224>
/home/xl_ci/toolchain/riscv-gnu-toolchain/riscv-gcc/libgcc/soft-fp/adddf3.c:46 (discriminator 319)
80004014:	de0507e3          	beqz	a0,80003e02 <__adddf3+0x224>
/home/xl_ci/toolchain/riscv-gnu-toolchain/riscv-gcc/libgcc/soft-fp/adddf3.c:46 (discriminator 326)
80004018:	40c58833          	sub	a6,a1,a2
8000401c:	0105b8b3          	sltu	a7,a1,a6
80004020:	40e78533          	sub	a0,a5,a4
80004024:	41150533          	sub	a0,a0,a7
80004028:	008008b7          	lui	a7,0x800
8000402c:	011578b3          	and	a7,a0,a7
80004030:	00088a63          	beqz	a7,80004044 <__adddf3+0x466>
/home/xl_ci/toolchain/riscv-gnu-toolchain/riscv-gcc/libgcc/soft-fp/adddf3.c:46 (discriminator 328)
80004034:	40b605b3          	sub	a1,a2,a1
80004038:	40f707b3          	sub	a5,a4,a5
8000403c:	00b63633          	sltu	a2,a2,a1
80004040:	8f91                	sub	a5,a5,a2
80004042:	b7f9                	j	80004010 <__adddf3+0x432>
/home/xl_ci/toolchain/riscv-gnu-toolchain/riscv-gcc/libgcc/soft-fp/adddf3.c:46 (discriminator 329)
80004044:	00a865b3          	or	a1,a6,a0
80004048:	18058663          	beqz	a1,800041d4 <__adddf3+0x5f6>
/home/xl_ci/toolchain/riscv-gnu-toolchain/riscv-gcc/libgcc/soft-fp/adddf3.c:46
8000404c:	87aa                	mv	a5,a0
8000404e:	85c2                	mv	a1,a6
80004050:	bb4d                	j	80003e02 <__adddf3+0x224>
/home/xl_ci/toolchain/riscv-gnu-toolchain/riscv-gcc/libgcc/soft-fp/adddf3.c:46 (discriminator 348)
80004052:	00081863          	bnez	a6,80004062 <__adddf3+0x484>
/home/xl_ci/toolchain/riscv-gnu-toolchain/riscv-gcc/libgcc/soft-fp/adddf3.c:46 (discriminator 349)
80004056:	18050163          	beqz	a0,800041d8 <__adddf3+0x5fa>
/home/xl_ci/toolchain/riscv-gnu-toolchain/riscv-gcc/libgcc/soft-fp/adddf3.c:45
8000405a:	87ba                	mv	a5,a4
8000405c:	85b2                	mv	a1,a2
/home/xl_ci/toolchain/riscv-gnu-toolchain/riscv-gcc/libgcc/soft-fp/adddf3.c:46
8000405e:	84b6                	mv	s1,a3
80004060:	bef5                	j	80003c5c <__adddf3+0x7e>
/home/xl_ci/toolchain/riscv-gnu-toolchain/riscv-gcc/libgcc/soft-fp/adddf3.c:46 (discriminator 350)
80004062:	be050de3          	beqz	a0,80003c5c <__adddf3+0x7e>
80004066:	b3d1                	j	80003e2a <__adddf3+0x24c>
/home/xl_ci/toolchain/riscv-gnu-toolchain/riscv-gcc/libgcc/soft-fp/adddf3.c:46 (discriminator 315)
80004068:	40c589b3          	sub	s3,a1,a2
8000406c:	0135b533          	sltu	a0,a1,s3
80004070:	40e78933          	sub	s2,a5,a4
80004074:	40a90933          	sub	s2,s2,a0
80004078:	00800537          	lui	a0,0x800
8000407c:	00a97533          	and	a0,s2,a0
80004080:	c925                	beqz	a0,800040f0 <__adddf3+0x512>
/home/xl_ci/toolchain/riscv-gnu-toolchain/riscv-gcc/libgcc/soft-fp/adddf3.c:46 (discriminator 366)
80004082:	40b609b3          	sub	s3,a2,a1
80004086:	40f707b3          	sub	a5,a4,a5
8000408a:	01363633          	sltu	a2,a2,s3
8000408e:	40c78933          	sub	s2,a5,a2
80004092:	84b6                	mv	s1,a3
/home/xl_ci/toolchain/riscv-gnu-toolchain/riscv-gcc/libgcc/soft-fp/adddf3.c:46 (discriminator 375)
80004094:	06090463          	beqz	s2,800040fc <__adddf3+0x51e>
/home/xl_ci/toolchain/riscv-gnu-toolchain/riscv-gcc/libgcc/soft-fp/adddf3.c:46 (discriminator 378)
80004098:	854a                	mv	a0,s2
8000409a:	62c010ef          	jal	ra,800056c6 <__clzsi2>
/home/xl_ci/toolchain/riscv-gnu-toolchain/riscv-gcc/libgcc/soft-fp/adddf3.c:46 (discriminator 392)
8000409e:	ff850713          	addi	a4,a0,-8 # 7ffff8 <__stack_size+0x7ff7f8>
800040a2:	47fd                	li	a5,31
800040a4:	06e7c263          	blt	a5,a4,80004108 <__adddf3+0x52a>
/home/xl_ci/toolchain/riscv-gnu-toolchain/riscv-gcc/libgcc/soft-fp/adddf3.c:46 (discriminator 398)
800040a8:	02000793          	li	a5,32
800040ac:	8f99                	sub	a5,a5,a4
800040ae:	00e91933          	sll	s2,s2,a4
800040b2:	00f9d7b3          	srl	a5,s3,a5
800040b6:	0127e7b3          	or	a5,a5,s2
800040ba:	00e995b3          	sll	a1,s3,a4
/home/xl_ci/toolchain/riscv-gnu-toolchain/riscv-gcc/libgcc/soft-fp/adddf3.c:46 (discriminator 402)
800040be:	06874f63          	blt	a4,s0,8000413c <__adddf3+0x55e>
/home/xl_ci/toolchain/riscv-gnu-toolchain/riscv-gcc/libgcc/soft-fp/adddf3.c:46 (discriminator 403)
800040c2:	8f01                	sub	a4,a4,s0
800040c4:	00170693          	addi	a3,a4,1 # ff800001 <_sp+0x6f7f0001>
800040c8:	467d                	li	a2,31
800040ca:	04d64563          	blt	a2,a3,80004114 <__adddf3+0x536>
/home/xl_ci/toolchain/riscv-gnu-toolchain/riscv-gcc/libgcc/soft-fp/adddf3.c:46 (discriminator 405)
800040ce:	02000713          	li	a4,32
800040d2:	8f15                	sub	a4,a4,a3
800040d4:	00e79633          	sll	a2,a5,a4
800040d8:	00d5d533          	srl	a0,a1,a3
800040dc:	00e595b3          	sll	a1,a1,a4
800040e0:	8e49                	or	a2,a2,a0
800040e2:	00b035b3          	snez	a1,a1
800040e6:	8dd1                	or	a1,a1,a2
800040e8:	00d7d7b3          	srl	a5,a5,a3
/home/xl_ci/toolchain/riscv-gnu-toolchain/riscv-gcc/libgcc/soft-fp/adddf3.c:46 (discriminator 417)
800040ec:	4401                	li	s0,0
800040ee:	bb11                	j	80003e02 <__adddf3+0x224>
/home/xl_ci/toolchain/riscv-gnu-toolchain/riscv-gcc/libgcc/soft-fp/adddf3.c:46 (discriminator 367)
800040f0:	0129e5b3          	or	a1,s3,s2
800040f4:	f1c5                	bnez	a1,80004094 <__adddf3+0x4b6>
800040f6:	4781                	li	a5,0
/home/xl_ci/toolchain/riscv-gnu-toolchain/riscv-gcc/libgcc/soft-fp/adddf3.c:46
800040f8:	4401                	li	s0,0
800040fa:	a8d9                	j	800041d0 <__adddf3+0x5f2>
/home/xl_ci/toolchain/riscv-gnu-toolchain/riscv-gcc/libgcc/soft-fp/adddf3.c:46 (discriminator 385)
800040fc:	854e                	mv	a0,s3
800040fe:	5c8010ef          	jal	ra,800056c6 <__clzsi2>
80004102:	02050513          	addi	a0,a0,32
80004106:	bf61                	j	8000409e <__adddf3+0x4c0>
/home/xl_ci/toolchain/riscv-gnu-toolchain/riscv-gcc/libgcc/soft-fp/adddf3.c:46 (discriminator 394)
80004108:	fd850793          	addi	a5,a0,-40
8000410c:	00f997b3          	sll	a5,s3,a5
80004110:	4581                	li	a1,0
80004112:	b775                	j	800040be <__adddf3+0x4e0>
/home/xl_ci/toolchain/riscv-gnu-toolchain/riscv-gcc/libgcc/soft-fp/adddf3.c:46 (discriminator 406)
80004114:	1705                	addi	a4,a4,-31
80004116:	02000613          	li	a2,32
8000411a:	00e7d733          	srl	a4,a5,a4
8000411e:	4501                	li	a0,0
80004120:	00c68763          	beq	a3,a2,8000412e <__adddf3+0x550>
/home/xl_ci/toolchain/riscv-gnu-toolchain/riscv-gcc/libgcc/soft-fp/adddf3.c:46 (discriminator 414)
80004124:	04000513          	li	a0,64
80004128:	8d15                	sub	a0,a0,a3
8000412a:	00a79533          	sll	a0,a5,a0
/home/xl_ci/toolchain/riscv-gnu-toolchain/riscv-gcc/libgcc/soft-fp/adddf3.c:46 (discriminator 417)
8000412e:	8d4d                	or	a0,a0,a1
80004130:	00a03533          	snez	a0,a0
80004134:	00a765b3          	or	a1,a4,a0
80004138:	4781                	li	a5,0
8000413a:	bf4d                	j	800040ec <__adddf3+0x50e>
/home/xl_ci/toolchain/riscv-gnu-toolchain/riscv-gcc/libgcc/soft-fp/adddf3.c:46 (discriminator 404)
8000413c:	8c19                	sub	s0,s0,a4
8000413e:	ff800737          	lui	a4,0xff800
80004142:	177d                	addi	a4,a4,-1
80004144:	8ff9                	and	a5,a5,a4
80004146:	b975                	j	80003e02 <__adddf3+0x224>
/home/xl_ci/toolchain/riscv-gnu-toolchain/riscv-gcc/libgcc/soft-fp/adddf3.c:45
80004148:	87ba                	mv	a5,a4
8000414a:	85b2                	mv	a1,a2
/home/xl_ci/toolchain/riscv-gnu-toolchain/riscv-gcc/libgcc/soft-fp/adddf3.c:46
8000414c:	842a                	mv	s0,a0
8000414e:	b955                	j	80003e02 <__adddf3+0x224>
/home/xl_ci/toolchain/riscv-gnu-toolchain/riscv-gcc/libgcc/soft-fp/adddf3.c:45
80004150:	87ba                	mv	a5,a4
80004152:	85b2                	mv	a1,a2
80004154:	b17d                	j	80003e02 <__adddf3+0x224>
80004156:	7ff00413          	li	s0,2047
8000415a:	4781                	li	a5,0
8000415c:	4581                	li	a1,0
/home/xl_ci/toolchain/riscv-gnu-toolchain/riscv-gcc/libgcc/soft-fp/adddf3.c:47 (discriminator 47)
8000415e:	00800737          	lui	a4,0x800
80004162:	8f7d                	and	a4,a4,a5
80004164:	cb11                	beqz	a4,80004178 <__adddf3+0x59a>
/home/xl_ci/toolchain/riscv-gnu-toolchain/riscv-gcc/libgcc/soft-fp/adddf3.c:47 (discriminator 63)
80004166:	0405                	addi	s0,s0,1
80004168:	7ff00713          	li	a4,2047
8000416c:	06e40b63          	beq	s0,a4,800041e2 <__adddf3+0x604>
/home/xl_ci/toolchain/riscv-gnu-toolchain/riscv-gcc/libgcc/soft-fp/adddf3.c:47
80004170:	ff800737          	lui	a4,0xff800
80004174:	177d                	addi	a4,a4,-1
80004176:	8ff9                	and	a5,a5,a4
/home/xl_ci/toolchain/riscv-gnu-toolchain/riscv-gcc/libgcc/soft-fp/adddf3.c:47 (discriminator 79)
80004178:	01d79713          	slli	a4,a5,0x1d
8000417c:	0035d513          	srli	a0,a1,0x3
80004180:	8d59                	or	a0,a0,a4
80004182:	7ff00713          	li	a4,2047
80004186:	838d                	srli	a5,a5,0x3
80004188:	00e41963          	bne	s0,a4,8000419a <__adddf3+0x5bc>
/home/xl_ci/toolchain/riscv-gnu-toolchain/riscv-gcc/libgcc/soft-fp/adddf3.c:47 (discriminator 80)
8000418c:	8d5d                	or	a0,a0,a5
8000418e:	4781                	li	a5,0
80004190:	c509                	beqz	a0,8000419a <__adddf3+0x5bc>
/home/xl_ci/toolchain/riscv-gnu-toolchain/riscv-gcc/libgcc/soft-fp/adddf3.c:47
80004192:	000807b7          	lui	a5,0x80
80004196:	4501                	li	a0,0
80004198:	4481                	li	s1,0
/home/xl_ci/toolchain/riscv-gnu-toolchain/riscv-gcc/libgcc/soft-fp/adddf3.c:47 (discriminator 90)
8000419a:	01441713          	slli	a4,s0,0x14
8000419e:	7ff006b7          	lui	a3,0x7ff00
800041a2:	07b2                	slli	a5,a5,0xc
/home/xl_ci/toolchain/riscv-gnu-toolchain/riscv-gcc/libgcc/soft-fp/adddf3.c:51 (discriminator 90)
800041a4:	40f2                	lw	ra,28(sp)
800041a6:	4462                	lw	s0,24(sp)
/home/xl_ci/toolchain/riscv-gnu-toolchain/riscv-gcc/libgcc/soft-fp/adddf3.c:47 (discriminator 90)
800041a8:	8f75                	and	a4,a4,a3
800041aa:	83b1                	srli	a5,a5,0xc
800041ac:	04fe                	slli	s1,s1,0x1f
800041ae:	8fd9                	or	a5,a5,a4
800041b0:	0097e733          	or	a4,a5,s1
/home/xl_ci/toolchain/riscv-gnu-toolchain/riscv-gcc/libgcc/soft-fp/adddf3.c:51 (discriminator 90)
800041b4:	4942                	lw	s2,16(sp)
800041b6:	44d2                	lw	s1,20(sp)
800041b8:	49b2                	lw	s3,12(sp)
800041ba:	85ba                	mv	a1,a4
800041bc:	6105                	addi	sp,sp,32
800041be:	8082                	ret
800041c0:	8442                	mv	s0,a6
800041c2:	b181                	j	80003e02 <__adddf3+0x224>
/home/xl_ci/toolchain/riscv-gnu-toolchain/riscv-gcc/libgcc/soft-fp/adddf3.c:45
800041c4:	87ba                	mv	a5,a4
800041c6:	85b2                	mv	a1,a2
/home/xl_ci/toolchain/riscv-gnu-toolchain/riscv-gcc/libgcc/soft-fp/adddf3.c:46
800041c8:	842a                	mv	s0,a0
800041ca:	b599                	j	80004010 <__adddf3+0x432>
800041cc:	4781                	li	a5,0
800041ce:	4581                	li	a1,0
800041d0:	4481                	li	s1,0
800041d2:	b771                	j	8000415e <__adddf3+0x580>
800041d4:	4781                	li	a5,0
800041d6:	bfed                	j	800041d0 <__adddf3+0x5f2>
800041d8:	4581                	li	a1,0
800041da:	4481                	li	s1,0
800041dc:	004007b7          	lui	a5,0x400
800041e0:	b989                	j	80003e32 <__adddf3+0x254>
800041e2:	4781                	li	a5,0
800041e4:	4581                	li	a1,0
800041e6:	bf49                	j	80004178 <__adddf3+0x59a>

800041e8 <__divdf3>:
__divdf3():
/home/xl_ci/toolchain/riscv-gnu-toolchain/riscv-gcc/libgcc/soft-fp/divdf3.c:36
800041e8:	7179                	addi	sp,sp,-48
800041ea:	d04a                	sw	s2,32(sp)
/home/xl_ci/toolchain/riscv-gnu-toolchain/riscv-gcc/libgcc/soft-fp/divdf3.c:44
800041ec:	0145d913          	srli	s2,a1,0x14
/home/xl_ci/toolchain/riscv-gnu-toolchain/riscv-gcc/libgcc/soft-fp/divdf3.c:36
800041f0:	d226                	sw	s1,36(sp)
800041f2:	ce4e                	sw	s3,28(sp)
800041f4:	cc52                	sw	s4,24(sp)
800041f6:	c85a                	sw	s6,16(sp)
800041f8:	c462                	sw	s8,8(sp)
/home/xl_ci/toolchain/riscv-gnu-toolchain/riscv-gcc/libgcc/soft-fp/divdf3.c:44
800041fa:	00c59493          	slli	s1,a1,0xc
/home/xl_ci/toolchain/riscv-gnu-toolchain/riscv-gcc/libgcc/soft-fp/divdf3.c:36
800041fe:	d606                	sw	ra,44(sp)
80004200:	d422                	sw	s0,40(sp)
80004202:	ca56                	sw	s5,20(sp)
80004204:	c65e                	sw	s7,12(sp)
/home/xl_ci/toolchain/riscv-gnu-toolchain/riscv-gcc/libgcc/soft-fp/divdf3.c:44
80004206:	7ff97913          	andi	s2,s2,2047
/home/xl_ci/toolchain/riscv-gnu-toolchain/riscv-gcc/libgcc/soft-fp/divdf3.c:36
8000420a:	8a2a                	mv	s4,a0
8000420c:	8b32                	mv	s6,a2
8000420e:	8c36                	mv	s8,a3
/home/xl_ci/toolchain/riscv-gnu-toolchain/riscv-gcc/libgcc/soft-fp/divdf3.c:44
80004210:	80b1                	srli	s1,s1,0xc
80004212:	01f5d993          	srli	s3,a1,0x1f
80004216:	08090463          	beqz	s2,8000429e <__divdf3+0xb6>
8000421a:	7ff00793          	li	a5,2047
8000421e:	0cf90a63          	beq	s2,a5,800042f2 <__divdf3+0x10a>
/home/xl_ci/toolchain/riscv-gnu-toolchain/riscv-gcc/libgcc/soft-fp/divdf3.c:44 (discriminator 1)
80004222:	01d55a93          	srli	s5,a0,0x1d
80004226:	048e                	slli	s1,s1,0x3
80004228:	009ae4b3          	or	s1,s5,s1
8000422c:	00800ab7          	lui	s5,0x800
80004230:	0154eab3          	or	s5,s1,s5
80004234:	00351413          	slli	s0,a0,0x3
80004238:	c0190913          	addi	s2,s2,-1023 # 7ffc01 <__stack_size+0x7ff401>
/home/xl_ci/toolchain/riscv-gnu-toolchain/riscv-gcc/libgcc/soft-fp/divdf3.c:44 (discriminator 41)
8000423c:	4b81                	li	s7,0
/home/xl_ci/toolchain/riscv-gnu-toolchain/riscv-gcc/libgcc/soft-fp/divdf3.c:45 (discriminator 8)
8000423e:	00cc1513          	slli	a0,s8,0xc
80004242:	00c55493          	srli	s1,a0,0xc
80004246:	014c5513          	srli	a0,s8,0x14
8000424a:	7ff57593          	andi	a1,a0,2047
8000424e:	01fc5c13          	srli	s8,s8,0x1f
80004252:	c1f9                	beqz	a1,80004318 <__divdf3+0x130>
/home/xl_ci/toolchain/riscv-gnu-toolchain/riscv-gcc/libgcc/soft-fp/divdf3.c:45
80004254:	7ff00793          	li	a5,2047
80004258:	10f58b63          	beq	a1,a5,8000436e <__divdf3+0x186>
/home/xl_ci/toolchain/riscv-gnu-toolchain/riscv-gcc/libgcc/soft-fp/divdf3.c:45 (discriminator 1)
8000425c:	00349513          	slli	a0,s1,0x3
80004260:	01db5793          	srli	a5,s6,0x1d
80004264:	8d5d                	or	a0,a0,a5
80004266:	008004b7          	lui	s1,0x800
8000426a:	8cc9                	or	s1,s1,a0
8000426c:	003b1f93          	slli	t6,s6,0x3
80004270:	c0158513          	addi	a0,a1,-1023
/home/xl_ci/toolchain/riscv-gnu-toolchain/riscv-gcc/libgcc/soft-fp/divdf3.c:45 (discriminator 41)
80004274:	4781                	li	a5,0
/home/xl_ci/toolchain/riscv-gnu-toolchain/riscv-gcc/libgcc/soft-fp/divdf3.c:46 (discriminator 8)
80004276:	002b9713          	slli	a4,s7,0x2
8000427a:	8f5d                	or	a4,a4,a5
8000427c:	177d                	addi	a4,a4,-1
8000427e:	4639                	li	a2,14
80004280:	0189c6b3          	xor	a3,s3,s8
80004284:	40a905b3          	sub	a1,s2,a0
80004288:	10e66563          	bltu	a2,a4,80004392 <__divdf3+0x1aa>
8000428c:	00002617          	auipc	a2,0x2
80004290:	a8860613          	addi	a2,a2,-1400 # 80005d14 <_ctype_+0x104>
80004294:	070a                	slli	a4,a4,0x2
80004296:	9732                	add	a4,a4,a2
80004298:	4318                	lw	a4,0(a4)
8000429a:	9732                	add	a4,a4,a2
8000429c:	8702                	jr	a4
/home/xl_ci/toolchain/riscv-gnu-toolchain/riscv-gcc/libgcc/soft-fp/divdf3.c:44 (discriminator 2)
8000429e:	00a4eab3          	or	s5,s1,a0
800042a2:	060a8263          	beqz	s5,80004306 <__divdf3+0x11e>
/home/xl_ci/toolchain/riscv-gnu-toolchain/riscv-gcc/libgcc/soft-fp/divdf3.c:44 (discriminator 13)
800042a6:	c89d                	beqz	s1,800042dc <__divdf3+0xf4>
/home/xl_ci/toolchain/riscv-gnu-toolchain/riscv-gcc/libgcc/soft-fp/divdf3.c:44 (discriminator 17)
800042a8:	8526                	mv	a0,s1
800042aa:	41c010ef          	jal	ra,800056c6 <__clzsi2>
/home/xl_ci/toolchain/riscv-gnu-toolchain/riscv-gcc/libgcc/soft-fp/divdf3.c:44 (discriminator 31)
800042ae:	ff550793          	addi	a5,a0,-11
800042b2:	4771                	li	a4,28
800042b4:	02f74963          	blt	a4,a5,800042e6 <__divdf3+0xfe>
/home/xl_ci/toolchain/riscv-gnu-toolchain/riscv-gcc/libgcc/soft-fp/divdf3.c:44 (discriminator 32)
800042b8:	4af5                	li	s5,29
800042ba:	ff850413          	addi	s0,a0,-8
800042be:	40fa8ab3          	sub	s5,s5,a5
800042c2:	008494b3          	sll	s1,s1,s0
800042c6:	015a5ab3          	srl	s5,s4,s5
800042ca:	009aeab3          	or	s5,s5,s1
800042ce:	008a1433          	sll	s0,s4,s0
/home/xl_ci/toolchain/riscv-gnu-toolchain/riscv-gcc/libgcc/soft-fp/divdf3.c:44 (discriminator 41)
800042d2:	c0d00593          	li	a1,-1011
800042d6:	40a58933          	sub	s2,a1,a0
800042da:	b78d                	j	8000423c <__divdf3+0x54>
/home/xl_ci/toolchain/riscv-gnu-toolchain/riscv-gcc/libgcc/soft-fp/divdf3.c:44 (discriminator 24)
800042dc:	3ea010ef          	jal	ra,800056c6 <__clzsi2>
800042e0:	02050513          	addi	a0,a0,32
800042e4:	b7e9                	j	800042ae <__divdf3+0xc6>
/home/xl_ci/toolchain/riscv-gnu-toolchain/riscv-gcc/libgcc/soft-fp/divdf3.c:44 (discriminator 33)
800042e6:	fd850493          	addi	s1,a0,-40
800042ea:	009a1ab3          	sll	s5,s4,s1
800042ee:	4401                	li	s0,0
800042f0:	b7cd                	j	800042d2 <__divdf3+0xea>
/home/xl_ci/toolchain/riscv-gnu-toolchain/riscv-gcc/libgcc/soft-fp/divdf3.c:44 (discriminator 3)
800042f2:	00a4eab3          	or	s5,s1,a0
800042f6:	000a8c63          	beqz	s5,8000430e <__divdf3+0x126>
800042fa:	842a                	mv	s0,a0
/home/xl_ci/toolchain/riscv-gnu-toolchain/riscv-gcc/libgcc/soft-fp/divdf3.c:44
800042fc:	8aa6                	mv	s5,s1
800042fe:	7ff00913          	li	s2,2047
80004302:	4b8d                	li	s7,3
80004304:	bf2d                	j	8000423e <__divdf3+0x56>
80004306:	4401                	li	s0,0
80004308:	4901                	li	s2,0
8000430a:	4b85                	li	s7,1
8000430c:	bf0d                	j	8000423e <__divdf3+0x56>
8000430e:	4401                	li	s0,0
80004310:	7ff00913          	li	s2,2047
80004314:	4b89                	li	s7,2
80004316:	b725                	j	8000423e <__divdf3+0x56>
/home/xl_ci/toolchain/riscv-gnu-toolchain/riscv-gcc/libgcc/soft-fp/divdf3.c:45 (discriminator 2)
80004318:	0164efb3          	or	t6,s1,s6
8000431c:	060f8263          	beqz	t6,80004380 <__divdf3+0x198>
/home/xl_ci/toolchain/riscv-gnu-toolchain/riscv-gcc/libgcc/soft-fp/divdf3.c:45 (discriminator 13)
80004320:	c89d                	beqz	s1,80004356 <__divdf3+0x16e>
/home/xl_ci/toolchain/riscv-gnu-toolchain/riscv-gcc/libgcc/soft-fp/divdf3.c:45 (discriminator 17)
80004322:	8526                	mv	a0,s1
80004324:	3a2010ef          	jal	ra,800056c6 <__clzsi2>
80004328:	85aa                	mv	a1,a0
/home/xl_ci/toolchain/riscv-gnu-toolchain/riscv-gcc/libgcc/soft-fp/divdf3.c:45 (discriminator 31)
8000432a:	ff558793          	addi	a5,a1,-11
8000432e:	4771                	li	a4,28
80004330:	02f74963          	blt	a4,a5,80004362 <__divdf3+0x17a>
/home/xl_ci/toolchain/riscv-gnu-toolchain/riscv-gcc/libgcc/soft-fp/divdf3.c:45 (discriminator 32)
80004334:	46f5                	li	a3,29
80004336:	ff858f93          	addi	t6,a1,-8
8000433a:	8e9d                	sub	a3,a3,a5
8000433c:	01f49533          	sll	a0,s1,t6
80004340:	00db56b3          	srl	a3,s6,a3
80004344:	00a6e4b3          	or	s1,a3,a0
80004348:	01fb1fb3          	sll	t6,s6,t6
/home/xl_ci/toolchain/riscv-gnu-toolchain/riscv-gcc/libgcc/soft-fp/divdf3.c:45 (discriminator 41)
8000434c:	c0d00693          	li	a3,-1011
80004350:	40b68533          	sub	a0,a3,a1
80004354:	b705                	j	80004274 <__divdf3+0x8c>
/home/xl_ci/toolchain/riscv-gnu-toolchain/riscv-gcc/libgcc/soft-fp/divdf3.c:45 (discriminator 24)
80004356:	855a                	mv	a0,s6
80004358:	36e010ef          	jal	ra,800056c6 <__clzsi2>
8000435c:	02050593          	addi	a1,a0,32
80004360:	b7e9                	j	8000432a <__divdf3+0x142>
/home/xl_ci/toolchain/riscv-gnu-toolchain/riscv-gcc/libgcc/soft-fp/divdf3.c:45 (discriminator 33)
80004362:	fd858513          	addi	a0,a1,-40
80004366:	00ab14b3          	sll	s1,s6,a0
8000436a:	4f81                	li	t6,0
8000436c:	b7c5                	j	8000434c <__divdf3+0x164>
/home/xl_ci/toolchain/riscv-gnu-toolchain/riscv-gcc/libgcc/soft-fp/divdf3.c:45 (discriminator 3)
8000436e:	0164efb3          	or	t6,s1,s6
80004372:	000f8b63          	beqz	t6,80004388 <__divdf3+0x1a0>
/home/xl_ci/toolchain/riscv-gnu-toolchain/riscv-gcc/libgcc/soft-fp/divdf3.c:45
80004376:	8fda                	mv	t6,s6
80004378:	7ff00513          	li	a0,2047
8000437c:	478d                	li	a5,3
8000437e:	bde5                	j	80004276 <__divdf3+0x8e>
80004380:	4481                	li	s1,0
80004382:	4501                	li	a0,0
80004384:	4785                	li	a5,1
80004386:	bdc5                	j	80004276 <__divdf3+0x8e>
80004388:	4481                	li	s1,0
8000438a:	7ff00513          	li	a0,2047
8000438e:	4789                	li	a5,2
80004390:	b5dd                	j	80004276 <__divdf3+0x8e>
/home/xl_ci/toolchain/riscv-gnu-toolchain/riscv-gcc/libgcc/soft-fp/divdf3.c:46 (discriminator 2)
80004392:	0154e663          	bltu	s1,s5,8000439e <__divdf3+0x1b6>
/home/xl_ci/toolchain/riscv-gnu-toolchain/riscv-gcc/libgcc/soft-fp/divdf3.c:46 (discriminator 11)
80004396:	2a9a9663          	bne	s5,s1,80004642 <__divdf3+0x45a>
/home/xl_ci/toolchain/riscv-gnu-toolchain/riscv-gcc/libgcc/soft-fp/divdf3.c:46 (discriminator 12)
8000439a:	2bf46463          	bltu	s0,t6,80004642 <__divdf3+0x45a>
/home/xl_ci/toolchain/riscv-gnu-toolchain/riscv-gcc/libgcc/soft-fp/divdf3.c:46 (discriminator 14)
8000439e:	01fa9613          	slli	a2,s5,0x1f
800043a2:	00145713          	srli	a4,s0,0x1
800043a6:	01f41793          	slli	a5,s0,0x1f
800043aa:	001ada93          	srli	s5,s5,0x1
800043ae:	00e66433          	or	s0,a2,a4
/home/xl_ci/toolchain/riscv-gnu-toolchain/riscv-gcc/libgcc/soft-fp/divdf3.c:46 (discriminator 19)
800043b2:	00849513          	slli	a0,s1,0x8
800043b6:	018fd893          	srli	a7,t6,0x18
800043ba:	00a8e8b3          	or	a7,a7,a0
800043be:	8141                	srli	a0,a0,0x10
800043c0:	02aade33          	divu	t3,s5,a0
800043c4:	01089e93          	slli	t4,a7,0x10
800043c8:	010ede93          	srli	t4,t4,0x10
800043cc:	01045713          	srli	a4,s0,0x10
800043d0:	008f9313          	slli	t1,t6,0x8
800043d4:	02aafab3          	remu	s5,s5,a0
800043d8:	8672                	mv	a2,t3
800043da:	03ce8833          	mul	a6,t4,t3
800043de:	0ac2                	slli	s5,s5,0x10
800043e0:	01576733          	or	a4,a4,s5
800043e4:	01077c63          	bgeu	a4,a6,800043fc <__divdf3+0x214>
/home/xl_ci/toolchain/riscv-gnu-toolchain/riscv-gcc/libgcc/soft-fp/divdf3.c:46 (discriminator 22)
800043e8:	9746                	add	a4,a4,a7
800043ea:	fffe0613          	addi	a2,t3,-1 # ffff <__stack_size+0xf7ff>
800043ee:	01176763          	bltu	a4,a7,800043fc <__divdf3+0x214>
/home/xl_ci/toolchain/riscv-gnu-toolchain/riscv-gcc/libgcc/soft-fp/divdf3.c:46 (discriminator 24)
800043f2:	01077563          	bgeu	a4,a6,800043fc <__divdf3+0x214>
/home/xl_ci/toolchain/riscv-gnu-toolchain/riscv-gcc/libgcc/soft-fp/divdf3.c:46 (discriminator 26)
800043f6:	ffee0613          	addi	a2,t3,-2
800043fa:	9746                	add	a4,a4,a7
/home/xl_ci/toolchain/riscv-gnu-toolchain/riscv-gcc/libgcc/soft-fp/divdf3.c:46 (discriminator 28)
800043fc:	41070733          	sub	a4,a4,a6
80004400:	02a75e33          	divu	t3,a4,a0
80004404:	0442                	slli	s0,s0,0x10
80004406:	8041                	srli	s0,s0,0x10
80004408:	02a77733          	remu	a4,a4,a0
8000440c:	82f2                	mv	t0,t3
8000440e:	03ce8833          	mul	a6,t4,t3
80004412:	0742                	slli	a4,a4,0x10
80004414:	8f41                	or	a4,a4,s0
80004416:	01077c63          	bgeu	a4,a6,8000442e <__divdf3+0x246>
/home/xl_ci/toolchain/riscv-gnu-toolchain/riscv-gcc/libgcc/soft-fp/divdf3.c:46 (discriminator 29)
8000441a:	9746                	add	a4,a4,a7
8000441c:	fffe0293          	addi	t0,t3,-1
80004420:	01176763          	bltu	a4,a7,8000442e <__divdf3+0x246>
/home/xl_ci/toolchain/riscv-gnu-toolchain/riscv-gcc/libgcc/soft-fp/divdf3.c:46 (discriminator 31)
80004424:	01077563          	bgeu	a4,a6,8000442e <__divdf3+0x246>
/home/xl_ci/toolchain/riscv-gnu-toolchain/riscv-gcc/libgcc/soft-fp/divdf3.c:46 (discriminator 33)
80004428:	ffee0293          	addi	t0,t3,-2
8000442c:	9746                	add	a4,a4,a7
/home/xl_ci/toolchain/riscv-gnu-toolchain/riscv-gcc/libgcc/soft-fp/divdf3.c:46 (discriminator 35)
8000442e:	41070433          	sub	s0,a4,a6
80004432:	0642                	slli	a2,a2,0x10
80004434:	6841                	lui	a6,0x10
80004436:	005662b3          	or	t0,a2,t0
8000443a:	fff80e13          	addi	t3,a6,-1 # ffff <__stack_size+0xf7ff>
8000443e:	0102d613          	srli	a2,t0,0x10
80004442:	01c2f733          	and	a4,t0,t3
80004446:	01035f13          	srli	t5,t1,0x10
8000444a:	01c37e33          	and	t3,t1,t3
8000444e:	02ee03b3          	mul	t2,t3,a4
80004452:	03c604b3          	mul	s1,a2,t3
80004456:	02ef0733          	mul	a4,t5,a4
8000445a:	03e60fb3          	mul	t6,a2,t5
8000445e:	00970633          	add	a2,a4,s1
80004462:	0103d713          	srli	a4,t2,0x10
80004466:	9732                	add	a4,a4,a2
80004468:	00977363          	bgeu	a4,s1,8000446e <__divdf3+0x286>
/home/xl_ci/toolchain/riscv-gnu-toolchain/riscv-gcc/libgcc/soft-fp/divdf3.c:46 (discriminator 36)
8000446c:	9fc2                	add	t6,t6,a6
/home/xl_ci/toolchain/riscv-gnu-toolchain/riscv-gcc/libgcc/soft-fp/divdf3.c:46 (discriminator 38)
8000446e:	01075613          	srli	a2,a4,0x10
80004472:	967e                	add	a2,a2,t6
80004474:	6fc1                	lui	t6,0x10
80004476:	1ffd                	addi	t6,t6,-1
80004478:	01f77833          	and	a6,a4,t6
8000447c:	0842                	slli	a6,a6,0x10
8000447e:	01f3f3b3          	and	t2,t2,t6
80004482:	981e                	add	a6,a6,t2
80004484:	00c46763          	bltu	s0,a2,80004492 <__divdf3+0x2aa>
/home/xl_ci/toolchain/riscv-gnu-toolchain/riscv-gcc/libgcc/soft-fp/divdf3.c:46 (discriminator 40)
80004488:	8496                	mv	s1,t0
8000448a:	02c41e63          	bne	s0,a2,800044c6 <__divdf3+0x2de>
/home/xl_ci/toolchain/riscv-gnu-toolchain/riscv-gcc/libgcc/soft-fp/divdf3.c:46 (discriminator 41)
8000448e:	0307fc63          	bgeu	a5,a6,800044c6 <__divdf3+0x2de>
/home/xl_ci/toolchain/riscv-gnu-toolchain/riscv-gcc/libgcc/soft-fp/divdf3.c:46 (discriminator 43)
80004492:	979a                	add	a5,a5,t1
80004494:	0067b733          	sltu	a4,a5,t1
80004498:	9746                	add	a4,a4,a7
8000449a:	943a                	add	s0,s0,a4
8000449c:	fff28493          	addi	s1,t0,-1
800044a0:	0088e663          	bltu	a7,s0,800044ac <__divdf3+0x2c4>
/home/xl_ci/toolchain/riscv-gnu-toolchain/riscv-gcc/libgcc/soft-fp/divdf3.c:46 (discriminator 46)
800044a4:	02889163          	bne	a7,s0,800044c6 <__divdf3+0x2de>
/home/xl_ci/toolchain/riscv-gnu-toolchain/riscv-gcc/libgcc/soft-fp/divdf3.c:46 (discriminator 47)
800044a8:	0067ef63          	bltu	a5,t1,800044c6 <__divdf3+0x2de>
/home/xl_ci/toolchain/riscv-gnu-toolchain/riscv-gcc/libgcc/soft-fp/divdf3.c:46 (discriminator 49)
800044ac:	00c46663          	bltu	s0,a2,800044b8 <__divdf3+0x2d0>
/home/xl_ci/toolchain/riscv-gnu-toolchain/riscv-gcc/libgcc/soft-fp/divdf3.c:46 (discriminator 52)
800044b0:	00861b63          	bne	a2,s0,800044c6 <__divdf3+0x2de>
/home/xl_ci/toolchain/riscv-gnu-toolchain/riscv-gcc/libgcc/soft-fp/divdf3.c:46 (discriminator 53)
800044b4:	0107f963          	bgeu	a5,a6,800044c6 <__divdf3+0x2de>
/home/xl_ci/toolchain/riscv-gnu-toolchain/riscv-gcc/libgcc/soft-fp/divdf3.c:46 (discriminator 55)
800044b8:	979a                	add	a5,a5,t1
800044ba:	0067b733          	sltu	a4,a5,t1
800044be:	9746                	add	a4,a4,a7
800044c0:	ffe28493          	addi	s1,t0,-2
800044c4:	943a                	add	s0,s0,a4
/home/xl_ci/toolchain/riscv-gnu-toolchain/riscv-gcc/libgcc/soft-fp/divdf3.c:46 (discriminator 57)
800044c6:	41078833          	sub	a6,a5,a6
800044ca:	8c11                	sub	s0,s0,a2
800044cc:	0107b7b3          	sltu	a5,a5,a6
800044d0:	8c1d                	sub	s0,s0,a5
800044d2:	5ffd                	li	t6,-1
800044d4:	0e888763          	beq	a7,s0,800045c2 <__divdf3+0x3da>
/home/xl_ci/toolchain/riscv-gnu-toolchain/riscv-gcc/libgcc/soft-fp/divdf3.c:46 (discriminator 59)
800044d8:	02a45fb3          	divu	t6,s0,a0
800044dc:	01085713          	srli	a4,a6,0x10
800044e0:	02a47433          	remu	s0,s0,a0
800044e4:	867e                	mv	a2,t6
800044e6:	03fe87b3          	mul	a5,t4,t6
800044ea:	0442                	slli	s0,s0,0x10
800044ec:	8c59                	or	s0,s0,a4
800044ee:	00f47c63          	bgeu	s0,a5,80004506 <__divdf3+0x31e>
/home/xl_ci/toolchain/riscv-gnu-toolchain/riscv-gcc/libgcc/soft-fp/divdf3.c:46 (discriminator 61)
800044f2:	9446                	add	s0,s0,a7
800044f4:	ffff8613          	addi	a2,t6,-1 # ffff <__stack_size+0xf7ff>
800044f8:	01146763          	bltu	s0,a7,80004506 <__divdf3+0x31e>
/home/xl_ci/toolchain/riscv-gnu-toolchain/riscv-gcc/libgcc/soft-fp/divdf3.c:46 (discriminator 63)
800044fc:	00f47563          	bgeu	s0,a5,80004506 <__divdf3+0x31e>
/home/xl_ci/toolchain/riscv-gnu-toolchain/riscv-gcc/libgcc/soft-fp/divdf3.c:46 (discriminator 65)
80004500:	ffef8613          	addi	a2,t6,-2
80004504:	9446                	add	s0,s0,a7
/home/xl_ci/toolchain/riscv-gnu-toolchain/riscv-gcc/libgcc/soft-fp/divdf3.c:46 (discriminator 67)
80004506:	8c1d                	sub	s0,s0,a5
80004508:	02a45733          	divu	a4,s0,a0
8000450c:	0842                	slli	a6,a6,0x10
8000450e:	01085813          	srli	a6,a6,0x10
80004512:	02a47433          	remu	s0,s0,a0
80004516:	87ba                	mv	a5,a4
80004518:	02ee8eb3          	mul	t4,t4,a4
8000451c:	0442                	slli	s0,s0,0x10
8000451e:	00886433          	or	s0,a6,s0
80004522:	01d47c63          	bgeu	s0,t4,8000453a <__divdf3+0x352>
/home/xl_ci/toolchain/riscv-gnu-toolchain/riscv-gcc/libgcc/soft-fp/divdf3.c:46 (discriminator 68)
80004526:	9446                	add	s0,s0,a7
80004528:	fff70793          	addi	a5,a4,-1 # ff7fffff <_sp+0x6f7effff>
8000452c:	01146763          	bltu	s0,a7,8000453a <__divdf3+0x352>
/home/xl_ci/toolchain/riscv-gnu-toolchain/riscv-gcc/libgcc/soft-fp/divdf3.c:46 (discriminator 70)
80004530:	01d47563          	bgeu	s0,t4,8000453a <__divdf3+0x352>
/home/xl_ci/toolchain/riscv-gnu-toolchain/riscv-gcc/libgcc/soft-fp/divdf3.c:46 (discriminator 72)
80004534:	ffe70793          	addi	a5,a4,-2
80004538:	9446                	add	s0,s0,a7
/home/xl_ci/toolchain/riscv-gnu-toolchain/riscv-gcc/libgcc/soft-fp/divdf3.c:46 (discriminator 74)
8000453a:	0642                	slli	a2,a2,0x10
8000453c:	8e5d                	or	a2,a2,a5
8000453e:	01061793          	slli	a5,a2,0x10
80004542:	83c1                	srli	a5,a5,0x10
80004544:	01065713          	srli	a4,a2,0x10
80004548:	02ef0833          	mul	a6,t5,a4
8000454c:	41d40433          	sub	s0,s0,t4
80004550:	02ff0f33          	mul	t5,t5,a5
80004554:	03c78eb3          	mul	t4,a5,t3
80004558:	03c70e33          	mul	t3,a4,t3
8000455c:	010ed793          	srli	a5,t4,0x10
80004560:	9f72                	add	t5,t5,t3
80004562:	97fa                	add	a5,a5,t5
80004564:	01c7f463          	bgeu	a5,t3,8000456c <__divdf3+0x384>
/home/xl_ci/toolchain/riscv-gnu-toolchain/riscv-gcc/libgcc/soft-fp/divdf3.c:46 (discriminator 75)
80004568:	6741                	lui	a4,0x10
8000456a:	983a                	add	a6,a6,a4
/home/xl_ci/toolchain/riscv-gnu-toolchain/riscv-gcc/libgcc/soft-fp/divdf3.c:46 (discriminator 77)
8000456c:	0107d713          	srli	a4,a5,0x10
80004570:	9742                	add	a4,a4,a6
80004572:	6841                	lui	a6,0x10
80004574:	187d                	addi	a6,a6,-1
80004576:	0107f533          	and	a0,a5,a6
8000457a:	0542                	slli	a0,a0,0x10
8000457c:	010efeb3          	and	t4,t4,a6
80004580:	9576                	add	a0,a0,t4
80004582:	00e46663          	bltu	s0,a4,8000458e <__divdf3+0x3a6>
/home/xl_ci/toolchain/riscv-gnu-toolchain/riscv-gcc/libgcc/soft-fp/divdf3.c:46 (discriminator 79)
80004586:	18e41f63          	bne	s0,a4,80004724 <__divdf3+0x53c>
/home/xl_ci/toolchain/riscv-gnu-toolchain/riscv-gcc/libgcc/soft-fp/divdf3.c:46 (discriminator 80)
8000458a:	8fb2                	mv	t6,a2
8000458c:	c91d                	beqz	a0,800045c2 <__divdf3+0x3da>
/home/xl_ci/toolchain/riscv-gnu-toolchain/riscv-gcc/libgcc/soft-fp/divdf3.c:46 (discriminator 82)
8000458e:	9446                	add	s0,s0,a7
80004590:	fff60f93          	addi	t6,a2,-1
80004594:	03146163          	bltu	s0,a7,800045b6 <__divdf3+0x3ce>
/home/xl_ci/toolchain/riscv-gnu-toolchain/riscv-gcc/libgcc/soft-fp/divdf3.c:46 (discriminator 88)
80004598:	00e46663          	bltu	s0,a4,800045a4 <__divdf3+0x3bc>
/home/xl_ci/toolchain/riscv-gnu-toolchain/riscv-gcc/libgcc/soft-fp/divdf3.c:46 (discriminator 91)
8000459c:	18e41363          	bne	s0,a4,80004722 <__divdf3+0x53a>
/home/xl_ci/toolchain/riscv-gnu-toolchain/riscv-gcc/libgcc/soft-fp/divdf3.c:46 (discriminator 92)
800045a0:	00a37d63          	bgeu	t1,a0,800045ba <__divdf3+0x3d2>
/home/xl_ci/toolchain/riscv-gnu-toolchain/riscv-gcc/libgcc/soft-fp/divdf3.c:46 (discriminator 94)
800045a4:	00131793          	slli	a5,t1,0x1
800045a8:	0067b333          	sltu	t1,a5,t1
800045ac:	989a                	add	a7,a7,t1
800045ae:	ffe60f93          	addi	t6,a2,-2
800045b2:	9446                	add	s0,s0,a7
800045b4:	833e                	mv	t1,a5
/home/xl_ci/toolchain/riscv-gnu-toolchain/riscv-gcc/libgcc/soft-fp/divdf3.c:46 (discriminator 96)
800045b6:	00e41463          	bne	s0,a4,800045be <__divdf3+0x3d6>
/home/xl_ci/toolchain/riscv-gnu-toolchain/riscv-gcc/libgcc/soft-fp/divdf3.c:46 (discriminator 98)
800045ba:	00650463          	beq	a0,t1,800045c2 <__divdf3+0x3da>
/home/xl_ci/toolchain/riscv-gnu-toolchain/riscv-gcc/libgcc/soft-fp/divdf3.c:46 (discriminator 99)
800045be:	001fef93          	ori	t6,t6,1
/home/xl_ci/toolchain/riscv-gnu-toolchain/riscv-gcc/libgcc/soft-fp/divdf3.c:47 (discriminator 2)
800045c2:	3ff58793          	addi	a5,a1,1023
800045c6:	0af05b63          	blez	a5,8000467c <__divdf3+0x494>
/home/xl_ci/toolchain/riscv-gnu-toolchain/riscv-gcc/libgcc/soft-fp/divdf3.c:47 (discriminator 6)
800045ca:	007ff713          	andi	a4,t6,7
800045ce:	cf01                	beqz	a4,800045e6 <__divdf3+0x3fe>
/home/xl_ci/toolchain/riscv-gnu-toolchain/riscv-gcc/libgcc/soft-fp/divdf3.c:47 (discriminator 8)
800045d0:	00fff713          	andi	a4,t6,15
800045d4:	4611                	li	a2,4
800045d6:	00c70863          	beq	a4,a2,800045e6 <__divdf3+0x3fe>
/home/xl_ci/toolchain/riscv-gnu-toolchain/riscv-gcc/libgcc/soft-fp/divdf3.c:47 (discriminator 10)
800045da:	004f8613          	addi	a2,t6,4
800045de:	01f63fb3          	sltu	t6,a2,t6
800045e2:	94fe                	add	s1,s1,t6
800045e4:	8fb2                	mv	t6,a2
/home/xl_ci/toolchain/riscv-gnu-toolchain/riscv-gcc/libgcc/soft-fp/divdf3.c:47 (discriminator 9)
800045e6:	01000737          	lui	a4,0x1000
800045ea:	8f65                	and	a4,a4,s1
800045ec:	c719                	beqz	a4,800045fa <__divdf3+0x412>
/home/xl_ci/toolchain/riscv-gnu-toolchain/riscv-gcc/libgcc/soft-fp/divdf3.c:47 (discriminator 24)
800045ee:	ff0007b7          	lui	a5,0xff000
800045f2:	17fd                	addi	a5,a5,-1
800045f4:	8cfd                	and	s1,s1,a5
800045f6:	40058793          	addi	a5,a1,1024
/home/xl_ci/toolchain/riscv-gnu-toolchain/riscv-gcc/libgcc/soft-fp/divdf3.c:47 (discriminator 26)
800045fa:	7fe00713          	li	a4,2046
800045fe:	06f74263          	blt	a4,a5,80004662 <__divdf3+0x47a>
/home/xl_ci/toolchain/riscv-gnu-toolchain/riscv-gcc/libgcc/soft-fp/divdf3.c:47
80004602:	003fdf93          	srli	t6,t6,0x3
80004606:	01d49713          	slli	a4,s1,0x1d
8000460a:	01f76733          	or	a4,a4,t6
8000460e:	0034d513          	srli	a0,s1,0x3
/home/xl_ci/toolchain/riscv-gnu-toolchain/riscv-gcc/libgcc/soft-fp/divdf3.c:47 (discriminator 119)
80004612:	07d2                	slli	a5,a5,0x14
80004614:	7ff00637          	lui	a2,0x7ff00
80004618:	0532                	slli	a0,a0,0xc
/home/xl_ci/toolchain/riscv-gnu-toolchain/riscv-gcc/libgcc/soft-fp/divdf3.c:51 (discriminator 119)
8000461a:	50b2                	lw	ra,44(sp)
8000461c:	5422                	lw	s0,40(sp)
/home/xl_ci/toolchain/riscv-gnu-toolchain/riscv-gcc/libgcc/soft-fp/divdf3.c:47 (discriminator 119)
8000461e:	8ff1                	and	a5,a5,a2
80004620:	8131                	srli	a0,a0,0xc
80004622:	8d5d                	or	a0,a0,a5
80004624:	06fe                	slli	a3,a3,0x1f
80004626:	00d567b3          	or	a5,a0,a3
/home/xl_ci/toolchain/riscv-gnu-toolchain/riscv-gcc/libgcc/soft-fp/divdf3.c:51 (discriminator 119)
8000462a:	5492                	lw	s1,36(sp)
8000462c:	5902                	lw	s2,32(sp)
8000462e:	49f2                	lw	s3,28(sp)
80004630:	4a62                	lw	s4,24(sp)
80004632:	4ad2                	lw	s5,20(sp)
80004634:	4b42                	lw	s6,16(sp)
80004636:	4bb2                	lw	s7,12(sp)
80004638:	4c22                	lw	s8,8(sp)
8000463a:	853a                	mv	a0,a4
8000463c:	85be                	mv	a1,a5
8000463e:	6145                	addi	sp,sp,48
80004640:	8082                	ret
/home/xl_ci/toolchain/riscv-gnu-toolchain/riscv-gcc/libgcc/soft-fp/divdf3.c:46 (discriminator 15)
80004642:	15fd                	addi	a1,a1,-1
80004644:	4781                	li	a5,0
80004646:	b3b5                	j	800043b2 <__divdf3+0x1ca>
/home/xl_ci/toolchain/riscv-gnu-toolchain/riscv-gcc/libgcc/soft-fp/divdf3.c:44 (discriminator 8)
80004648:	86ce                	mv	a3,s3
/home/xl_ci/toolchain/riscv-gnu-toolchain/riscv-gcc/libgcc/soft-fp/divdf3.c:46 (discriminator 8)
8000464a:	84d6                	mv	s1,s5
8000464c:	8fa2                	mv	t6,s0
8000464e:	87de                	mv	a5,s7
/home/xl_ci/toolchain/riscv-gnu-toolchain/riscv-gcc/libgcc/soft-fp/divdf3.c:47 (discriminator 108)
80004650:	470d                	li	a4,3
80004652:	0ae78a63          	beq	a5,a4,80004706 <__divdf3+0x51e>
/home/xl_ci/toolchain/riscv-gnu-toolchain/riscv-gcc/libgcc/soft-fp/divdf3.c:47
80004656:	4705                	li	a4,1
80004658:	0ae78e63          	beq	a5,a4,80004714 <__divdf3+0x52c>
8000465c:	4709                	li	a4,2
8000465e:	f6e792e3          	bne	a5,a4,800045c2 <__divdf3+0x3da>
80004662:	4501                	li	a0,0
80004664:	4701                	li	a4,0
80004666:	7ff00793          	li	a5,2047
8000466a:	b765                	j	80004612 <__divdf3+0x42a>
/home/xl_ci/toolchain/riscv-gnu-toolchain/riscv-gcc/libgcc/soft-fp/divdf3.c:45 (discriminator 5)
8000466c:	86e2                	mv	a3,s8
/home/xl_ci/toolchain/riscv-gnu-toolchain/riscv-gcc/libgcc/soft-fp/divdf3.c:46 (discriminator 5)
8000466e:	b7cd                	j	80004650 <__divdf3+0x468>
/home/xl_ci/toolchain/riscv-gnu-toolchain/riscv-gcc/libgcc/soft-fp/divdf3.c:46
80004670:	000804b7          	lui	s1,0x80
80004674:	4f81                	li	t6,0
80004676:	4681                	li	a3,0
80004678:	478d                	li	a5,3
8000467a:	bfd9                	j	80004650 <__divdf3+0x468>
/home/xl_ci/toolchain/riscv-gnu-toolchain/riscv-gcc/libgcc/soft-fp/divdf3.c:47 (discriminator 59)
8000467c:	4505                	li	a0,1
8000467e:	8d1d                	sub	a0,a0,a5
80004680:	03800713          	li	a4,56
80004684:	08a74863          	blt	a4,a0,80004714 <__divdf3+0x52c>
/home/xl_ci/toolchain/riscv-gnu-toolchain/riscv-gcc/libgcc/soft-fp/divdf3.c:47 (discriminator 60)
80004688:	477d                	li	a4,31
8000468a:	04a74963          	blt	a4,a0,800046dc <__divdf3+0x4f4>
/home/xl_ci/toolchain/riscv-gnu-toolchain/riscv-gcc/libgcc/soft-fp/divdf3.c:47 (discriminator 62)
8000468e:	41e58593          	addi	a1,a1,1054
80004692:	00b497b3          	sll	a5,s1,a1
80004696:	00afd733          	srl	a4,t6,a0
8000469a:	00bf95b3          	sll	a1,t6,a1
8000469e:	8fd9                	or	a5,a5,a4
800046a0:	00b035b3          	snez	a1,a1
800046a4:	8fcd                	or	a5,a5,a1
800046a6:	00a4d533          	srl	a0,s1,a0
/home/xl_ci/toolchain/riscv-gnu-toolchain/riscv-gcc/libgcc/soft-fp/divdf3.c:47 (discriminator 75)
800046aa:	0077f713          	andi	a4,a5,7
800046ae:	cf01                	beqz	a4,800046c6 <__divdf3+0x4de>
/home/xl_ci/toolchain/riscv-gnu-toolchain/riscv-gcc/libgcc/soft-fp/divdf3.c:47 (discriminator 76)
800046b0:	00f7f713          	andi	a4,a5,15
800046b4:	4611                	li	a2,4
800046b6:	00c70863          	beq	a4,a2,800046c6 <__divdf3+0x4de>
/home/xl_ci/toolchain/riscv-gnu-toolchain/riscv-gcc/libgcc/soft-fp/divdf3.c:47 (discriminator 78)
800046ba:	00478713          	addi	a4,a5,4 # ff000004 <_sp+0x6eff0004>
800046be:	00f737b3          	sltu	a5,a4,a5
800046c2:	953e                	add	a0,a0,a5
800046c4:	87ba                	mv	a5,a4
/home/xl_ci/toolchain/riscv-gnu-toolchain/riscv-gcc/libgcc/soft-fp/divdf3.c:47 (discriminator 77)
800046c6:	00800737          	lui	a4,0x800
800046ca:	8f69                	and	a4,a4,a0
800046cc:	e739                	bnez	a4,8000471a <__divdf3+0x532>
/home/xl_ci/toolchain/riscv-gnu-toolchain/riscv-gcc/libgcc/soft-fp/divdf3.c:47 (discriminator 93)
800046ce:	01d51713          	slli	a4,a0,0x1d
800046d2:	838d                	srli	a5,a5,0x3
800046d4:	8f5d                	or	a4,a4,a5
800046d6:	810d                	srli	a0,a0,0x3
/home/xl_ci/toolchain/riscv-gnu-toolchain/riscv-gcc/libgcc/soft-fp/divdf3.c:47
800046d8:	4781                	li	a5,0
800046da:	bf25                	j	80004612 <__divdf3+0x42a>
/home/xl_ci/toolchain/riscv-gnu-toolchain/riscv-gcc/libgcc/soft-fp/divdf3.c:47 (discriminator 63)
800046dc:	5705                	li	a4,-31
800046de:	40f707b3          	sub	a5,a4,a5
800046e2:	02000613          	li	a2,32
800046e6:	00f4d7b3          	srl	a5,s1,a5
800046ea:	4701                	li	a4,0
800046ec:	00c50663          	beq	a0,a2,800046f8 <__divdf3+0x510>
/home/xl_ci/toolchain/riscv-gnu-toolchain/riscv-gcc/libgcc/soft-fp/divdf3.c:47 (discriminator 71)
800046f0:	43e58713          	addi	a4,a1,1086
800046f4:	00e49733          	sll	a4,s1,a4
/home/xl_ci/toolchain/riscv-gnu-toolchain/riscv-gcc/libgcc/soft-fp/divdf3.c:47 (discriminator 74)
800046f8:	01f76733          	or	a4,a4,t6
800046fc:	00e03733          	snez	a4,a4
80004700:	8fd9                	or	a5,a5,a4
80004702:	4501                	li	a0,0
80004704:	b75d                	j	800046aa <__divdf3+0x4c2>
/home/xl_ci/toolchain/riscv-gnu-toolchain/riscv-gcc/libgcc/soft-fp/divdf3.c:47
80004706:	00080537          	lui	a0,0x80
8000470a:	4701                	li	a4,0
8000470c:	7ff00793          	li	a5,2047
80004710:	4681                	li	a3,0
80004712:	b701                	j	80004612 <__divdf3+0x42a>
80004714:	4501                	li	a0,0
80004716:	4701                	li	a4,0
80004718:	b7c1                	j	800046d8 <__divdf3+0x4f0>
8000471a:	4501                	li	a0,0
8000471c:	4701                	li	a4,0
8000471e:	4785                	li	a5,1
80004720:	bdcd                	j	80004612 <__divdf3+0x42a>
/home/xl_ci/toolchain/riscv-gnu-toolchain/riscv-gcc/libgcc/soft-fp/divdf3.c:46
80004722:	867e                	mv	a2,t6
80004724:	8fb2                	mv	t6,a2
80004726:	bd61                	j	800045be <__divdf3+0x3d6>

80004728 <__eqdf2>:
__eqdf2():
/home/xl_ci/toolchain/riscv-gnu-toolchain/riscv-gcc/libgcc/soft-fp/eqdf2.c:43
80004728:	0145d713          	srli	a4,a1,0x14
8000472c:	001007b7          	lui	a5,0x100
80004730:	17fd                	addi	a5,a5,-1
/home/xl_ci/toolchain/riscv-gnu-toolchain/riscv-gcc/libgcc/soft-fp/eqdf2.c:44
80004732:	0146d813          	srli	a6,a3,0x14
/home/xl_ci/toolchain/riscv-gnu-toolchain/riscv-gcc/libgcc/soft-fp/eqdf2.c:36
80004736:	832a                	mv	t1,a0
80004738:	8eaa                	mv	t4,a0
/home/xl_ci/toolchain/riscv-gnu-toolchain/riscv-gcc/libgcc/soft-fp/eqdf2.c:43
8000473a:	7ff77713          	andi	a4,a4,2047
/home/xl_ci/toolchain/riscv-gnu-toolchain/riscv-gcc/libgcc/soft-fp/eqdf2.c:45
8000473e:	7ff00513          	li	a0,2047
/home/xl_ci/toolchain/riscv-gnu-toolchain/riscv-gcc/libgcc/soft-fp/eqdf2.c:43
80004742:	00b7f8b3          	and	a7,a5,a1
80004746:	8f32                	mv	t5,a2
/home/xl_ci/toolchain/riscv-gnu-toolchain/riscv-gcc/libgcc/soft-fp/eqdf2.c:44
80004748:	8ff5                	and	a5,a5,a3
/home/xl_ci/toolchain/riscv-gnu-toolchain/riscv-gcc/libgcc/soft-fp/eqdf2.c:43
8000474a:	81fd                	srli	a1,a1,0x1f
/home/xl_ci/toolchain/riscv-gnu-toolchain/riscv-gcc/libgcc/soft-fp/eqdf2.c:44
8000474c:	7ff87813          	andi	a6,a6,2047
80004750:	82fd                	srli	a3,a3,0x1f
/home/xl_ci/toolchain/riscv-gnu-toolchain/riscv-gcc/libgcc/soft-fp/eqdf2.c:45
80004752:	00a71a63          	bne	a4,a0,80004766 <__eqdf2+0x3e>
/home/xl_ci/toolchain/riscv-gnu-toolchain/riscv-gcc/libgcc/soft-fp/eqdf2.c:45 (discriminator 20)
80004756:	0068ee33          	or	t3,a7,t1
8000475a:	4505                	li	a0,1
8000475c:	000e1463          	bnez	t3,80004764 <__eqdf2+0x3c>
/home/xl_ci/toolchain/riscv-gnu-toolchain/riscv-gcc/libgcc/soft-fp/eqdf2.c:45
80004760:	00e80563          	beq	a6,a4,8000476a <__eqdf2+0x42>
/home/xl_ci/toolchain/riscv-gnu-toolchain/riscv-gcc/libgcc/soft-fp/eqdf2.c:49
80004764:	8082                	ret
/home/xl_ci/toolchain/riscv-gnu-toolchain/riscv-gcc/libgcc/soft-fp/eqdf2.c:45 (discriminator 23)
80004766:	00a81563          	bne	a6,a0,80004770 <__eqdf2+0x48>
/home/xl_ci/toolchain/riscv-gnu-toolchain/riscv-gcc/libgcc/soft-fp/eqdf2.c:45 (discriminator 24)
8000476a:	8e5d                	or	a2,a2,a5
8000476c:	4505                	li	a0,1
8000476e:	fa7d                	bnez	a2,80004764 <__eqdf2+0x3c>
/home/xl_ci/toolchain/riscv-gnu-toolchain/riscv-gcc/libgcc/soft-fp/eqdf2.c:45 (discriminator 78)
80004770:	4505                	li	a0,1
80004772:	ff0719e3          	bne	a4,a6,80004764 <__eqdf2+0x3c>
/home/xl_ci/toolchain/riscv-gnu-toolchain/riscv-gcc/libgcc/soft-fp/eqdf2.c:45 (discriminator 80)
80004776:	fef897e3          	bne	a7,a5,80004764 <__eqdf2+0x3c>
/home/xl_ci/toolchain/riscv-gnu-toolchain/riscv-gcc/libgcc/soft-fp/eqdf2.c:45 (discriminator 82)
8000477a:	ffee95e3          	bne	t4,t5,80004764 <__eqdf2+0x3c>
/home/xl_ci/toolchain/riscv-gnu-toolchain/riscv-gcc/libgcc/soft-fp/eqdf2.c:45 (discriminator 84)
8000477e:	00d58863          	beq	a1,a3,8000478e <__eqdf2+0x66>
/home/xl_ci/toolchain/riscv-gnu-toolchain/riscv-gcc/libgcc/soft-fp/eqdf2.c:45 (discriminator 85)
80004782:	f36d                	bnez	a4,80004764 <__eqdf2+0x3c>
/home/xl_ci/toolchain/riscv-gnu-toolchain/riscv-gcc/libgcc/soft-fp/eqdf2.c:45 (discriminator 88)
80004784:	0068e533          	or	a0,a7,t1
80004788:	00a03533          	snez	a0,a0
8000478c:	8082                	ret
/home/xl_ci/toolchain/riscv-gnu-toolchain/riscv-gcc/libgcc/soft-fp/eqdf2.c:45
8000478e:	4501                	li	a0,0
80004790:	8082                	ret

80004792 <__gedf2>:
__gedf2():
/home/xl_ci/toolchain/riscv-gnu-toolchain/riscv-gcc/libgcc/soft-fp/gedf2.c:43
80004792:	00100737          	lui	a4,0x100
80004796:	177d                	addi	a4,a4,-1
80004798:	0145d813          	srli	a6,a1,0x14
8000479c:	00b778b3          	and	a7,a4,a1
/home/xl_ci/toolchain/riscv-gnu-toolchain/riscv-gcc/libgcc/soft-fp/gedf2.c:36
800047a0:	87aa                	mv	a5,a0
800047a2:	832a                	mv	t1,a0
/home/xl_ci/toolchain/riscv-gnu-toolchain/riscv-gcc/libgcc/soft-fp/gedf2.c:43
800047a4:	7ff87813          	andi	a6,a6,2047
800047a8:	01f5d513          	srli	a0,a1,0x1f
/home/xl_ci/toolchain/riscv-gnu-toolchain/riscv-gcc/libgcc/soft-fp/gedf2.c:45
800047ac:	7ff00e93          	li	t4,2047
/home/xl_ci/toolchain/riscv-gnu-toolchain/riscv-gcc/libgcc/soft-fp/gedf2.c:44
800047b0:	0146d593          	srli	a1,a3,0x14
800047b4:	8f75                	and	a4,a4,a3
800047b6:	8e32                	mv	t3,a2
800047b8:	7ff5f593          	andi	a1,a1,2047
800047bc:	82fd                	srli	a3,a3,0x1f
/home/xl_ci/toolchain/riscv-gnu-toolchain/riscv-gcc/libgcc/soft-fp/gedf2.c:45
800047be:	01d81863          	bne	a6,t4,800047ce <__gedf2+0x3c>
/home/xl_ci/toolchain/riscv-gnu-toolchain/riscv-gcc/libgcc/soft-fp/gedf2.c:45 (discriminator 20)
800047c2:	00f8eeb3          	or	t4,a7,a5
800047c6:	060e8463          	beqz	t4,8000482e <__gedf2+0x9c>
/home/xl_ci/toolchain/riscv-gnu-toolchain/riscv-gcc/libgcc/soft-fp/gedf2.c:45
800047ca:	5579                	li	a0,-2
800047cc:	8082                	ret
/home/xl_ci/toolchain/riscv-gnu-toolchain/riscv-gcc/libgcc/soft-fp/gedf2.c:45 (discriminator 23)
800047ce:	01d59663          	bne	a1,t4,800047da <__gedf2+0x48>
/home/xl_ci/toolchain/riscv-gnu-toolchain/riscv-gcc/libgcc/soft-fp/gedf2.c:45 (discriminator 24)
800047d2:	00c76eb3          	or	t4,a4,a2
800047d6:	fe0e9ae3          	bnez	t4,800047ca <__gedf2+0x38>
/home/xl_ci/toolchain/riscv-gnu-toolchain/riscv-gcc/libgcc/soft-fp/gedf2.c:45 (discriminator 62)
800047da:	04081c63          	bnez	a6,80004832 <__gedf2+0xa0>
/home/xl_ci/toolchain/riscv-gnu-toolchain/riscv-gcc/libgcc/soft-fp/gedf2.c:45 (discriminator 63)
800047de:	00f8e7b3          	or	a5,a7,a5
800047e2:	0017b793          	seqz	a5,a5
800047e6:	e199                	bnez	a1,800047ec <__gedf2+0x5a>
/home/xl_ci/toolchain/riscv-gnu-toolchain/riscv-gcc/libgcc/soft-fp/gedf2.c:45 (discriminator 69)
800047e8:	8e59                	or	a2,a2,a4
800047ea:	ce0d                	beqz	a2,80004824 <__gedf2+0x92>
/home/xl_ci/toolchain/riscv-gnu-toolchain/riscv-gcc/libgcc/soft-fp/gedf2.c:45
800047ec:	eb81                	bnez	a5,800047fc <__gedf2+0x6a>
800047ee:	00d51463          	bne	a0,a3,800047f6 <__gedf2+0x64>
/home/xl_ci/toolchain/riscv-gnu-toolchain/riscv-gcc/libgcc/soft-fp/gedf2.c:45 (discriminator 95)
800047f2:	0105d963          	bge	a1,a6,80004804 <__gedf2+0x72>
/home/xl_ci/toolchain/riscv-gnu-toolchain/riscv-gcc/libgcc/soft-fp/gedf2.c:45 (discriminator 119)
800047f6:	c50d                	beqz	a0,80004820 <__gedf2+0x8e>
/home/xl_ci/toolchain/riscv-gnu-toolchain/riscv-gcc/libgcc/soft-fp/gedf2.c:45
800047f8:	557d                	li	a0,-1
800047fa:	8082                	ret
/home/xl_ci/toolchain/riscv-gnu-toolchain/riscv-gcc/libgcc/soft-fp/gedf2.c:45 (discriminator 80)
800047fc:	557d                	li	a0,-1
800047fe:	c691                	beqz	a3,8000480a <__gedf2+0x78>
/home/xl_ci/toolchain/riscv-gnu-toolchain/riscv-gcc/libgcc/soft-fp/gedf2.c:45
80004800:	8536                	mv	a0,a3
80004802:	8082                	ret
/home/xl_ci/toolchain/riscv-gnu-toolchain/riscv-gcc/libgcc/soft-fp/gedf2.c:45 (discriminator 102)
80004804:	00b85463          	bge	a6,a1,8000480c <__gedf2+0x7a>
/home/xl_ci/toolchain/riscv-gnu-toolchain/riscv-gcc/libgcc/soft-fp/gedf2.c:45 (discriminator 130)
80004808:	d965                	beqz	a0,800047f8 <__gedf2+0x66>
/home/xl_ci/toolchain/riscv-gnu-toolchain/riscv-gcc/libgcc/soft-fp/gedf2.c:49
8000480a:	8082                	ret
/home/xl_ci/toolchain/riscv-gnu-toolchain/riscv-gcc/libgcc/soft-fp/gedf2.c:45 (discriminator 109)
8000480c:	ff1765e3          	bltu	a4,a7,800047f6 <__gedf2+0x64>
/home/xl_ci/toolchain/riscv-gnu-toolchain/riscv-gcc/libgcc/soft-fp/gedf2.c:45 (discriminator 116)
80004810:	00e89c63          	bne	a7,a4,80004828 <__gedf2+0x96>
/home/xl_ci/toolchain/riscv-gnu-toolchain/riscv-gcc/libgcc/soft-fp/gedf2.c:45 (discriminator 117)
80004814:	fe6e61e3          	bltu	t3,t1,800047f6 <__gedf2+0x64>
/home/xl_ci/toolchain/riscv-gnu-toolchain/riscv-gcc/libgcc/soft-fp/gedf2.c:45 (discriminator 128)
80004818:	ffc368e3          	bltu	t1,t3,80004808 <__gedf2+0x76>
/home/xl_ci/toolchain/riscv-gnu-toolchain/riscv-gcc/libgcc/soft-fp/gedf2.c:45
8000481c:	4501                	li	a0,0
8000481e:	8082                	ret
80004820:	4505                	li	a0,1
80004822:	8082                	ret
80004824:	ffe5                	bnez	a5,8000481c <__gedf2+0x8a>
80004826:	bfc1                	j	800047f6 <__gedf2+0x64>
80004828:	fee8e0e3          	bltu	a7,a4,80004808 <__gedf2+0x76>
8000482c:	bfc5                	j	8000481c <__gedf2+0x8a>
8000482e:	fb0582e3          	beq	a1,a6,800047d2 <__gedf2+0x40>
80004832:	fdd5                	bnez	a1,800047ee <__gedf2+0x5c>
80004834:	4781                	li	a5,0
80004836:	bf4d                	j	800047e8 <__gedf2+0x56>

80004838 <__ledf2>:
__ledf2():
/home/xl_ci/toolchain/riscv-gnu-toolchain/riscv-gcc/libgcc/soft-fp/ledf2.c:43
80004838:	00100737          	lui	a4,0x100
8000483c:	177d                	addi	a4,a4,-1
8000483e:	0145d813          	srli	a6,a1,0x14
80004842:	00b778b3          	and	a7,a4,a1
/home/xl_ci/toolchain/riscv-gnu-toolchain/riscv-gcc/libgcc/soft-fp/ledf2.c:36
80004846:	87aa                	mv	a5,a0
80004848:	832a                	mv	t1,a0
/home/xl_ci/toolchain/riscv-gnu-toolchain/riscv-gcc/libgcc/soft-fp/ledf2.c:43
8000484a:	7ff87813          	andi	a6,a6,2047
8000484e:	01f5d513          	srli	a0,a1,0x1f
/home/xl_ci/toolchain/riscv-gnu-toolchain/riscv-gcc/libgcc/soft-fp/ledf2.c:45
80004852:	7ff00e93          	li	t4,2047
/home/xl_ci/toolchain/riscv-gnu-toolchain/riscv-gcc/libgcc/soft-fp/ledf2.c:44
80004856:	0146d593          	srli	a1,a3,0x14
8000485a:	8f75                	and	a4,a4,a3
8000485c:	8e32                	mv	t3,a2
8000485e:	7ff5f593          	andi	a1,a1,2047
80004862:	82fd                	srli	a3,a3,0x1f
/home/xl_ci/toolchain/riscv-gnu-toolchain/riscv-gcc/libgcc/soft-fp/ledf2.c:45
80004864:	01d81863          	bne	a6,t4,80004874 <__ledf2+0x3c>
/home/xl_ci/toolchain/riscv-gnu-toolchain/riscv-gcc/libgcc/soft-fp/ledf2.c:45 (discriminator 20)
80004868:	00f8eeb3          	or	t4,a7,a5
8000486c:	060e8463          	beqz	t4,800048d4 <__ledf2+0x9c>
/home/xl_ci/toolchain/riscv-gnu-toolchain/riscv-gcc/libgcc/soft-fp/ledf2.c:45
80004870:	4509                	li	a0,2
80004872:	8082                	ret
/home/xl_ci/toolchain/riscv-gnu-toolchain/riscv-gcc/libgcc/soft-fp/ledf2.c:45 (discriminator 23)
80004874:	01d59663          	bne	a1,t4,80004880 <__ledf2+0x48>
/home/xl_ci/toolchain/riscv-gnu-toolchain/riscv-gcc/libgcc/soft-fp/ledf2.c:45 (discriminator 24)
80004878:	00c76eb3          	or	t4,a4,a2
8000487c:	fe0e9ae3          	bnez	t4,80004870 <__ledf2+0x38>
/home/xl_ci/toolchain/riscv-gnu-toolchain/riscv-gcc/libgcc/soft-fp/ledf2.c:45 (discriminator 62)
80004880:	04081c63          	bnez	a6,800048d8 <__ledf2+0xa0>
/home/xl_ci/toolchain/riscv-gnu-toolchain/riscv-gcc/libgcc/soft-fp/ledf2.c:45 (discriminator 63)
80004884:	00f8e7b3          	or	a5,a7,a5
80004888:	0017b793          	seqz	a5,a5
8000488c:	e199                	bnez	a1,80004892 <__ledf2+0x5a>
/home/xl_ci/toolchain/riscv-gnu-toolchain/riscv-gcc/libgcc/soft-fp/ledf2.c:45 (discriminator 69)
8000488e:	8e59                	or	a2,a2,a4
80004890:	ce0d                	beqz	a2,800048ca <__ledf2+0x92>
/home/xl_ci/toolchain/riscv-gnu-toolchain/riscv-gcc/libgcc/soft-fp/ledf2.c:45
80004892:	eb81                	bnez	a5,800048a2 <__ledf2+0x6a>
80004894:	00d51463          	bne	a0,a3,8000489c <__ledf2+0x64>
/home/xl_ci/toolchain/riscv-gnu-toolchain/riscv-gcc/libgcc/soft-fp/ledf2.c:45 (discriminator 95)
80004898:	0105d963          	bge	a1,a6,800048aa <__ledf2+0x72>
/home/xl_ci/toolchain/riscv-gnu-toolchain/riscv-gcc/libgcc/soft-fp/ledf2.c:45 (discriminator 119)
8000489c:	c50d                	beqz	a0,800048c6 <__ledf2+0x8e>
/home/xl_ci/toolchain/riscv-gnu-toolchain/riscv-gcc/libgcc/soft-fp/ledf2.c:45
8000489e:	557d                	li	a0,-1
800048a0:	8082                	ret
/home/xl_ci/toolchain/riscv-gnu-toolchain/riscv-gcc/libgcc/soft-fp/ledf2.c:45 (discriminator 80)
800048a2:	557d                	li	a0,-1
800048a4:	c691                	beqz	a3,800048b0 <__ledf2+0x78>
/home/xl_ci/toolchain/riscv-gnu-toolchain/riscv-gcc/libgcc/soft-fp/ledf2.c:45
800048a6:	8536                	mv	a0,a3
800048a8:	8082                	ret
/home/xl_ci/toolchain/riscv-gnu-toolchain/riscv-gcc/libgcc/soft-fp/ledf2.c:45 (discriminator 102)
800048aa:	00b85463          	bge	a6,a1,800048b2 <__ledf2+0x7a>
/home/xl_ci/toolchain/riscv-gnu-toolchain/riscv-gcc/libgcc/soft-fp/ledf2.c:45 (discriminator 130)
800048ae:	d965                	beqz	a0,8000489e <__ledf2+0x66>
/home/xl_ci/toolchain/riscv-gnu-toolchain/riscv-gcc/libgcc/soft-fp/ledf2.c:49
800048b0:	8082                	ret
/home/xl_ci/toolchain/riscv-gnu-toolchain/riscv-gcc/libgcc/soft-fp/ledf2.c:45 (discriminator 109)
800048b2:	ff1765e3          	bltu	a4,a7,8000489c <__ledf2+0x64>
/home/xl_ci/toolchain/riscv-gnu-toolchain/riscv-gcc/libgcc/soft-fp/ledf2.c:45 (discriminator 116)
800048b6:	00e89c63          	bne	a7,a4,800048ce <__ledf2+0x96>
/home/xl_ci/toolchain/riscv-gnu-toolchain/riscv-gcc/libgcc/soft-fp/ledf2.c:45 (discriminator 117)
800048ba:	fe6e61e3          	bltu	t3,t1,8000489c <__ledf2+0x64>
/home/xl_ci/toolchain/riscv-gnu-toolchain/riscv-gcc/libgcc/soft-fp/ledf2.c:45 (discriminator 128)
800048be:	ffc368e3          	bltu	t1,t3,800048ae <__ledf2+0x76>
/home/xl_ci/toolchain/riscv-gnu-toolchain/riscv-gcc/libgcc/soft-fp/ledf2.c:45
800048c2:	4501                	li	a0,0
800048c4:	8082                	ret
800048c6:	4505                	li	a0,1
800048c8:	8082                	ret
800048ca:	ffe5                	bnez	a5,800048c2 <__ledf2+0x8a>
800048cc:	bfc1                	j	8000489c <__ledf2+0x64>
800048ce:	fee8e0e3          	bltu	a7,a4,800048ae <__ledf2+0x76>
800048d2:	bfc5                	j	800048c2 <__ledf2+0x8a>
800048d4:	fb0582e3          	beq	a1,a6,80004878 <__ledf2+0x40>
800048d8:	fdd5                	bnez	a1,80004894 <__ledf2+0x5c>
800048da:	4781                	li	a5,0
800048dc:	bf4d                	j	8000488e <__ledf2+0x56>

800048de <__muldf3>:
__muldf3():
/home/xl_ci/toolchain/riscv-gnu-toolchain/riscv-gcc/libgcc/soft-fp/muldf3.c:36
800048de:	7179                	addi	sp,sp,-48
800048e0:	ce4e                	sw	s3,28(sp)
/home/xl_ci/toolchain/riscv-gnu-toolchain/riscv-gcc/libgcc/soft-fp/muldf3.c:44
800048e2:	0145d993          	srli	s3,a1,0x14
/home/xl_ci/toolchain/riscv-gnu-toolchain/riscv-gcc/libgcc/soft-fp/muldf3.c:36
800048e6:	d422                	sw	s0,40(sp)
800048e8:	d226                	sw	s1,36(sp)
800048ea:	cc52                	sw	s4,24(sp)
800048ec:	ca56                	sw	s5,20(sp)
800048ee:	c65e                	sw	s7,12(sp)
/home/xl_ci/toolchain/riscv-gnu-toolchain/riscv-gcc/libgcc/soft-fp/muldf3.c:44
800048f0:	00c59493          	slli	s1,a1,0xc
/home/xl_ci/toolchain/riscv-gnu-toolchain/riscv-gcc/libgcc/soft-fp/muldf3.c:36
800048f4:	d606                	sw	ra,44(sp)
800048f6:	d04a                	sw	s2,32(sp)
800048f8:	c85a                	sw	s6,16(sp)
/home/xl_ci/toolchain/riscv-gnu-toolchain/riscv-gcc/libgcc/soft-fp/muldf3.c:44
800048fa:	7ff9f993          	andi	s3,s3,2047
/home/xl_ci/toolchain/riscv-gnu-toolchain/riscv-gcc/libgcc/soft-fp/muldf3.c:36
800048fe:	842a                	mv	s0,a0
80004900:	8bb2                	mv	s7,a2
80004902:	8ab6                	mv	s5,a3
/home/xl_ci/toolchain/riscv-gnu-toolchain/riscv-gcc/libgcc/soft-fp/muldf3.c:44
80004904:	80b1                	srli	s1,s1,0xc
80004906:	01f5da13          	srli	s4,a1,0x1f
8000490a:	08098163          	beqz	s3,8000498c <__muldf3+0xae>
8000490e:	7ff00793          	li	a5,2047
80004912:	0cf98563          	beq	s3,a5,800049dc <__muldf3+0xfe>
/home/xl_ci/toolchain/riscv-gnu-toolchain/riscv-gcc/libgcc/soft-fp/muldf3.c:44 (discriminator 1)
80004916:	01d55793          	srli	a5,a0,0x1d
8000491a:	048e                	slli	s1,s1,0x3
8000491c:	8cdd                	or	s1,s1,a5
8000491e:	008007b7          	lui	a5,0x800
80004922:	8cdd                	or	s1,s1,a5
80004924:	00351913          	slli	s2,a0,0x3
80004928:	c0198993          	addi	s3,s3,-1023
/home/xl_ci/toolchain/riscv-gnu-toolchain/riscv-gcc/libgcc/soft-fp/muldf3.c:44 (discriminator 41)
8000492c:	4b01                	li	s6,0
/home/xl_ci/toolchain/riscv-gnu-toolchain/riscv-gcc/libgcc/soft-fp/muldf3.c:45 (discriminator 8)
8000492e:	014ad513          	srli	a0,s5,0x14
80004932:	00ca9413          	slli	s0,s5,0xc
80004936:	7ff57513          	andi	a0,a0,2047
8000493a:	8031                	srli	s0,s0,0xc
8000493c:	01fada93          	srli	s5,s5,0x1f
80004940:	c161                	beqz	a0,80004a00 <__muldf3+0x122>
/home/xl_ci/toolchain/riscv-gnu-toolchain/riscv-gcc/libgcc/soft-fp/muldf3.c:45
80004942:	7ff00793          	li	a5,2047
80004946:	10f50563          	beq	a0,a5,80004a50 <__muldf3+0x172>
/home/xl_ci/toolchain/riscv-gnu-toolchain/riscv-gcc/libgcc/soft-fp/muldf3.c:45 (discriminator 1)
8000494a:	01dbd793          	srli	a5,s7,0x1d
8000494e:	040e                	slli	s0,s0,0x3
80004950:	8c5d                	or	s0,s0,a5
80004952:	008007b7          	lui	a5,0x800
80004956:	8c5d                	or	s0,s0,a5
80004958:	c0150513          	addi	a0,a0,-1023 # 7fc01 <__stack_size+0x7f401>
8000495c:	003b9793          	slli	a5,s7,0x3
/home/xl_ci/toolchain/riscv-gnu-toolchain/riscv-gcc/libgcc/soft-fp/muldf3.c:45 (discriminator 41)
80004960:	4701                	li	a4,0
/home/xl_ci/toolchain/riscv-gnu-toolchain/riscv-gcc/libgcc/soft-fp/muldf3.c:46 (discriminator 8)
80004962:	002b1693          	slli	a3,s6,0x2
80004966:	8ed9                	or	a3,a3,a4
80004968:	954e                	add	a0,a0,s3
8000496a:	16fd                	addi	a3,a3,-1
8000496c:	4839                	li	a6,14
8000496e:	015a4633          	xor	a2,s4,s5
80004972:	00150593          	addi	a1,a0,1
80004976:	0ed86e63          	bltu	a6,a3,80004a72 <__muldf3+0x194>
8000497a:	00001517          	auipc	a0,0x1
8000497e:	3d650513          	addi	a0,a0,982 # 80005d50 <_ctype_+0x140>
80004982:	068a                	slli	a3,a3,0x2
80004984:	96aa                	add	a3,a3,a0
80004986:	4294                	lw	a3,0(a3)
80004988:	96aa                	add	a3,a3,a0
8000498a:	8682                	jr	a3
/home/xl_ci/toolchain/riscv-gnu-toolchain/riscv-gcc/libgcc/soft-fp/muldf3.c:44 (discriminator 2)
8000498c:	00a4e933          	or	s2,s1,a0
80004990:	04090f63          	beqz	s2,800049ee <__muldf3+0x110>
/home/xl_ci/toolchain/riscv-gnu-toolchain/riscv-gcc/libgcc/soft-fp/muldf3.c:44 (discriminator 13)
80004994:	c88d                	beqz	s1,800049c6 <__muldf3+0xe8>
/home/xl_ci/toolchain/riscv-gnu-toolchain/riscv-gcc/libgcc/soft-fp/muldf3.c:44 (discriminator 17)
80004996:	8526                	mv	a0,s1
80004998:	52f000ef          	jal	ra,800056c6 <__clzsi2>
/home/xl_ci/toolchain/riscv-gnu-toolchain/riscv-gcc/libgcc/soft-fp/muldf3.c:44 (discriminator 31)
8000499c:	ff550713          	addi	a4,a0,-11
800049a0:	47f1                	li	a5,28
800049a2:	02e7c763          	blt	a5,a4,800049d0 <__muldf3+0xf2>
/home/xl_ci/toolchain/riscv-gnu-toolchain/riscv-gcc/libgcc/soft-fp/muldf3.c:44 (discriminator 32)
800049a6:	47f5                	li	a5,29
800049a8:	ff850913          	addi	s2,a0,-8
800049ac:	8f99                	sub	a5,a5,a4
800049ae:	012494b3          	sll	s1,s1,s2
800049b2:	00f457b3          	srl	a5,s0,a5
800049b6:	8cdd                	or	s1,s1,a5
800049b8:	01241933          	sll	s2,s0,s2
/home/xl_ci/toolchain/riscv-gnu-toolchain/riscv-gcc/libgcc/soft-fp/muldf3.c:44 (discriminator 41)
800049bc:	c0d00993          	li	s3,-1011
800049c0:	40a989b3          	sub	s3,s3,a0
800049c4:	b7a5                	j	8000492c <__muldf3+0x4e>
/home/xl_ci/toolchain/riscv-gnu-toolchain/riscv-gcc/libgcc/soft-fp/muldf3.c:44 (discriminator 24)
800049c6:	501000ef          	jal	ra,800056c6 <__clzsi2>
800049ca:	02050513          	addi	a0,a0,32
800049ce:	b7f9                	j	8000499c <__muldf3+0xbe>
/home/xl_ci/toolchain/riscv-gnu-toolchain/riscv-gcc/libgcc/soft-fp/muldf3.c:44 (discriminator 33)
800049d0:	fd850493          	addi	s1,a0,-40
800049d4:	009414b3          	sll	s1,s0,s1
800049d8:	4901                	li	s2,0
800049da:	b7cd                	j	800049bc <__muldf3+0xde>
/home/xl_ci/toolchain/riscv-gnu-toolchain/riscv-gcc/libgcc/soft-fp/muldf3.c:44 (discriminator 3)
800049dc:	00a4e933          	or	s2,s1,a0
800049e0:	00090b63          	beqz	s2,800049f6 <__muldf3+0x118>
/home/xl_ci/toolchain/riscv-gnu-toolchain/riscv-gcc/libgcc/soft-fp/muldf3.c:44
800049e4:	892a                	mv	s2,a0
800049e6:	7ff00993          	li	s3,2047
800049ea:	4b0d                	li	s6,3
800049ec:	b789                	j	8000492e <__muldf3+0x50>
800049ee:	4481                	li	s1,0
800049f0:	4981                	li	s3,0
800049f2:	4b05                	li	s6,1
800049f4:	bf2d                	j	8000492e <__muldf3+0x50>
800049f6:	4481                	li	s1,0
800049f8:	7ff00993          	li	s3,2047
800049fc:	4b09                	li	s6,2
800049fe:	bf05                	j	8000492e <__muldf3+0x50>
/home/xl_ci/toolchain/riscv-gnu-toolchain/riscv-gcc/libgcc/soft-fp/muldf3.c:45 (discriminator 2)
80004a00:	017467b3          	or	a5,s0,s7
80004a04:	cfb1                	beqz	a5,80004a60 <__muldf3+0x182>
/home/xl_ci/toolchain/riscv-gnu-toolchain/riscv-gcc/libgcc/soft-fp/muldf3.c:45 (discriminator 13)
80004a06:	c80d                	beqz	s0,80004a38 <__muldf3+0x15a>
/home/xl_ci/toolchain/riscv-gnu-toolchain/riscv-gcc/libgcc/soft-fp/muldf3.c:45 (discriminator 17)
80004a08:	8522                	mv	a0,s0
80004a0a:	4bd000ef          	jal	ra,800056c6 <__clzsi2>
/home/xl_ci/toolchain/riscv-gnu-toolchain/riscv-gcc/libgcc/soft-fp/muldf3.c:45 (discriminator 31)
80004a0e:	ff550693          	addi	a3,a0,-11
80004a12:	47f1                	li	a5,28
80004a14:	02d7c863          	blt	a5,a3,80004a44 <__muldf3+0x166>
/home/xl_ci/toolchain/riscv-gnu-toolchain/riscv-gcc/libgcc/soft-fp/muldf3.c:45 (discriminator 32)
80004a18:	4775                	li	a4,29
80004a1a:	ff850793          	addi	a5,a0,-8
80004a1e:	8f15                	sub	a4,a4,a3
80004a20:	00f41433          	sll	s0,s0,a5
80004a24:	00ebd733          	srl	a4,s7,a4
80004a28:	8c59                	or	s0,s0,a4
80004a2a:	00fb97b3          	sll	a5,s7,a5
/home/xl_ci/toolchain/riscv-gnu-toolchain/riscv-gcc/libgcc/soft-fp/muldf3.c:45 (discriminator 41)
80004a2e:	c0d00713          	li	a4,-1011
80004a32:	40a70533          	sub	a0,a4,a0
80004a36:	b72d                	j	80004960 <__muldf3+0x82>
/home/xl_ci/toolchain/riscv-gnu-toolchain/riscv-gcc/libgcc/soft-fp/muldf3.c:45 (discriminator 24)
80004a38:	855e                	mv	a0,s7
80004a3a:	48d000ef          	jal	ra,800056c6 <__clzsi2>
80004a3e:	02050513          	addi	a0,a0,32
80004a42:	b7f1                	j	80004a0e <__muldf3+0x130>
/home/xl_ci/toolchain/riscv-gnu-toolchain/riscv-gcc/libgcc/soft-fp/muldf3.c:45 (discriminator 33)
80004a44:	fd850413          	addi	s0,a0,-40
80004a48:	008b9433          	sll	s0,s7,s0
80004a4c:	4781                	li	a5,0
80004a4e:	b7c5                	j	80004a2e <__muldf3+0x150>
/home/xl_ci/toolchain/riscv-gnu-toolchain/riscv-gcc/libgcc/soft-fp/muldf3.c:45 (discriminator 3)
80004a50:	017467b3          	or	a5,s0,s7
80004a54:	cb91                	beqz	a5,80004a68 <__muldf3+0x18a>
/home/xl_ci/toolchain/riscv-gnu-toolchain/riscv-gcc/libgcc/soft-fp/muldf3.c:45
80004a56:	87de                	mv	a5,s7
80004a58:	7ff00513          	li	a0,2047
80004a5c:	470d                	li	a4,3
80004a5e:	b711                	j	80004962 <__muldf3+0x84>
80004a60:	4401                	li	s0,0
80004a62:	4501                	li	a0,0
80004a64:	4705                	li	a4,1
80004a66:	bdf5                	j	80004962 <__muldf3+0x84>
80004a68:	4401                	li	s0,0
80004a6a:	7ff00513          	li	a0,2047
80004a6e:	4709                	li	a4,2
80004a70:	bdcd                	j	80004962 <__muldf3+0x84>
/home/xl_ci/toolchain/riscv-gnu-toolchain/riscv-gcc/libgcc/soft-fp/muldf3.c:46 (discriminator 2)
80004a72:	6f41                	lui	t5,0x10
80004a74:	ffff0e93          	addi	t4,t5,-1 # ffff <__stack_size+0xf7ff>
80004a78:	01095713          	srli	a4,s2,0x10
80004a7c:	0107d893          	srli	a7,a5,0x10
80004a80:	01d97933          	and	s2,s2,t4
80004a84:	01d7f7b3          	and	a5,a5,t4
80004a88:	03288833          	mul	a6,a7,s2
80004a8c:	02f906b3          	mul	a3,s2,a5
80004a90:	02f70fb3          	mul	t6,a4,a5
80004a94:	01f80333          	add	t1,a6,t6
80004a98:	0106d813          	srli	a6,a3,0x10
80004a9c:	981a                	add	a6,a6,t1
80004a9e:	03170e33          	mul	t3,a4,a7
80004aa2:	01f87363          	bgeu	a6,t6,80004aa8 <__muldf3+0x1ca>
/home/xl_ci/toolchain/riscv-gnu-toolchain/riscv-gcc/libgcc/soft-fp/muldf3.c:46 (discriminator 9)
80004aa6:	9e7a                	add	t3,t3,t5
/home/xl_ci/toolchain/riscv-gnu-toolchain/riscv-gcc/libgcc/soft-fp/muldf3.c:46 (discriminator 11)
80004aa8:	01085393          	srli	t2,a6,0x10
80004aac:	01d87833          	and	a6,a6,t4
80004ab0:	01d6f6b3          	and	a3,a3,t4
80004ab4:	01045f13          	srli	t5,s0,0x10
80004ab8:	01d472b3          	and	t0,s0,t4
80004abc:	0842                	slli	a6,a6,0x10
80004abe:	9836                	add	a6,a6,a3
80004ac0:	02570eb3          	mul	t4,a4,t0
80004ac4:	025906b3          	mul	a3,s2,t0
80004ac8:	032f0933          	mul	s2,t5,s2
80004acc:	01d90333          	add	t1,s2,t4
80004ad0:	0106d913          	srli	s2,a3,0x10
80004ad4:	991a                	add	s2,s2,t1
80004ad6:	03e70733          	mul	a4,a4,t5
80004ada:	01d97463          	bgeu	s2,t4,80004ae2 <__muldf3+0x204>
/home/xl_ci/toolchain/riscv-gnu-toolchain/riscv-gcc/libgcc/soft-fp/muldf3.c:46 (discriminator 12)
80004ade:	6341                	lui	t1,0x10
80004ae0:	971a                	add	a4,a4,t1
/home/xl_ci/toolchain/riscv-gnu-toolchain/riscv-gcc/libgcc/soft-fp/muldf3.c:46 (discriminator 14)
80004ae2:	01095e93          	srli	t4,s2,0x10
80004ae6:	69c1                	lui	s3,0x10
80004ae8:	9eba                	add	t4,t4,a4
80004aea:	fff98713          	addi	a4,s3,-1 # ffff <__stack_size+0xf7ff>
80004aee:	00e97933          	and	s2,s2,a4
80004af2:	8ef9                	and	a3,a3,a4
80004af4:	0104d413          	srli	s0,s1,0x10
80004af8:	0942                	slli	s2,s2,0x10
80004afa:	8cf9                	and	s1,s1,a4
80004afc:	02978733          	mul	a4,a5,s1
80004b00:	9936                	add	s2,s2,a3
80004b02:	93ca                	add	t2,t2,s2
80004b04:	02f40333          	mul	t1,s0,a5
80004b08:	029886b3          	mul	a3,a7,s1
80004b0c:	028887b3          	mul	a5,a7,s0
80004b10:	006688b3          	add	a7,a3,t1
80004b14:	01075693          	srli	a3,a4,0x10
80004b18:	96c6                	add	a3,a3,a7
80004b1a:	0066f363          	bgeu	a3,t1,80004b20 <__muldf3+0x242>
/home/xl_ci/toolchain/riscv-gnu-toolchain/riscv-gcc/libgcc/soft-fp/muldf3.c:46 (discriminator 15)
80004b1e:	97ce                	add	a5,a5,s3
/home/xl_ci/toolchain/riscv-gnu-toolchain/riscv-gcc/libgcc/soft-fp/muldf3.c:46 (discriminator 17)
80004b20:	0106d893          	srli	a7,a3,0x10
80004b24:	69c1                	lui	s3,0x10
80004b26:	00f88fb3          	add	t6,a7,a5
80004b2a:	fff98793          	addi	a5,s3,-1 # ffff <__stack_size+0xf7ff>
80004b2e:	029288b3          	mul	a7,t0,s1
80004b32:	8efd                	and	a3,a3,a5
80004b34:	8f7d                	and	a4,a4,a5
80004b36:	06c2                	slli	a3,a3,0x10
80004b38:	96ba                	add	a3,a3,a4
80004b3a:	025407b3          	mul	a5,s0,t0
80004b3e:	029f04b3          	mul	s1,t5,s1
80004b42:	028f0333          	mul	t1,t5,s0
80004b46:	94be                	add	s1,s1,a5
80004b48:	0108d413          	srli	s0,a7,0x10
80004b4c:	94a2                	add	s1,s1,s0
80004b4e:	00f4f363          	bgeu	s1,a5,80004b54 <__muldf3+0x276>
/home/xl_ci/toolchain/riscv-gnu-toolchain/riscv-gcc/libgcc/soft-fp/muldf3.c:46 (discriminator 18)
80004b52:	934e                	add	t1,t1,s3
/home/xl_ci/toolchain/riscv-gnu-toolchain/riscv-gcc/libgcc/soft-fp/muldf3.c:46 (discriminator 20)
80004b54:	67c1                	lui	a5,0x10
80004b56:	17fd                	addi	a5,a5,-1
80004b58:	00f4f733          	and	a4,s1,a5
80004b5c:	00f8f8b3          	and	a7,a7,a5
80004b60:	0742                	slli	a4,a4,0x10
80004b62:	9e1e                	add	t3,t3,t2
80004b64:	9746                	add	a4,a4,a7
80004b66:	012e3933          	sltu	s2,t3,s2
80004b6a:	9776                	add	a4,a4,t4
80004b6c:	01270433          	add	s0,a4,s2
80004b70:	9e36                	add	t3,t3,a3
80004b72:	00de36b3          	sltu	a3,t3,a3
80004b76:	01f408b3          	add	a7,s0,t6
80004b7a:	00d88f33          	add	t5,a7,a3
80004b7e:	01d73733          	sltu	a4,a4,t4
80004b82:	01243433          	sltu	s0,s0,s2
80004b86:	8c59                	or	s0,s0,a4
80004b88:	80c1                	srli	s1,s1,0x10
80004b8a:	01f8b8b3          	sltu	a7,a7,t6
80004b8e:	00df36b3          	sltu	a3,t5,a3
80004b92:	9426                	add	s0,s0,s1
80004b94:	00d8e6b3          	or	a3,a7,a3
80004b98:	9436                	add	s0,s0,a3
80004b9a:	941a                	add	s0,s0,t1
80004b9c:	017f5793          	srli	a5,t5,0x17
80004ba0:	0426                	slli	s0,s0,0x9
80004ba2:	8c5d                	or	s0,s0,a5
80004ba4:	009e1793          	slli	a5,t3,0x9
80004ba8:	0107e7b3          	or	a5,a5,a6
80004bac:	00f037b3          	snez	a5,a5
80004bb0:	017e5e13          	srli	t3,t3,0x17
80004bb4:	009f1713          	slli	a4,t5,0x9
80004bb8:	01c7e7b3          	or	a5,a5,t3
80004bbc:	8fd9                	or	a5,a5,a4
80004bbe:	01000737          	lui	a4,0x1000
80004bc2:	8f61                	and	a4,a4,s0
80004bc4:	cb4d                	beqz	a4,80004c76 <__muldf3+0x398>
/home/xl_ci/toolchain/riscv-gnu-toolchain/riscv-gcc/libgcc/soft-fp/muldf3.c:46 (discriminator 38)
80004bc6:	0017d713          	srli	a4,a5,0x1
80004bca:	8b85                	andi	a5,a5,1
80004bcc:	8fd9                	or	a5,a5,a4
80004bce:	01f41713          	slli	a4,s0,0x1f
80004bd2:	8fd9                	or	a5,a5,a4
80004bd4:	8005                	srli	s0,s0,0x1
/home/xl_ci/toolchain/riscv-gnu-toolchain/riscv-gcc/libgcc/soft-fp/muldf3.c:47 (discriminator 2)
80004bd6:	3ff58693          	addi	a3,a1,1023
80004bda:	0ad05063          	blez	a3,80004c7a <__muldf3+0x39c>
/home/xl_ci/toolchain/riscv-gnu-toolchain/riscv-gcc/libgcc/soft-fp/muldf3.c:47 (discriminator 6)
80004bde:	0077f713          	andi	a4,a5,7
80004be2:	cf01                	beqz	a4,80004bfa <__muldf3+0x31c>
/home/xl_ci/toolchain/riscv-gnu-toolchain/riscv-gcc/libgcc/soft-fp/muldf3.c:47 (discriminator 8)
80004be4:	00f7f713          	andi	a4,a5,15
80004be8:	4511                	li	a0,4
80004bea:	00a70863          	beq	a4,a0,80004bfa <__muldf3+0x31c>
/home/xl_ci/toolchain/riscv-gnu-toolchain/riscv-gcc/libgcc/soft-fp/muldf3.c:47 (discriminator 10)
80004bee:	00478713          	addi	a4,a5,4 # 10004 <__stack_size+0xf804>
80004bf2:	00f737b3          	sltu	a5,a4,a5
80004bf6:	943e                	add	s0,s0,a5
80004bf8:	87ba                	mv	a5,a4
/home/xl_ci/toolchain/riscv-gnu-toolchain/riscv-gcc/libgcc/soft-fp/muldf3.c:47 (discriminator 9)
80004bfa:	01000737          	lui	a4,0x1000
80004bfe:	8f61                	and	a4,a4,s0
80004c00:	c719                	beqz	a4,80004c0e <__muldf3+0x330>
/home/xl_ci/toolchain/riscv-gnu-toolchain/riscv-gcc/libgcc/soft-fp/muldf3.c:47 (discriminator 24)
80004c02:	ff000737          	lui	a4,0xff000
80004c06:	177d                	addi	a4,a4,-1
80004c08:	8c79                	and	s0,s0,a4
80004c0a:	40058693          	addi	a3,a1,1024
/home/xl_ci/toolchain/riscv-gnu-toolchain/riscv-gcc/libgcc/soft-fp/muldf3.c:47 (discriminator 26)
80004c0e:	7fe00713          	li	a4,2046
80004c12:	0ed74e63          	blt	a4,a3,80004d0e <__muldf3+0x430>
/home/xl_ci/toolchain/riscv-gnu-toolchain/riscv-gcc/libgcc/soft-fp/muldf3.c:47
80004c16:	0037d713          	srli	a4,a5,0x3
80004c1a:	01d41793          	slli	a5,s0,0x1d
80004c1e:	8fd9                	or	a5,a5,a4
80004c20:	800d                	srli	s0,s0,0x3
/home/xl_ci/toolchain/riscv-gnu-toolchain/riscv-gcc/libgcc/soft-fp/muldf3.c:47 (discriminator 119)
80004c22:	01469713          	slli	a4,a3,0x14
80004c26:	0432                	slli	s0,s0,0xc
80004c28:	7ff006b7          	lui	a3,0x7ff00
80004c2c:	8f75                	and	a4,a4,a3
80004c2e:	8031                	srli	s0,s0,0xc
80004c30:	8c59                	or	s0,s0,a4
80004c32:	067e                	slli	a2,a2,0x1f
/home/xl_ci/toolchain/riscv-gnu-toolchain/riscv-gcc/libgcc/soft-fp/muldf3.c:51 (discriminator 119)
80004c34:	50b2                	lw	ra,44(sp)
/home/xl_ci/toolchain/riscv-gnu-toolchain/riscv-gcc/libgcc/soft-fp/muldf3.c:47 (discriminator 119)
80004c36:	00c46733          	or	a4,s0,a2
/home/xl_ci/toolchain/riscv-gnu-toolchain/riscv-gcc/libgcc/soft-fp/muldf3.c:51 (discriminator 119)
80004c3a:	5422                	lw	s0,40(sp)
80004c3c:	5492                	lw	s1,36(sp)
80004c3e:	5902                	lw	s2,32(sp)
80004c40:	49f2                	lw	s3,28(sp)
80004c42:	4a62                	lw	s4,24(sp)
80004c44:	4ad2                	lw	s5,20(sp)
80004c46:	4b42                	lw	s6,16(sp)
80004c48:	4bb2                	lw	s7,12(sp)
80004c4a:	853e                	mv	a0,a5
80004c4c:	85ba                	mv	a1,a4
80004c4e:	6145                	addi	sp,sp,48
80004c50:	8082                	ret
/home/xl_ci/toolchain/riscv-gnu-toolchain/riscv-gcc/libgcc/soft-fp/muldf3.c:44 (discriminator 7)
80004c52:	8652                	mv	a2,s4
/home/xl_ci/toolchain/riscv-gnu-toolchain/riscv-gcc/libgcc/soft-fp/muldf3.c:46 (discriminator 7)
80004c54:	8426                	mv	s0,s1
80004c56:	87ca                	mv	a5,s2
80004c58:	875a                	mv	a4,s6
/home/xl_ci/toolchain/riscv-gnu-toolchain/riscv-gcc/libgcc/soft-fp/muldf3.c:47 (discriminator 47)
80004c5a:	4689                	li	a3,2
80004c5c:	0ad70963          	beq	a4,a3,80004d0e <__muldf3+0x430>
/home/xl_ci/toolchain/riscv-gnu-toolchain/riscv-gcc/libgcc/soft-fp/muldf3.c:47
80004c60:	468d                	li	a3,3
80004c62:	08d70f63          	beq	a4,a3,80004d00 <__muldf3+0x422>
80004c66:	4685                	li	a3,1
80004c68:	f6d717e3          	bne	a4,a3,80004bd6 <__muldf3+0x2f8>
80004c6c:	4401                	li	s0,0
80004c6e:	4781                	li	a5,0
80004c70:	a09d                	j	80004cd6 <__muldf3+0x3f8>
/home/xl_ci/toolchain/riscv-gnu-toolchain/riscv-gcc/libgcc/soft-fp/muldf3.c:45 (discriminator 4)
80004c72:	8656                	mv	a2,s5
/home/xl_ci/toolchain/riscv-gnu-toolchain/riscv-gcc/libgcc/soft-fp/muldf3.c:46 (discriminator 4)
80004c74:	b7dd                	j	80004c5a <__muldf3+0x37c>
/home/xl_ci/toolchain/riscv-gnu-toolchain/riscv-gcc/libgcc/soft-fp/muldf3.c:46
80004c76:	85aa                	mv	a1,a0
80004c78:	bfb9                	j	80004bd6 <__muldf3+0x2f8>
/home/xl_ci/toolchain/riscv-gnu-toolchain/riscv-gcc/libgcc/soft-fp/muldf3.c:47 (discriminator 59)
80004c7a:	4505                	li	a0,1
80004c7c:	8d15                	sub	a0,a0,a3
80004c7e:	03800713          	li	a4,56
80004c82:	fea745e3          	blt	a4,a0,80004c6c <__muldf3+0x38e>
/home/xl_ci/toolchain/riscv-gnu-toolchain/riscv-gcc/libgcc/soft-fp/muldf3.c:47 (discriminator 60)
80004c86:	477d                	li	a4,31
80004c88:	04a74963          	blt	a4,a0,80004cda <__muldf3+0x3fc>
/home/xl_ci/toolchain/riscv-gnu-toolchain/riscv-gcc/libgcc/soft-fp/muldf3.c:47 (discriminator 62)
80004c8c:	41e58593          	addi	a1,a1,1054
80004c90:	00b41733          	sll	a4,s0,a1
80004c94:	00a7d6b3          	srl	a3,a5,a0
80004c98:	00b797b3          	sll	a5,a5,a1
80004c9c:	8f55                	or	a4,a4,a3
80004c9e:	00f037b3          	snez	a5,a5
80004ca2:	8fd9                	or	a5,a5,a4
80004ca4:	00a45433          	srl	s0,s0,a0
/home/xl_ci/toolchain/riscv-gnu-toolchain/riscv-gcc/libgcc/soft-fp/muldf3.c:47 (discriminator 75)
80004ca8:	0077f713          	andi	a4,a5,7
80004cac:	cf01                	beqz	a4,80004cc4 <__muldf3+0x3e6>
/home/xl_ci/toolchain/riscv-gnu-toolchain/riscv-gcc/libgcc/soft-fp/muldf3.c:47 (discriminator 76)
80004cae:	00f7f713          	andi	a4,a5,15
80004cb2:	4691                	li	a3,4
80004cb4:	00d70863          	beq	a4,a3,80004cc4 <__muldf3+0x3e6>
/home/xl_ci/toolchain/riscv-gnu-toolchain/riscv-gcc/libgcc/soft-fp/muldf3.c:47 (discriminator 78)
80004cb8:	00478713          	addi	a4,a5,4
80004cbc:	00f737b3          	sltu	a5,a4,a5
80004cc0:	943e                	add	s0,s0,a5
80004cc2:	87ba                	mv	a5,a4
/home/xl_ci/toolchain/riscv-gnu-toolchain/riscv-gcc/libgcc/soft-fp/muldf3.c:47 (discriminator 77)
80004cc4:	00800737          	lui	a4,0x800
80004cc8:	8f61                	and	a4,a4,s0
80004cca:	e739                	bnez	a4,80004d18 <__muldf3+0x43a>
/home/xl_ci/toolchain/riscv-gnu-toolchain/riscv-gcc/libgcc/soft-fp/muldf3.c:47 (discriminator 93)
80004ccc:	01d41713          	slli	a4,s0,0x1d
80004cd0:	838d                	srli	a5,a5,0x3
80004cd2:	8fd9                	or	a5,a5,a4
80004cd4:	800d                	srli	s0,s0,0x3
/home/xl_ci/toolchain/riscv-gnu-toolchain/riscv-gcc/libgcc/soft-fp/muldf3.c:47
80004cd6:	4681                	li	a3,0
80004cd8:	b7a9                	j	80004c22 <__muldf3+0x344>
/home/xl_ci/toolchain/riscv-gnu-toolchain/riscv-gcc/libgcc/soft-fp/muldf3.c:47 (discriminator 63)
80004cda:	5705                	li	a4,-31
80004cdc:	8f15                	sub	a4,a4,a3
80004cde:	02000813          	li	a6,32
80004ce2:	00e45733          	srl	a4,s0,a4
80004ce6:	4681                	li	a3,0
80004ce8:	01050663          	beq	a0,a6,80004cf4 <__muldf3+0x416>
/home/xl_ci/toolchain/riscv-gnu-toolchain/riscv-gcc/libgcc/soft-fp/muldf3.c:47 (discriminator 71)
80004cec:	43e58593          	addi	a1,a1,1086
80004cf0:	00b416b3          	sll	a3,s0,a1
/home/xl_ci/toolchain/riscv-gnu-toolchain/riscv-gcc/libgcc/soft-fp/muldf3.c:47 (discriminator 74)
80004cf4:	8fd5                	or	a5,a5,a3
80004cf6:	00f037b3          	snez	a5,a5
80004cfa:	8fd9                	or	a5,a5,a4
80004cfc:	4401                	li	s0,0
80004cfe:	b76d                	j	80004ca8 <__muldf3+0x3ca>
/home/xl_ci/toolchain/riscv-gnu-toolchain/riscv-gcc/libgcc/soft-fp/muldf3.c:47
80004d00:	00080437          	lui	s0,0x80
80004d04:	4781                	li	a5,0
80004d06:	7ff00693          	li	a3,2047
80004d0a:	4601                	li	a2,0
80004d0c:	bf19                	j	80004c22 <__muldf3+0x344>
80004d0e:	4401                	li	s0,0
80004d10:	4781                	li	a5,0
80004d12:	7ff00693          	li	a3,2047
80004d16:	b731                	j	80004c22 <__muldf3+0x344>
80004d18:	4401                	li	s0,0
80004d1a:	4781                	li	a5,0
80004d1c:	4685                	li	a3,1
80004d1e:	b711                	j	80004c22 <__muldf3+0x344>

80004d20 <__subdf3>:
__subdf3():
/home/xl_ci/toolchain/riscv-gnu-toolchain/riscv-gcc/libgcc/soft-fp/subdf3.c:44
80004d20:	00100837          	lui	a6,0x100
80004d24:	187d                	addi	a6,a6,-1
/home/xl_ci/toolchain/riscv-gnu-toolchain/riscv-gcc/libgcc/soft-fp/subdf3.c:36
80004d26:	1101                	addi	sp,sp,-32
/home/xl_ci/toolchain/riscv-gnu-toolchain/riscv-gcc/libgcc/soft-fp/subdf3.c:44
80004d28:	00b877b3          	and	a5,a6,a1
80004d2c:	0145d713          	srli	a4,a1,0x14
/home/xl_ci/toolchain/riscv-gnu-toolchain/riscv-gcc/libgcc/soft-fp/subdf3.c:45
80004d30:	00d87833          	and	a6,a6,a3
80004d34:	0146d313          	srli	t1,a3,0x14
/home/xl_ci/toolchain/riscv-gnu-toolchain/riscv-gcc/libgcc/soft-fp/subdf3.c:36
80004d38:	cc22                	sw	s0,24(sp)
/home/xl_ci/toolchain/riscv-gnu-toolchain/riscv-gcc/libgcc/soft-fp/subdf3.c:44
80004d3a:	078e                	slli	a5,a5,0x3
80004d3c:	7ff77413          	andi	s0,a4,2047
80004d40:	01d55713          	srli	a4,a0,0x1d
/home/xl_ci/toolchain/riscv-gnu-toolchain/riscv-gcc/libgcc/soft-fp/subdf3.c:36
80004d44:	ca26                	sw	s1,20(sp)
/home/xl_ci/toolchain/riscv-gnu-toolchain/riscv-gcc/libgcc/soft-fp/subdf3.c:44
80004d46:	8fd9                	or	a5,a5,a4
80004d48:	01f5d493          	srli	s1,a1,0x1f
/home/xl_ci/toolchain/riscv-gnu-toolchain/riscv-gcc/libgcc/soft-fp/subdf3.c:45
80004d4c:	01d65713          	srli	a4,a2,0x1d
/home/xl_ci/toolchain/riscv-gnu-toolchain/riscv-gcc/libgcc/soft-fp/subdf3.c:44
80004d50:	00351593          	slli	a1,a0,0x3
/home/xl_ci/toolchain/riscv-gnu-toolchain/riscv-gcc/libgcc/soft-fp/subdf3.c:45
80004d54:	080e                	slli	a6,a6,0x3
/home/xl_ci/toolchain/riscv-gnu-toolchain/riscv-gcc/libgcc/soft-fp/subdf3.c:36
80004d56:	ce06                	sw	ra,28(sp)
80004d58:	c84a                	sw	s2,16(sp)
80004d5a:	c64e                	sw	s3,12(sp)
/home/xl_ci/toolchain/riscv-gnu-toolchain/riscv-gcc/libgcc/soft-fp/subdf3.c:45
80004d5c:	7ff37313          	andi	t1,t1,2047
/home/xl_ci/toolchain/riscv-gnu-toolchain/riscv-gcc/libgcc/soft-fp/subdf3.c:46
80004d60:	7ff00513          	li	a0,2047
/home/xl_ci/toolchain/riscv-gnu-toolchain/riscv-gcc/libgcc/soft-fp/subdf3.c:45
80004d64:	82fd                	srli	a3,a3,0x1f
80004d66:	01076733          	or	a4,a4,a6
80004d6a:	060e                	slli	a2,a2,0x3
/home/xl_ci/toolchain/riscv-gnu-toolchain/riscv-gcc/libgcc/soft-fp/subdf3.c:46
80004d6c:	00a31563          	bne	t1,a0,80004d76 <__subdf3+0x56>
/home/xl_ci/toolchain/riscv-gnu-toolchain/riscv-gcc/libgcc/soft-fp/subdf3.c:46 (discriminator 2)
80004d70:	00c76533          	or	a0,a4,a2
80004d74:	e119                	bnez	a0,80004d7a <__subdf3+0x5a>
/home/xl_ci/toolchain/riscv-gnu-toolchain/riscv-gcc/libgcc/soft-fp/subdf3.c:46 (discriminator 3)
80004d76:	0016c693          	xori	a3,a3,1
/home/xl_ci/toolchain/riscv-gnu-toolchain/riscv-gcc/libgcc/soft-fp/subdf3.c:46 (discriminator 11)
80004d7a:	40640833          	sub	a6,s0,t1
80004d7e:	22969863          	bne	a3,s1,80004fae <__subdf3+0x28e>
/home/xl_ci/toolchain/riscv-gnu-toolchain/riscv-gcc/libgcc/soft-fp/subdf3.c:46 (discriminator 12)
80004d82:	0f005363          	blez	a6,80004e68 <__subdf3+0x148>
/home/xl_ci/toolchain/riscv-gnu-toolchain/riscv-gcc/libgcc/soft-fp/subdf3.c:46 (discriminator 14)
80004d86:	02031863          	bnez	t1,80004db6 <__subdf3+0x96>
/home/xl_ci/toolchain/riscv-gnu-toolchain/riscv-gcc/libgcc/soft-fp/subdf3.c:46 (discriminator 16)
80004d8a:	00c766b3          	or	a3,a4,a2
80004d8e:	58068163          	beqz	a3,80005310 <__subdf3+0x5f0>
/home/xl_ci/toolchain/riscv-gnu-toolchain/riscv-gcc/libgcc/soft-fp/subdf3.c:46 (discriminator 19)
80004d92:	fff80513          	addi	a0,a6,-1 # fffff <__stack_size+0xff7ff>
80004d96:	e909                	bnez	a0,80004da8 <__subdf3+0x88>
/home/xl_ci/toolchain/riscv-gnu-toolchain/riscv-gcc/libgcc/soft-fp/subdf3.c:46 (discriminator 28)
80004d98:	962e                	add	a2,a2,a1
80004d9a:	00b63533          	sltu	a0,a2,a1
80004d9e:	97ba                	add	a5,a5,a4
80004da0:	97aa                	add	a5,a5,a0
80004da2:	85b2                	mv	a1,a2
/home/xl_ci/toolchain/riscv-gnu-toolchain/riscv-gcc/libgcc/soft-fp/subdf3.c:45 (discriminator 85)
80004da4:	4405                	li	s0,1
/home/xl_ci/toolchain/riscv-gnu-toolchain/riscv-gcc/libgcc/soft-fp/subdf3.c:46 (discriminator 85)
80004da6:	a8b9                	j	80004e04 <__subdf3+0xe4>
/home/xl_ci/toolchain/riscv-gnu-toolchain/riscv-gcc/libgcc/soft-fp/subdf3.c:46 (discriminator 29)
80004da8:	7ff00693          	li	a3,2047
80004dac:	00d81d63          	bne	a6,a3,80004dc6 <__subdf3+0xa6>
/home/xl_ci/toolchain/riscv-gnu-toolchain/riscv-gcc/libgcc/soft-fp/subdf3.c:46
80004db0:	7ff00413          	li	s0,2047
80004db4:	a24d                	j	80004f56 <__subdf3+0x236>
/home/xl_ci/toolchain/riscv-gnu-toolchain/riscv-gcc/libgcc/soft-fp/subdf3.c:46 (discriminator 17)
80004db6:	7ff00693          	li	a3,2047
80004dba:	18d40e63          	beq	s0,a3,80004f56 <__subdf3+0x236>
/home/xl_ci/toolchain/riscv-gnu-toolchain/riscv-gcc/libgcc/soft-fp/subdf3.c:46 (discriminator 43)
80004dbe:	008006b7          	lui	a3,0x800
80004dc2:	8f55                	or	a4,a4,a3
80004dc4:	8542                	mv	a0,a6
/home/xl_ci/toolchain/riscv-gnu-toolchain/riscv-gcc/libgcc/soft-fp/subdf3.c:46 (discriminator 52)
80004dc6:	03800693          	li	a3,56
80004dca:	08a6cb63          	blt	a3,a0,80004e60 <__subdf3+0x140>
/home/xl_ci/toolchain/riscv-gnu-toolchain/riscv-gcc/libgcc/soft-fp/subdf3.c:46 (discriminator 53)
80004dce:	46fd                	li	a3,31
80004dd0:	06a6c263          	blt	a3,a0,80004e34 <__subdf3+0x114>
/home/xl_ci/toolchain/riscv-gnu-toolchain/riscv-gcc/libgcc/soft-fp/subdf3.c:46 (discriminator 55)
80004dd4:	02000813          	li	a6,32
80004dd8:	40a80833          	sub	a6,a6,a0
80004ddc:	010716b3          	sll	a3,a4,a6
80004de0:	00a658b3          	srl	a7,a2,a0
80004de4:	01061633          	sll	a2,a2,a6
80004de8:	0116e6b3          	or	a3,a3,a7
80004dec:	00c03633          	snez	a2,a2
80004df0:	8e55                	or	a2,a2,a3
80004df2:	00a75733          	srl	a4,a4,a0
/home/xl_ci/toolchain/riscv-gnu-toolchain/riscv-gcc/libgcc/soft-fp/subdf3.c:46 (discriminator 69)
80004df6:	962e                	add	a2,a2,a1
80004df8:	00b63533          	sltu	a0,a2,a1
80004dfc:	973e                	add	a4,a4,a5
80004dfe:	00a707b3          	add	a5,a4,a0
80004e02:	85b2                	mv	a1,a2
/home/xl_ci/toolchain/riscv-gnu-toolchain/riscv-gcc/libgcc/soft-fp/subdf3.c:46 (discriminator 127)
80004e04:	00800737          	lui	a4,0x800
80004e08:	8f7d                	and	a4,a4,a5
80004e0a:	14070663          	beqz	a4,80004f56 <__subdf3+0x236>
/home/xl_ci/toolchain/riscv-gnu-toolchain/riscv-gcc/libgcc/soft-fp/subdf3.c:46 (discriminator 187)
80004e0e:	0405                	addi	s0,s0,1
80004e10:	7ff00713          	li	a4,2047
80004e14:	48e40b63          	beq	s0,a4,800052aa <__subdf3+0x58a>
/home/xl_ci/toolchain/riscv-gnu-toolchain/riscv-gcc/libgcc/soft-fp/subdf3.c:46
80004e18:	ff800737          	lui	a4,0xff800
80004e1c:	177d                	addi	a4,a4,-1
80004e1e:	8ff9                	and	a5,a5,a4
80004e20:	0015f513          	andi	a0,a1,1
80004e24:	0015d713          	srli	a4,a1,0x1
80004e28:	8d59                	or	a0,a0,a4
80004e2a:	01f79593          	slli	a1,a5,0x1f
80004e2e:	8dc9                	or	a1,a1,a0
80004e30:	8385                	srli	a5,a5,0x1
80004e32:	a215                	j	80004f56 <__subdf3+0x236>
/home/xl_ci/toolchain/riscv-gnu-toolchain/riscv-gcc/libgcc/soft-fp/subdf3.c:46 (discriminator 56)
80004e34:	fe050693          	addi	a3,a0,-32
80004e38:	02000893          	li	a7,32
80004e3c:	00d756b3          	srl	a3,a4,a3
80004e40:	4801                	li	a6,0
80004e42:	01150863          	beq	a0,a7,80004e52 <__subdf3+0x132>
/home/xl_ci/toolchain/riscv-gnu-toolchain/riscv-gcc/libgcc/soft-fp/subdf3.c:46 (discriminator 63)
80004e46:	04000813          	li	a6,64
80004e4a:	40a80533          	sub	a0,a6,a0
80004e4e:	00a71833          	sll	a6,a4,a0
/home/xl_ci/toolchain/riscv-gnu-toolchain/riscv-gcc/libgcc/soft-fp/subdf3.c:46 (discriminator 66)
80004e52:	00c86633          	or	a2,a6,a2
80004e56:	00c03633          	snez	a2,a2
80004e5a:	8e55                	or	a2,a2,a3
/home/xl_ci/toolchain/riscv-gnu-toolchain/riscv-gcc/libgcc/soft-fp/subdf3.c:46 (discriminator 54)
80004e5c:	4701                	li	a4,0
80004e5e:	bf61                	j	80004df6 <__subdf3+0xd6>
80004e60:	8e59                	or	a2,a2,a4
80004e62:	00c03633          	snez	a2,a2
80004e66:	bfdd                	j	80004e5c <__subdf3+0x13c>
/home/xl_ci/toolchain/riscv-gnu-toolchain/riscv-gcc/libgcc/soft-fp/subdf3.c:46 (discriminator 15)
80004e68:	0a080b63          	beqz	a6,80004f1e <__subdf3+0x1fe>
/home/xl_ci/toolchain/riscv-gnu-toolchain/riscv-gcc/libgcc/soft-fp/subdf3.c:46 (discriminator 71)
80004e6c:	40830533          	sub	a0,t1,s0
80004e70:	e40d                	bnez	s0,80004e9a <__subdf3+0x17a>
/home/xl_ci/toolchain/riscv-gnu-toolchain/riscv-gcc/libgcc/soft-fp/subdf3.c:46 (discriminator 73)
80004e72:	00b7e6b3          	or	a3,a5,a1
80004e76:	42068163          	beqz	a3,80005298 <__subdf3+0x578>
/home/xl_ci/toolchain/riscv-gnu-toolchain/riscv-gcc/libgcc/soft-fp/subdf3.c:46 (discriminator 76)
80004e7a:	fff50693          	addi	a3,a0,-1
80004e7e:	e699                	bnez	a3,80004e8c <__subdf3+0x16c>
/home/xl_ci/toolchain/riscv-gnu-toolchain/riscv-gcc/libgcc/soft-fp/subdf3.c:46 (discriminator 85)
80004e80:	95b2                	add	a1,a1,a2
80004e82:	97ba                	add	a5,a5,a4
80004e84:	00c5b633          	sltu	a2,a1,a2
80004e88:	97b2                	add	a5,a5,a2
80004e8a:	bf29                	j	80004da4 <__subdf3+0x84>
/home/xl_ci/toolchain/riscv-gnu-toolchain/riscv-gcc/libgcc/soft-fp/subdf3.c:46 (discriminator 86)
80004e8c:	7ff00813          	li	a6,2047
80004e90:	01051d63          	bne	a0,a6,80004eaa <__subdf3+0x18a>
/home/xl_ci/toolchain/riscv-gnu-toolchain/riscv-gcc/libgcc/soft-fp/subdf3.c:45
80004e94:	87ba                	mv	a5,a4
80004e96:	85b2                	mv	a1,a2
80004e98:	bf21                	j	80004db0 <__subdf3+0x90>
/home/xl_ci/toolchain/riscv-gnu-toolchain/riscv-gcc/libgcc/soft-fp/subdf3.c:46 (discriminator 74)
80004e9a:	7ff00693          	li	a3,2047
80004e9e:	fed30be3          	beq	t1,a3,80004e94 <__subdf3+0x174>
/home/xl_ci/toolchain/riscv-gnu-toolchain/riscv-gcc/libgcc/soft-fp/subdf3.c:46 (discriminator 100)
80004ea2:	008006b7          	lui	a3,0x800
80004ea6:	8fd5                	or	a5,a5,a3
80004ea8:	86aa                	mv	a3,a0
/home/xl_ci/toolchain/riscv-gnu-toolchain/riscv-gcc/libgcc/soft-fp/subdf3.c:46 (discriminator 109)
80004eaa:	03800513          	li	a0,56
80004eae:	06d54363          	blt	a0,a3,80004f14 <__subdf3+0x1f4>
/home/xl_ci/toolchain/riscv-gnu-toolchain/riscv-gcc/libgcc/soft-fp/subdf3.c:46 (discriminator 110)
80004eb2:	457d                	li	a0,31
80004eb4:	02d54b63          	blt	a0,a3,80004eea <__subdf3+0x1ca>
/home/xl_ci/toolchain/riscv-gnu-toolchain/riscv-gcc/libgcc/soft-fp/subdf3.c:46 (discriminator 112)
80004eb8:	02000813          	li	a6,32
80004ebc:	40d80833          	sub	a6,a6,a3
80004ec0:	01079533          	sll	a0,a5,a6
80004ec4:	00d5d8b3          	srl	a7,a1,a3
80004ec8:	010595b3          	sll	a1,a1,a6
80004ecc:	01156533          	or	a0,a0,a7
80004ed0:	00b035b3          	snez	a1,a1
80004ed4:	8d4d                	or	a0,a0,a1
80004ed6:	00d7d7b3          	srl	a5,a5,a3
/home/xl_ci/toolchain/riscv-gnu-toolchain/riscv-gcc/libgcc/soft-fp/subdf3.c:46 (discriminator 126)
80004eda:	00c505b3          	add	a1,a0,a2
80004ede:	97ba                	add	a5,a5,a4
80004ee0:	00c5b633          	sltu	a2,a1,a2
80004ee4:	97b2                	add	a5,a5,a2
/home/xl_ci/toolchain/riscv-gnu-toolchain/riscv-gcc/libgcc/soft-fp/subdf3.c:45 (discriminator 126)
80004ee6:	841a                	mv	s0,t1
80004ee8:	bf31                	j	80004e04 <__subdf3+0xe4>
/home/xl_ci/toolchain/riscv-gnu-toolchain/riscv-gcc/libgcc/soft-fp/subdf3.c:46 (discriminator 113)
80004eea:	fe068513          	addi	a0,a3,-32 # 7fffe0 <__stack_size+0x7ff7e0>
80004eee:	02000893          	li	a7,32
80004ef2:	00a7d833          	srl	a6,a5,a0
80004ef6:	4501                	li	a0,0
80004ef8:	01168763          	beq	a3,a7,80004f06 <__subdf3+0x1e6>
/home/xl_ci/toolchain/riscv-gnu-toolchain/riscv-gcc/libgcc/soft-fp/subdf3.c:46 (discriminator 120)
80004efc:	04000513          	li	a0,64
80004f00:	8d15                	sub	a0,a0,a3
80004f02:	00a79533          	sll	a0,a5,a0
/home/xl_ci/toolchain/riscv-gnu-toolchain/riscv-gcc/libgcc/soft-fp/subdf3.c:46 (discriminator 123)
80004f06:	8d4d                	or	a0,a0,a1
80004f08:	00a03533          	snez	a0,a0
80004f0c:	00a86533          	or	a0,a6,a0
/home/xl_ci/toolchain/riscv-gnu-toolchain/riscv-gcc/libgcc/soft-fp/subdf3.c:46 (discriminator 111)
80004f10:	4781                	li	a5,0
80004f12:	b7e1                	j	80004eda <__subdf3+0x1ba>
80004f14:	00b7e533          	or	a0,a5,a1
80004f18:	00a03533          	snez	a0,a0
80004f1c:	bfd5                	j	80004f10 <__subdf3+0x1f0>
/home/xl_ci/toolchain/riscv-gnu-toolchain/riscv-gcc/libgcc/soft-fp/subdf3.c:46 (discriminator 72)
80004f1e:	00140693          	addi	a3,s0,1 # 80001 <__stack_size+0x7f801>
80004f22:	7fe6f513          	andi	a0,a3,2046
80004f26:	e13d                	bnez	a0,80004f8c <__subdf3+0x26c>
/home/xl_ci/toolchain/riscv-gnu-toolchain/riscv-gcc/libgcc/soft-fp/subdf3.c:46 (discriminator 128)
80004f28:	00b7e6b3          	or	a3,a5,a1
80004f2c:	e429                	bnez	s0,80004f76 <__subdf3+0x256>
/home/xl_ci/toolchain/riscv-gnu-toolchain/riscv-gcc/libgcc/soft-fp/subdf3.c:46 (discriminator 130)
80004f2e:	36068963          	beqz	a3,800052a0 <__subdf3+0x580>
/home/xl_ci/toolchain/riscv-gnu-toolchain/riscv-gcc/libgcc/soft-fp/subdf3.c:46 (discriminator 133)
80004f32:	00c766b3          	or	a3,a4,a2
80004f36:	c285                	beqz	a3,80004f56 <__subdf3+0x236>
/home/xl_ci/toolchain/riscv-gnu-toolchain/riscv-gcc/libgcc/soft-fp/subdf3.c:46 (discriminator 139)
80004f38:	962e                	add	a2,a2,a1
80004f3a:	97ba                	add	a5,a5,a4
80004f3c:	00b63533          	sltu	a0,a2,a1
80004f40:	97aa                	add	a5,a5,a0
80004f42:	00800737          	lui	a4,0x800
80004f46:	8f7d                	and	a4,a4,a5
80004f48:	85b2                	mv	a1,a2
80004f4a:	c711                	beqz	a4,80004f56 <__subdf3+0x236>
/home/xl_ci/toolchain/riscv-gnu-toolchain/riscv-gcc/libgcc/soft-fp/subdf3.c:46 (discriminator 141)
80004f4c:	ff800737          	lui	a4,0xff800
80004f50:	177d                	addi	a4,a4,-1
80004f52:	8ff9                	and	a5,a5,a4
80004f54:	4405                	li	s0,1
/home/xl_ci/toolchain/riscv-gnu-toolchain/riscv-gcc/libgcc/soft-fp/subdf3.c:47 (discriminator 426)
80004f56:	0075f713          	andi	a4,a1,7
80004f5a:	34070a63          	beqz	a4,800052ae <__subdf3+0x58e>
/home/xl_ci/toolchain/riscv-gnu-toolchain/riscv-gcc/libgcc/soft-fp/subdf3.c:47 (discriminator 37)
80004f5e:	00f5f713          	andi	a4,a1,15
80004f62:	4691                	li	a3,4
80004f64:	34d70563          	beq	a4,a3,800052ae <__subdf3+0x58e>
/home/xl_ci/toolchain/riscv-gnu-toolchain/riscv-gcc/libgcc/soft-fp/subdf3.c:47 (discriminator 44)
80004f68:	00458713          	addi	a4,a1,4
80004f6c:	00b73533          	sltu	a0,a4,a1
80004f70:	97aa                	add	a5,a5,a0
80004f72:	85ba                	mv	a1,a4
80004f74:	ae2d                	j	800052ae <__subdf3+0x58e>
/home/xl_ci/toolchain/riscv-gnu-toolchain/riscv-gcc/libgcc/soft-fp/subdf3.c:46 (discriminator 158)
80004f76:	de99                	beqz	a3,80004e94 <__subdf3+0x174>
/home/xl_ci/toolchain/riscv-gnu-toolchain/riscv-gcc/libgcc/soft-fp/subdf3.c:46 (discriminator 160)
80004f78:	8e59                	or	a2,a2,a4
80004f7a:	e2060be3          	beqz	a2,80004db0 <__subdf3+0x90>
/home/xl_ci/toolchain/riscv-gnu-toolchain/riscv-gcc/libgcc/soft-fp/subdf3.c:46
80004f7e:	4481                	li	s1,0
80004f80:	004007b7          	lui	a5,0x400
80004f84:	4581                	li	a1,0
80004f86:	7ff00413          	li	s0,2047
80004f8a:	a615                	j	800052ae <__subdf3+0x58e>
/home/xl_ci/toolchain/riscv-gnu-toolchain/riscv-gcc/libgcc/soft-fp/subdf3.c:46 (discriminator 129)
80004f8c:	7ff00513          	li	a0,2047
80004f90:	30a68b63          	beq	a3,a0,800052a6 <__subdf3+0x586>
/home/xl_ci/toolchain/riscv-gnu-toolchain/riscv-gcc/libgcc/soft-fp/subdf3.c:46
80004f94:	962e                	add	a2,a2,a1
80004f96:	00b63533          	sltu	a0,a2,a1
80004f9a:	97ba                	add	a5,a5,a4
80004f9c:	97aa                	add	a5,a5,a0
80004f9e:	01f79513          	slli	a0,a5,0x1f
80004fa2:	8205                	srli	a2,a2,0x1
80004fa4:	00c565b3          	or	a1,a0,a2
80004fa8:	8385                	srli	a5,a5,0x1
80004faa:	8436                	mv	s0,a3
80004fac:	b76d                	j	80004f56 <__subdf3+0x236>
/home/xl_ci/toolchain/riscv-gnu-toolchain/riscv-gcc/libgcc/soft-fp/subdf3.c:46 (discriminator 13)
80004fae:	0d005663          	blez	a6,8000507a <__subdf3+0x35a>
/home/xl_ci/toolchain/riscv-gnu-toolchain/riscv-gcc/libgcc/soft-fp/subdf3.c:46 (discriminator 205)
80004fb2:	08031163          	bnez	t1,80005034 <__subdf3+0x314>
/home/xl_ci/toolchain/riscv-gnu-toolchain/riscv-gcc/libgcc/soft-fp/subdf3.c:46 (discriminator 207)
80004fb6:	00c766b3          	or	a3,a4,a2
80004fba:	34068b63          	beqz	a3,80005310 <__subdf3+0x5f0>
/home/xl_ci/toolchain/riscv-gnu-toolchain/riscv-gcc/libgcc/soft-fp/subdf3.c:46 (discriminator 210)
80004fbe:	fff80513          	addi	a0,a6,-1
80004fc2:	e911                	bnez	a0,80004fd6 <__subdf3+0x2b6>
/home/xl_ci/toolchain/riscv-gnu-toolchain/riscv-gcc/libgcc/soft-fp/subdf3.c:46 (discriminator 219)
80004fc4:	40c58633          	sub	a2,a1,a2
80004fc8:	00c5b533          	sltu	a0,a1,a2
80004fcc:	8f99                	sub	a5,a5,a4
80004fce:	8f89                	sub	a5,a5,a0
80004fd0:	85b2                	mv	a1,a2
/home/xl_ci/toolchain/riscv-gnu-toolchain/riscv-gcc/libgcc/soft-fp/subdf3.c:45 (discriminator 276)
80004fd2:	4405                	li	s0,1
/home/xl_ci/toolchain/riscv-gnu-toolchain/riscv-gcc/libgcc/soft-fp/subdf3.c:46 (discriminator 276)
80004fd4:	a0b1                	j	80005020 <__subdf3+0x300>
/home/xl_ci/toolchain/riscv-gnu-toolchain/riscv-gcc/libgcc/soft-fp/subdf3.c:46 (discriminator 220)
80004fd6:	7ff00693          	li	a3,2047
80004fda:	dcd80be3          	beq	a6,a3,80004db0 <__subdf3+0x90>
/home/xl_ci/toolchain/riscv-gnu-toolchain/riscv-gcc/libgcc/soft-fp/subdf3.c:46 (discriminator 243)
80004fde:	03800693          	li	a3,56
80004fe2:	08a6c863          	blt	a3,a0,80005072 <__subdf3+0x352>
/home/xl_ci/toolchain/riscv-gnu-toolchain/riscv-gcc/libgcc/soft-fp/subdf3.c:46 (discriminator 244)
80004fe6:	46fd                	li	a3,31
80004fe8:	04a6cf63          	blt	a3,a0,80005046 <__subdf3+0x326>
/home/xl_ci/toolchain/riscv-gnu-toolchain/riscv-gcc/libgcc/soft-fp/subdf3.c:46 (discriminator 246)
80004fec:	02000813          	li	a6,32
80004ff0:	40a80833          	sub	a6,a6,a0
80004ff4:	010716b3          	sll	a3,a4,a6
80004ff8:	00a658b3          	srl	a7,a2,a0
80004ffc:	01061633          	sll	a2,a2,a6
80005000:	0116e6b3          	or	a3,a3,a7
80005004:	00c03633          	snez	a2,a2
80005008:	8e55                	or	a2,a2,a3
8000500a:	00a75733          	srl	a4,a4,a0
/home/xl_ci/toolchain/riscv-gnu-toolchain/riscv-gcc/libgcc/soft-fp/subdf3.c:46 (discriminator 260)
8000500e:	40c58633          	sub	a2,a1,a2
80005012:	00c5b533          	sltu	a0,a1,a2
80005016:	40e78733          	sub	a4,a5,a4
8000501a:	40a707b3          	sub	a5,a4,a0
8000501e:	85b2                	mv	a1,a2
/home/xl_ci/toolchain/riscv-gnu-toolchain/riscv-gcc/libgcc/soft-fp/subdf3.c:46 (discriminator 318)
80005020:	00800937          	lui	s2,0x800
80005024:	0127f733          	and	a4,a5,s2
80005028:	d71d                	beqz	a4,80004f56 <__subdf3+0x236>
/home/xl_ci/toolchain/riscv-gnu-toolchain/riscv-gcc/libgcc/soft-fp/subdf3.c:46 (discriminator 378)
8000502a:	197d                	addi	s2,s2,-1
8000502c:	0127f933          	and	s2,a5,s2
80005030:	89ae                	mv	s3,a1
80005032:	aa5d                	j	800051e8 <__subdf3+0x4c8>
/home/xl_ci/toolchain/riscv-gnu-toolchain/riscv-gcc/libgcc/soft-fp/subdf3.c:46 (discriminator 208)
80005034:	7ff00693          	li	a3,2047
80005038:	f0d40fe3          	beq	s0,a3,80004f56 <__subdf3+0x236>
/home/xl_ci/toolchain/riscv-gnu-toolchain/riscv-gcc/libgcc/soft-fp/subdf3.c:46 (discriminator 234)
8000503c:	008006b7          	lui	a3,0x800
80005040:	8f55                	or	a4,a4,a3
80005042:	8542                	mv	a0,a6
80005044:	bf69                	j	80004fde <__subdf3+0x2be>
/home/xl_ci/toolchain/riscv-gnu-toolchain/riscv-gcc/libgcc/soft-fp/subdf3.c:46 (discriminator 247)
80005046:	fe050693          	addi	a3,a0,-32
8000504a:	02000893          	li	a7,32
8000504e:	00d756b3          	srl	a3,a4,a3
80005052:	4801                	li	a6,0
80005054:	01150863          	beq	a0,a7,80005064 <__subdf3+0x344>
/home/xl_ci/toolchain/riscv-gnu-toolchain/riscv-gcc/libgcc/soft-fp/subdf3.c:46 (discriminator 254)
80005058:	04000813          	li	a6,64
8000505c:	40a80533          	sub	a0,a6,a0
80005060:	00a71833          	sll	a6,a4,a0
/home/xl_ci/toolchain/riscv-gnu-toolchain/riscv-gcc/libgcc/soft-fp/subdf3.c:46 (discriminator 257)
80005064:	00c86633          	or	a2,a6,a2
80005068:	00c03633          	snez	a2,a2
8000506c:	8e55                	or	a2,a2,a3
/home/xl_ci/toolchain/riscv-gnu-toolchain/riscv-gcc/libgcc/soft-fp/subdf3.c:46 (discriminator 245)
8000506e:	4701                	li	a4,0
80005070:	bf79                	j	8000500e <__subdf3+0x2ee>
80005072:	8e59                	or	a2,a2,a4
80005074:	00c03633          	snez	a2,a2
80005078:	bfdd                	j	8000506e <__subdf3+0x34e>
/home/xl_ci/toolchain/riscv-gnu-toolchain/riscv-gcc/libgcc/soft-fp/subdf3.c:46 (discriminator 206)
8000507a:	0c080563          	beqz	a6,80005144 <__subdf3+0x424>
/home/xl_ci/toolchain/riscv-gnu-toolchain/riscv-gcc/libgcc/soft-fp/subdf3.c:46 (discriminator 262)
8000507e:	40830533          	sub	a0,t1,s0
80005082:	e81d                	bnez	s0,800050b8 <__subdf3+0x398>
/home/xl_ci/toolchain/riscv-gnu-toolchain/riscv-gcc/libgcc/soft-fp/subdf3.c:46 (discriminator 264)
80005084:	00b7e833          	or	a6,a5,a1
80005088:	28080663          	beqz	a6,80005314 <__subdf3+0x5f4>
/home/xl_ci/toolchain/riscv-gnu-toolchain/riscv-gcc/libgcc/soft-fp/subdf3.c:46 (discriminator 267)
8000508c:	fff50813          	addi	a6,a0,-1
80005090:	00081b63          	bnez	a6,800050a6 <__subdf3+0x386>
/home/xl_ci/toolchain/riscv-gnu-toolchain/riscv-gcc/libgcc/soft-fp/subdf3.c:46 (discriminator 276)
80005094:	40b605b3          	sub	a1,a2,a1
80005098:	40f707b3          	sub	a5,a4,a5
8000509c:	00b63633          	sltu	a2,a2,a1
800050a0:	8f91                	sub	a5,a5,a2
800050a2:	84b6                	mv	s1,a3
800050a4:	b73d                	j	80004fd2 <__subdf3+0x2b2>
/home/xl_ci/toolchain/riscv-gnu-toolchain/riscv-gcc/libgcc/soft-fp/subdf3.c:46 (discriminator 277)
800050a6:	7ff00893          	li	a7,2047
800050aa:	03151063          	bne	a0,a7,800050ca <__subdf3+0x3aa>
/home/xl_ci/toolchain/riscv-gnu-toolchain/riscv-gcc/libgcc/soft-fp/subdf3.c:45
800050ae:	87ba                	mv	a5,a4
800050b0:	85b2                	mv	a1,a2
/home/xl_ci/toolchain/riscv-gnu-toolchain/riscv-gcc/libgcc/soft-fp/subdf3.c:46
800050b2:	7ff00413          	li	s0,2047
800050b6:	a07d                	j	80005164 <__subdf3+0x444>
/home/xl_ci/toolchain/riscv-gnu-toolchain/riscv-gcc/libgcc/soft-fp/subdf3.c:46 (discriminator 265)
800050b8:	7ff00813          	li	a6,2047
800050bc:	ff0309e3          	beq	t1,a6,800050ae <__subdf3+0x38e>
/home/xl_ci/toolchain/riscv-gnu-toolchain/riscv-gcc/libgcc/soft-fp/subdf3.c:46 (discriminator 291)
800050c0:	00800837          	lui	a6,0x800
800050c4:	0107e7b3          	or	a5,a5,a6
800050c8:	882a                	mv	a6,a0
/home/xl_ci/toolchain/riscv-gnu-toolchain/riscv-gcc/libgcc/soft-fp/subdf3.c:46 (discriminator 300)
800050ca:	03800513          	li	a0,56
800050ce:	07054663          	blt	a0,a6,8000513a <__subdf3+0x41a>
/home/xl_ci/toolchain/riscv-gnu-toolchain/riscv-gcc/libgcc/soft-fp/subdf3.c:46 (discriminator 301)
800050d2:	457d                	li	a0,31
800050d4:	03054d63          	blt	a0,a6,8000510e <__subdf3+0x3ee>
/home/xl_ci/toolchain/riscv-gnu-toolchain/riscv-gcc/libgcc/soft-fp/subdf3.c:46 (discriminator 303)
800050d8:	02000893          	li	a7,32
800050dc:	410888b3          	sub	a7,a7,a6
800050e0:	01179533          	sll	a0,a5,a7
800050e4:	0105de33          	srl	t3,a1,a6
800050e8:	011595b3          	sll	a1,a1,a7
800050ec:	01c56533          	or	a0,a0,t3
800050f0:	00b035b3          	snez	a1,a1
800050f4:	8d4d                	or	a0,a0,a1
800050f6:	0107d7b3          	srl	a5,a5,a6
/home/xl_ci/toolchain/riscv-gnu-toolchain/riscv-gcc/libgcc/soft-fp/subdf3.c:46 (discriminator 317)
800050fa:	40a605b3          	sub	a1,a2,a0
800050fe:	40f707b3          	sub	a5,a4,a5
80005102:	00b63633          	sltu	a2,a2,a1
80005106:	8f91                	sub	a5,a5,a2
/home/xl_ci/toolchain/riscv-gnu-toolchain/riscv-gcc/libgcc/soft-fp/subdf3.c:45 (discriminator 317)
80005108:	841a                	mv	s0,t1
8000510a:	84b6                	mv	s1,a3
8000510c:	bf11                	j	80005020 <__subdf3+0x300>
/home/xl_ci/toolchain/riscv-gnu-toolchain/riscv-gcc/libgcc/soft-fp/subdf3.c:46 (discriminator 304)
8000510e:	fe080513          	addi	a0,a6,-32 # 7fffe0 <__stack_size+0x7ff7e0>
80005112:	02000e13          	li	t3,32
80005116:	00a7d8b3          	srl	a7,a5,a0
8000511a:	4501                	li	a0,0
8000511c:	01c80863          	beq	a6,t3,8000512c <__subdf3+0x40c>
/home/xl_ci/toolchain/riscv-gnu-toolchain/riscv-gcc/libgcc/soft-fp/subdf3.c:46 (discriminator 311)
80005120:	04000513          	li	a0,64
80005124:	41050533          	sub	a0,a0,a6
80005128:	00a79533          	sll	a0,a5,a0
/home/xl_ci/toolchain/riscv-gnu-toolchain/riscv-gcc/libgcc/soft-fp/subdf3.c:46 (discriminator 314)
8000512c:	8d4d                	or	a0,a0,a1
8000512e:	00a03533          	snez	a0,a0
80005132:	00a8e533          	or	a0,a7,a0
/home/xl_ci/toolchain/riscv-gnu-toolchain/riscv-gcc/libgcc/soft-fp/subdf3.c:46 (discriminator 302)
80005136:	4781                	li	a5,0
80005138:	b7c9                	j	800050fa <__subdf3+0x3da>
8000513a:	00b7e533          	or	a0,a5,a1
8000513e:	00a03533          	snez	a0,a0
80005142:	bfd5                	j	80005136 <__subdf3+0x416>
/home/xl_ci/toolchain/riscv-gnu-toolchain/riscv-gcc/libgcc/soft-fp/subdf3.c:46 (discriminator 263)
80005144:	00140513          	addi	a0,s0,1
80005148:	7fe57513          	andi	a0,a0,2046
8000514c:	e925                	bnez	a0,800051bc <__subdf3+0x49c>
/home/xl_ci/toolchain/riscv-gnu-toolchain/riscv-gcc/libgcc/soft-fp/subdf3.c:46 (discriminator 319)
8000514e:	00b7e833          	or	a6,a5,a1
80005152:	00c76533          	or	a0,a4,a2
80005156:	e821                	bnez	s0,800051a6 <__subdf3+0x486>
/home/xl_ci/toolchain/riscv-gnu-toolchain/riscv-gcc/libgcc/soft-fp/subdf3.c:46 (discriminator 321)
80005158:	00081863          	bnez	a6,80005168 <__subdf3+0x448>
/home/xl_ci/toolchain/riscv-gnu-toolchain/riscv-gcc/libgcc/soft-fp/subdf3.c:46 (discriminator 323)
8000515c:	1c050063          	beqz	a0,8000531c <__subdf3+0x5fc>
/home/xl_ci/toolchain/riscv-gnu-toolchain/riscv-gcc/libgcc/soft-fp/subdf3.c:45
80005160:	87ba                	mv	a5,a4
80005162:	85b2                	mv	a1,a2
80005164:	84b6                	mv	s1,a3
80005166:	bbc5                	j	80004f56 <__subdf3+0x236>
/home/xl_ci/toolchain/riscv-gnu-toolchain/riscv-gcc/libgcc/soft-fp/subdf3.c:46 (discriminator 324)
80005168:	de0507e3          	beqz	a0,80004f56 <__subdf3+0x236>
/home/xl_ci/toolchain/riscv-gnu-toolchain/riscv-gcc/libgcc/soft-fp/subdf3.c:46 (discriminator 331)
8000516c:	40c58833          	sub	a6,a1,a2
80005170:	0105b8b3          	sltu	a7,a1,a6
80005174:	40e78533          	sub	a0,a5,a4
80005178:	41150533          	sub	a0,a0,a7
8000517c:	008008b7          	lui	a7,0x800
80005180:	011578b3          	and	a7,a0,a7
80005184:	00088a63          	beqz	a7,80005198 <__subdf3+0x478>
/home/xl_ci/toolchain/riscv-gnu-toolchain/riscv-gcc/libgcc/soft-fp/subdf3.c:46 (discriminator 333)
80005188:	40b605b3          	sub	a1,a2,a1
8000518c:	40f707b3          	sub	a5,a4,a5
80005190:	00b63633          	sltu	a2,a2,a1
80005194:	8f91                	sub	a5,a5,a2
80005196:	b7f9                	j	80005164 <__subdf3+0x444>
/home/xl_ci/toolchain/riscv-gnu-toolchain/riscv-gcc/libgcc/soft-fp/subdf3.c:46 (discriminator 334)
80005198:	00a865b3          	or	a1,a6,a0
8000519c:	18058463          	beqz	a1,80005324 <__subdf3+0x604>
/home/xl_ci/toolchain/riscv-gnu-toolchain/riscv-gcc/libgcc/soft-fp/subdf3.c:46
800051a0:	87aa                	mv	a5,a0
800051a2:	85c2                	mv	a1,a6
800051a4:	bb4d                	j	80004f56 <__subdf3+0x236>
/home/xl_ci/toolchain/riscv-gnu-toolchain/riscv-gcc/libgcc/soft-fp/subdf3.c:46 (discriminator 353)
800051a6:	00081863          	bnez	a6,800051b6 <__subdf3+0x496>
/home/xl_ci/toolchain/riscv-gnu-toolchain/riscv-gcc/libgcc/soft-fp/subdf3.c:46 (discriminator 354)
800051aa:	16050f63          	beqz	a0,80005328 <__subdf3+0x608>
/home/xl_ci/toolchain/riscv-gnu-toolchain/riscv-gcc/libgcc/soft-fp/subdf3.c:45
800051ae:	87ba                	mv	a5,a4
800051b0:	85b2                	mv	a1,a2
/home/xl_ci/toolchain/riscv-gnu-toolchain/riscv-gcc/libgcc/soft-fp/subdf3.c:46
800051b2:	84b6                	mv	s1,a3
800051b4:	bef5                	j	80004db0 <__subdf3+0x90>
/home/xl_ci/toolchain/riscv-gnu-toolchain/riscv-gcc/libgcc/soft-fp/subdf3.c:46 (discriminator 355)
800051b6:	be050de3          	beqz	a0,80004db0 <__subdf3+0x90>
800051ba:	b3d1                	j	80004f7e <__subdf3+0x25e>
/home/xl_ci/toolchain/riscv-gnu-toolchain/riscv-gcc/libgcc/soft-fp/subdf3.c:46 (discriminator 320)
800051bc:	40c589b3          	sub	s3,a1,a2
800051c0:	0135b533          	sltu	a0,a1,s3
800051c4:	40e78933          	sub	s2,a5,a4
800051c8:	40a90933          	sub	s2,s2,a0
800051cc:	00800537          	lui	a0,0x800
800051d0:	00a97533          	and	a0,s2,a0
800051d4:	c53d                	beqz	a0,80005242 <__subdf3+0x522>
/home/xl_ci/toolchain/riscv-gnu-toolchain/riscv-gcc/libgcc/soft-fp/subdf3.c:46 (discriminator 371)
800051d6:	40b609b3          	sub	s3,a2,a1
800051da:	40f707b3          	sub	a5,a4,a5
800051de:	01363633          	sltu	a2,a2,s3
800051e2:	40c78933          	sub	s2,a5,a2
800051e6:	84b6                	mv	s1,a3
/home/xl_ci/toolchain/riscv-gnu-toolchain/riscv-gcc/libgcc/soft-fp/subdf3.c:46 (discriminator 380)
800051e8:	06090363          	beqz	s2,8000524e <__subdf3+0x52e>
/home/xl_ci/toolchain/riscv-gnu-toolchain/riscv-gcc/libgcc/soft-fp/subdf3.c:46 (discriminator 383)
800051ec:	854a                	mv	a0,s2
800051ee:	29e1                	jal	800056c6 <__clzsi2>
/home/xl_ci/toolchain/riscv-gnu-toolchain/riscv-gcc/libgcc/soft-fp/subdf3.c:46 (discriminator 397)
800051f0:	ff850713          	addi	a4,a0,-8 # 7ffff8 <__stack_size+0x7ff7f8>
800051f4:	47fd                	li	a5,31
800051f6:	06e7c163          	blt	a5,a4,80005258 <__subdf3+0x538>
/home/xl_ci/toolchain/riscv-gnu-toolchain/riscv-gcc/libgcc/soft-fp/subdf3.c:46 (discriminator 403)
800051fa:	02000793          	li	a5,32
800051fe:	8f99                	sub	a5,a5,a4
80005200:	00e91933          	sll	s2,s2,a4
80005204:	00f9d7b3          	srl	a5,s3,a5
80005208:	0127e7b3          	or	a5,a5,s2
8000520c:	00e995b3          	sll	a1,s3,a4
/home/xl_ci/toolchain/riscv-gnu-toolchain/riscv-gcc/libgcc/soft-fp/subdf3.c:46 (discriminator 407)
80005210:	06874e63          	blt	a4,s0,8000528c <__subdf3+0x56c>
/home/xl_ci/toolchain/riscv-gnu-toolchain/riscv-gcc/libgcc/soft-fp/subdf3.c:46 (discriminator 408)
80005214:	8f01                	sub	a4,a4,s0
80005216:	00170693          	addi	a3,a4,1 # ff800001 <_sp+0x6f7f0001>
8000521a:	467d                	li	a2,31
8000521c:	04d64463          	blt	a2,a3,80005264 <__subdf3+0x544>
/home/xl_ci/toolchain/riscv-gnu-toolchain/riscv-gcc/libgcc/soft-fp/subdf3.c:46 (discriminator 410)
80005220:	02000713          	li	a4,32
80005224:	8f15                	sub	a4,a4,a3
80005226:	00e79633          	sll	a2,a5,a4
8000522a:	00d5d533          	srl	a0,a1,a3
8000522e:	00e595b3          	sll	a1,a1,a4
80005232:	8e49                	or	a2,a2,a0
80005234:	00b035b3          	snez	a1,a1
80005238:	8dd1                	or	a1,a1,a2
8000523a:	00d7d7b3          	srl	a5,a5,a3
/home/xl_ci/toolchain/riscv-gnu-toolchain/riscv-gcc/libgcc/soft-fp/subdf3.c:46 (discriminator 422)
8000523e:	4401                	li	s0,0
80005240:	bb19                	j	80004f56 <__subdf3+0x236>
/home/xl_ci/toolchain/riscv-gnu-toolchain/riscv-gcc/libgcc/soft-fp/subdf3.c:46 (discriminator 372)
80005242:	0129e5b3          	or	a1,s3,s2
80005246:	f1cd                	bnez	a1,800051e8 <__subdf3+0x4c8>
80005248:	4781                	li	a5,0
/home/xl_ci/toolchain/riscv-gnu-toolchain/riscv-gcc/libgcc/soft-fp/subdf3.c:46
8000524a:	4401                	li	s0,0
8000524c:	a8d1                	j	80005320 <__subdf3+0x600>
/home/xl_ci/toolchain/riscv-gnu-toolchain/riscv-gcc/libgcc/soft-fp/subdf3.c:46 (discriminator 390)
8000524e:	854e                	mv	a0,s3
80005250:	299d                	jal	800056c6 <__clzsi2>
80005252:	02050513          	addi	a0,a0,32
80005256:	bf69                	j	800051f0 <__subdf3+0x4d0>
/home/xl_ci/toolchain/riscv-gnu-toolchain/riscv-gcc/libgcc/soft-fp/subdf3.c:46 (discriminator 399)
80005258:	fd850793          	addi	a5,a0,-40
8000525c:	00f997b3          	sll	a5,s3,a5
80005260:	4581                	li	a1,0
80005262:	b77d                	j	80005210 <__subdf3+0x4f0>
/home/xl_ci/toolchain/riscv-gnu-toolchain/riscv-gcc/libgcc/soft-fp/subdf3.c:46 (discriminator 411)
80005264:	1705                	addi	a4,a4,-31
80005266:	02000613          	li	a2,32
8000526a:	00e7d733          	srl	a4,a5,a4
8000526e:	4501                	li	a0,0
80005270:	00c68763          	beq	a3,a2,8000527e <__subdf3+0x55e>
/home/xl_ci/toolchain/riscv-gnu-toolchain/riscv-gcc/libgcc/soft-fp/subdf3.c:46 (discriminator 419)
80005274:	04000513          	li	a0,64
80005278:	8d15                	sub	a0,a0,a3
8000527a:	00a79533          	sll	a0,a5,a0
/home/xl_ci/toolchain/riscv-gnu-toolchain/riscv-gcc/libgcc/soft-fp/subdf3.c:46 (discriminator 422)
8000527e:	8d4d                	or	a0,a0,a1
80005280:	00a03533          	snez	a0,a0
80005284:	00a765b3          	or	a1,a4,a0
80005288:	4781                	li	a5,0
8000528a:	bf55                	j	8000523e <__subdf3+0x51e>
/home/xl_ci/toolchain/riscv-gnu-toolchain/riscv-gcc/libgcc/soft-fp/subdf3.c:46 (discriminator 409)
8000528c:	8c19                	sub	s0,s0,a4
8000528e:	ff800737          	lui	a4,0xff800
80005292:	177d                	addi	a4,a4,-1
80005294:	8ff9                	and	a5,a5,a4
80005296:	b1c1                	j	80004f56 <__subdf3+0x236>
/home/xl_ci/toolchain/riscv-gnu-toolchain/riscv-gcc/libgcc/soft-fp/subdf3.c:45
80005298:	87ba                	mv	a5,a4
8000529a:	85b2                	mv	a1,a2
/home/xl_ci/toolchain/riscv-gnu-toolchain/riscv-gcc/libgcc/soft-fp/subdf3.c:46
8000529c:	842a                	mv	s0,a0
8000529e:	b965                	j	80004f56 <__subdf3+0x236>
/home/xl_ci/toolchain/riscv-gnu-toolchain/riscv-gcc/libgcc/soft-fp/subdf3.c:45
800052a0:	87ba                	mv	a5,a4
800052a2:	85b2                	mv	a1,a2
800052a4:	b94d                	j	80004f56 <__subdf3+0x236>
800052a6:	7ff00413          	li	s0,2047
800052aa:	4781                	li	a5,0
800052ac:	4581                	li	a1,0
/home/xl_ci/toolchain/riscv-gnu-toolchain/riscv-gcc/libgcc/soft-fp/subdf3.c:47 (discriminator 47)
800052ae:	00800737          	lui	a4,0x800
800052b2:	8f7d                	and	a4,a4,a5
800052b4:	cb11                	beqz	a4,800052c8 <__subdf3+0x5a8>
/home/xl_ci/toolchain/riscv-gnu-toolchain/riscv-gcc/libgcc/soft-fp/subdf3.c:47 (discriminator 63)
800052b6:	0405                	addi	s0,s0,1
800052b8:	7ff00713          	li	a4,2047
800052bc:	06e40b63          	beq	s0,a4,80005332 <__subdf3+0x612>
/home/xl_ci/toolchain/riscv-gnu-toolchain/riscv-gcc/libgcc/soft-fp/subdf3.c:47
800052c0:	ff800737          	lui	a4,0xff800
800052c4:	177d                	addi	a4,a4,-1
800052c6:	8ff9                	and	a5,a5,a4
/home/xl_ci/toolchain/riscv-gnu-toolchain/riscv-gcc/libgcc/soft-fp/subdf3.c:47 (discriminator 79)
800052c8:	01d79713          	slli	a4,a5,0x1d
800052cc:	0035d513          	srli	a0,a1,0x3
800052d0:	8d59                	or	a0,a0,a4
800052d2:	7ff00713          	li	a4,2047
800052d6:	838d                	srli	a5,a5,0x3
800052d8:	00e41963          	bne	s0,a4,800052ea <__subdf3+0x5ca>
/home/xl_ci/toolchain/riscv-gnu-toolchain/riscv-gcc/libgcc/soft-fp/subdf3.c:47 (discriminator 80)
800052dc:	8d5d                	or	a0,a0,a5
800052de:	4781                	li	a5,0
800052e0:	c509                	beqz	a0,800052ea <__subdf3+0x5ca>
/home/xl_ci/toolchain/riscv-gnu-toolchain/riscv-gcc/libgcc/soft-fp/subdf3.c:47
800052e2:	000807b7          	lui	a5,0x80
800052e6:	4501                	li	a0,0
800052e8:	4481                	li	s1,0
/home/xl_ci/toolchain/riscv-gnu-toolchain/riscv-gcc/libgcc/soft-fp/subdf3.c:47 (discriminator 90)
800052ea:	01441713          	slli	a4,s0,0x14
800052ee:	7ff006b7          	lui	a3,0x7ff00
800052f2:	07b2                	slli	a5,a5,0xc
/home/xl_ci/toolchain/riscv-gnu-toolchain/riscv-gcc/libgcc/soft-fp/subdf3.c:51 (discriminator 90)
800052f4:	40f2                	lw	ra,28(sp)
800052f6:	4462                	lw	s0,24(sp)
/home/xl_ci/toolchain/riscv-gnu-toolchain/riscv-gcc/libgcc/soft-fp/subdf3.c:47 (discriminator 90)
800052f8:	8f75                	and	a4,a4,a3
800052fa:	83b1                	srli	a5,a5,0xc
800052fc:	04fe                	slli	s1,s1,0x1f
800052fe:	8fd9                	or	a5,a5,a4
80005300:	0097e733          	or	a4,a5,s1
/home/xl_ci/toolchain/riscv-gnu-toolchain/riscv-gcc/libgcc/soft-fp/subdf3.c:51 (discriminator 90)
80005304:	4942                	lw	s2,16(sp)
80005306:	44d2                	lw	s1,20(sp)
80005308:	49b2                	lw	s3,12(sp)
8000530a:	85ba                	mv	a1,a4
8000530c:	6105                	addi	sp,sp,32
8000530e:	8082                	ret
80005310:	8442                	mv	s0,a6
80005312:	b191                	j	80004f56 <__subdf3+0x236>
/home/xl_ci/toolchain/riscv-gnu-toolchain/riscv-gcc/libgcc/soft-fp/subdf3.c:45
80005314:	87ba                	mv	a5,a4
80005316:	85b2                	mv	a1,a2
/home/xl_ci/toolchain/riscv-gnu-toolchain/riscv-gcc/libgcc/soft-fp/subdf3.c:46
80005318:	842a                	mv	s0,a0
8000531a:	b5a9                	j	80005164 <__subdf3+0x444>
8000531c:	4781                	li	a5,0
8000531e:	4581                	li	a1,0
80005320:	4481                	li	s1,0
80005322:	b771                	j	800052ae <__subdf3+0x58e>
80005324:	4781                	li	a5,0
80005326:	bfed                	j	80005320 <__subdf3+0x600>
80005328:	4581                	li	a1,0
8000532a:	4481                	li	s1,0
8000532c:	004007b7          	lui	a5,0x400
80005330:	b999                	j	80004f86 <__subdf3+0x266>
80005332:	4781                	li	a5,0
80005334:	4581                	li	a1,0
80005336:	bf49                	j	800052c8 <__subdf3+0x5a8>

80005338 <__unorddf2>:
__unorddf2():
/home/xl_ci/toolchain/riscv-gnu-toolchain/riscv-gcc/libgcc/soft-fp/unorddf2.c:42
80005338:	00100737          	lui	a4,0x100
8000533c:	fff70793          	addi	a5,a4,-1 # fffff <__stack_size+0xff7ff>
80005340:	00b7f733          	and	a4,a5,a1
80005344:	81d1                	srli	a1,a1,0x14
/home/xl_ci/toolchain/riscv-gnu-toolchain/riscv-gcc/libgcc/soft-fp/unorddf2.c:43
80005346:	8ff5                	and	a5,a5,a3
/home/xl_ci/toolchain/riscv-gnu-toolchain/riscv-gcc/libgcc/soft-fp/unorddf2.c:42
80005348:	7ff5f593          	andi	a1,a1,2047
/home/xl_ci/toolchain/riscv-gnu-toolchain/riscv-gcc/libgcc/soft-fp/unorddf2.c:43
8000534c:	82d1                	srli	a3,a3,0x14
/home/xl_ci/toolchain/riscv-gnu-toolchain/riscv-gcc/libgcc/soft-fp/unorddf2.c:44
8000534e:	7ff00813          	li	a6,2047
/home/xl_ci/toolchain/riscv-gnu-toolchain/riscv-gcc/libgcc/soft-fp/unorddf2.c:43
80005352:	7ff6f693          	andi	a3,a3,2047
/home/xl_ci/toolchain/riscv-gnu-toolchain/riscv-gcc/libgcc/soft-fp/unorddf2.c:44
80005356:	01059563          	bne	a1,a6,80005360 <__unorddf2+0x28>
/home/xl_ci/toolchain/riscv-gnu-toolchain/riscv-gcc/libgcc/soft-fp/unorddf2.c:44 (discriminator 20)
8000535a:	8f49                	or	a4,a4,a0
8000535c:	4505                	li	a0,1
8000535e:	eb09                	bnez	a4,80005370 <__unorddf2+0x38>
/home/xl_ci/toolchain/riscv-gnu-toolchain/riscv-gcc/libgcc/soft-fp/unorddf2.c:44 (discriminator 23)
80005360:	7ff00713          	li	a4,2047
80005364:	4501                	li	a0,0
80005366:	00e69563          	bne	a3,a4,80005370 <__unorddf2+0x38>
/home/xl_ci/toolchain/riscv-gnu-toolchain/riscv-gcc/libgcc/soft-fp/unorddf2.c:44 (discriminator 24)
8000536a:	8fd1                	or	a5,a5,a2
8000536c:	00f03533          	snez	a0,a5
/home/xl_ci/toolchain/riscv-gnu-toolchain/riscv-gcc/libgcc/soft-fp/unorddf2.c:48
80005370:	8082                	ret

80005372 <__fixdfsi>:
__fixdfsi():
/home/xl_ci/toolchain/riscv-gnu-toolchain/riscv-gcc/libgcc/soft-fp/fixdfsi.c:42
80005372:	0145d713          	srli	a4,a1,0x14
80005376:	001006b7          	lui	a3,0x100
8000537a:	fff68793          	addi	a5,a3,-1 # fffff <__stack_size+0xff7ff>
8000537e:	7ff77713          	andi	a4,a4,2047
/home/xl_ci/toolchain/riscv-gnu-toolchain/riscv-gcc/libgcc/soft-fp/fixdfsi.c:43
80005382:	3fe00613          	li	a2,1022
/home/xl_ci/toolchain/riscv-gnu-toolchain/riscv-gcc/libgcc/soft-fp/fixdfsi.c:42
80005386:	8fed                	and	a5,a5,a1
80005388:	81fd                	srli	a1,a1,0x1f
/home/xl_ci/toolchain/riscv-gnu-toolchain/riscv-gcc/libgcc/soft-fp/fixdfsi.c:43
8000538a:	04e65463          	bge	a2,a4,800053d2 <__fixdfsi+0x60>
/home/xl_ci/toolchain/riscv-gnu-toolchain/riscv-gcc/libgcc/soft-fp/fixdfsi.c:43 (discriminator 10)
8000538e:	41d00613          	li	a2,1053
80005392:	00e65863          	bge	a2,a4,800053a2 <__fixdfsi+0x30>
/home/xl_ci/toolchain/riscv-gnu-toolchain/riscv-gcc/libgcc/soft-fp/fixdfsi.c:43 (discriminator 14)
80005396:	80000537          	lui	a0,0x80000
8000539a:	fff54513          	not	a0,a0
8000539e:	952e                	add	a0,a0,a1
800053a0:	8082                	ret
/home/xl_ci/toolchain/riscv-gnu-toolchain/riscv-gcc/libgcc/soft-fp/fixdfsi.c:43 (discriminator 13)
800053a2:	8fd5                	or	a5,a5,a3
800053a4:	43300693          	li	a3,1075
800053a8:	8e99                	sub	a3,a3,a4
800053aa:	467d                	li	a2,31
800053ac:	00d64d63          	blt	a2,a3,800053c6 <__fixdfsi+0x54>
/home/xl_ci/toolchain/riscv-gnu-toolchain/riscv-gcc/libgcc/soft-fp/fixdfsi.c:43 (discriminator 30)
800053b0:	bed70713          	addi	a4,a4,-1043
800053b4:	00e797b3          	sll	a5,a5,a4
800053b8:	00d55533          	srl	a0,a0,a3
800053bc:	8d5d                	or	a0,a0,a5
/home/xl_ci/toolchain/riscv-gnu-toolchain/riscv-gcc/libgcc/soft-fp/fixdfsi.c:43 (discriminator 43)
800053be:	c999                	beqz	a1,800053d4 <__fixdfsi+0x62>
/home/xl_ci/toolchain/riscv-gnu-toolchain/riscv-gcc/libgcc/soft-fp/fixdfsi.c:43 (discriminator 45)
800053c0:	40a00533          	neg	a0,a0
800053c4:	8082                	ret
/home/xl_ci/toolchain/riscv-gnu-toolchain/riscv-gcc/libgcc/soft-fp/fixdfsi.c:43 (discriminator 42)
800053c6:	41300513          	li	a0,1043
800053ca:	8d19                	sub	a0,a0,a4
800053cc:	00a7d533          	srl	a0,a5,a0
800053d0:	b7fd                	j	800053be <__fixdfsi+0x4c>
/home/xl_ci/toolchain/riscv-gnu-toolchain/riscv-gcc/libgcc/soft-fp/fixdfsi.c:43
800053d2:	4501                	li	a0,0
/home/xl_ci/toolchain/riscv-gnu-toolchain/riscv-gcc/libgcc/soft-fp/fixdfsi.c:47 (discriminator 59)
800053d4:	8082                	ret

800053d6 <__floatsidf>:
__floatsidf():
/home/xl_ci/toolchain/riscv-gnu-toolchain/riscv-gcc/libgcc/soft-fp/floatsidf.c:37
800053d6:	1141                	addi	sp,sp,-16
800053d8:	c606                	sw	ra,12(sp)
800053da:	c422                	sw	s0,8(sp)
800053dc:	c226                	sw	s1,4(sp)
/home/xl_ci/toolchain/riscv-gnu-toolchain/riscv-gcc/libgcc/soft-fp/floatsidf.c:41
800053de:	cd21                	beqz	a0,80005436 <__floatsidf+0x60>
/home/xl_ci/toolchain/riscv-gnu-toolchain/riscv-gcc/libgcc/soft-fp/floatsidf.c:41 (discriminator 1)
800053e0:	41f55793          	srai	a5,a0,0x1f
800053e4:	00a7c433          	xor	s0,a5,a0
800053e8:	8c1d                	sub	s0,s0,a5
800053ea:	01f55493          	srli	s1,a0,0x1f
800053ee:	8522                	mv	a0,s0
800053f0:	2cd9                	jal	800056c6 <__clzsi2>
800053f2:	41e00713          	li	a4,1054
800053f6:	47a9                	li	a5,10
800053f8:	8f09                	sub	a4,a4,a0
800053fa:	02a7c863          	blt	a5,a0,8000542a <__floatsidf+0x54>
/home/xl_ci/toolchain/riscv-gnu-toolchain/riscv-gcc/libgcc/soft-fp/floatsidf.c:41 (discriminator 23)
800053fe:	47ad                	li	a5,11
80005400:	8f89                	sub	a5,a5,a0
80005402:	0555                	addi	a0,a0,21
80005404:	00f457b3          	srl	a5,s0,a5
80005408:	00a41433          	sll	s0,s0,a0
8000540c:	8526                	mv	a0,s1
/home/xl_ci/toolchain/riscv-gnu-toolchain/riscv-gcc/libgcc/soft-fp/floatsidf.c:42 (discriminator 126)
8000540e:	07b2                	slli	a5,a5,0xc
80005410:	0752                	slli	a4,a4,0x14
80005412:	83b1                	srli	a5,a5,0xc
80005414:	057e                	slli	a0,a0,0x1f
80005416:	8fd9                	or	a5,a5,a4
/home/xl_ci/toolchain/riscv-gnu-toolchain/riscv-gcc/libgcc/soft-fp/floatsidf.c:45 (discriminator 126)
80005418:	40b2                	lw	ra,12(sp)
/home/xl_ci/toolchain/riscv-gnu-toolchain/riscv-gcc/libgcc/soft-fp/floatsidf.c:42 (discriminator 126)
8000541a:	00a7e733          	or	a4,a5,a0
/home/xl_ci/toolchain/riscv-gnu-toolchain/riscv-gcc/libgcc/soft-fp/floatsidf.c:45 (discriminator 126)
8000541e:	8522                	mv	a0,s0
80005420:	4422                	lw	s0,8(sp)
80005422:	4492                	lw	s1,4(sp)
80005424:	85ba                	mv	a1,a4
80005426:	0141                	addi	sp,sp,16
80005428:	8082                	ret
/home/xl_ci/toolchain/riscv-gnu-toolchain/riscv-gcc/libgcc/soft-fp/floatsidf.c:41 (discriminator 24)
8000542a:	1555                	addi	a0,a0,-11
8000542c:	00a417b3          	sll	a5,s0,a0
80005430:	8526                	mv	a0,s1
/home/xl_ci/toolchain/riscv-gnu-toolchain/riscv-gcc/libgcc/soft-fp/floatsidf.c:41
80005432:	4401                	li	s0,0
80005434:	bfe9                	j	8000540e <__floatsidf+0x38>
80005436:	4701                	li	a4,0
80005438:	4781                	li	a5,0
8000543a:	bfe5                	j	80005432 <__floatsidf+0x5c>

8000543c <__floatunsidf>:
__floatunsidf():
/home/xl_ci/toolchain/riscv-gnu-toolchain/riscv-gcc/libgcc/soft-fp/floatunsidf.c:37
8000543c:	1141                	addi	sp,sp,-16
8000543e:	c422                	sw	s0,8(sp)
80005440:	c606                	sw	ra,12(sp)
80005442:	842a                	mv	s0,a0
/home/xl_ci/toolchain/riscv-gnu-toolchain/riscv-gcc/libgcc/soft-fp/floatunsidf.c:41
80005444:	c121                	beqz	a0,80005484 <__floatunsidf+0x48>
/home/xl_ci/toolchain/riscv-gnu-toolchain/riscv-gcc/libgcc/soft-fp/floatunsidf.c:41 (discriminator 6)
80005446:	2441                	jal	800056c6 <__clzsi2>
80005448:	41e00713          	li	a4,1054
8000544c:	47a9                	li	a5,10
8000544e:	8f09                	sub	a4,a4,a0
80005450:	02a7c463          	blt	a5,a0,80005478 <__floatunsidf+0x3c>
/home/xl_ci/toolchain/riscv-gnu-toolchain/riscv-gcc/libgcc/soft-fp/floatunsidf.c:41 (discriminator 23)
80005454:	47ad                	li	a5,11
80005456:	8f89                	sub	a5,a5,a0
80005458:	0555                	addi	a0,a0,21
8000545a:	00f457b3          	srl	a5,s0,a5
8000545e:	00a41433          	sll	s0,s0,a0
/home/xl_ci/toolchain/riscv-gnu-toolchain/riscv-gcc/libgcc/soft-fp/floatunsidf.c:45 (discriminator 126)
80005462:	40b2                	lw	ra,12(sp)
80005464:	8522                	mv	a0,s0
/home/xl_ci/toolchain/riscv-gnu-toolchain/riscv-gcc/libgcc/soft-fp/floatunsidf.c:42 (discriminator 126)
80005466:	07b2                	slli	a5,a5,0xc
/home/xl_ci/toolchain/riscv-gnu-toolchain/riscv-gcc/libgcc/soft-fp/floatunsidf.c:45 (discriminator 126)
80005468:	4422                	lw	s0,8(sp)
/home/xl_ci/toolchain/riscv-gnu-toolchain/riscv-gcc/libgcc/soft-fp/floatunsidf.c:42 (discriminator 126)
8000546a:	0752                	slli	a4,a4,0x14
8000546c:	83b1                	srli	a5,a5,0xc
8000546e:	00f766b3          	or	a3,a4,a5
/home/xl_ci/toolchain/riscv-gnu-toolchain/riscv-gcc/libgcc/soft-fp/floatunsidf.c:45 (discriminator 126)
80005472:	85b6                	mv	a1,a3
80005474:	0141                	addi	sp,sp,16
80005476:	8082                	ret
/home/xl_ci/toolchain/riscv-gnu-toolchain/riscv-gcc/libgcc/soft-fp/floatunsidf.c:41 (discriminator 24)
80005478:	ff550793          	addi	a5,a0,-11 # 7ffffff5 <_sp+0xeffefff5>
8000547c:	00f417b3          	sll	a5,s0,a5
80005480:	4401                	li	s0,0
80005482:	b7c5                	j	80005462 <__floatunsidf+0x26>
/home/xl_ci/toolchain/riscv-gnu-toolchain/riscv-gcc/libgcc/soft-fp/floatunsidf.c:41
80005484:	4781                	li	a5,0
80005486:	4701                	li	a4,0
80005488:	bfe9                	j	80005462 <__floatunsidf+0x26>

8000548a <__trunctfdf2>:
__trunctfdf2():
/home/xl_ci/toolchain/riscv-gnu-toolchain/riscv-gcc/libgcc/soft-fp/trunctfdf2.c:37
8000548a:	7179                	addi	sp,sp,-48
8000548c:	451c                	lw	a5,8(a0)
8000548e:	d422                	sw	s0,40(sp)
80005490:	4540                	lw	s0,12(a0)
80005492:	4158                	lw	a4,4(a0)
80005494:	4114                	lw	a3,0(a0)
/home/xl_ci/toolchain/riscv-gnu-toolchain/riscv-gcc/libgcc/soft-fp/trunctfdf2.c:44
80005496:	c43e                	sw	a5,8(sp)
80005498:	cc3e                	sw	a5,24(sp)
8000549a:	01041793          	slli	a5,s0,0x10
8000549e:	c23a                	sw	a4,4(sp)
800054a0:	ca3a                	sw	a4,20(sp)
800054a2:	83c1                	srli	a5,a5,0x10
800054a4:	00141713          	slli	a4,s0,0x1
800054a8:	c622                	sw	s0,12(sp)
/home/xl_ci/toolchain/riscv-gnu-toolchain/riscv-gcc/libgcc/soft-fp/trunctfdf2.c:37
800054aa:	d606                	sw	ra,44(sp)
800054ac:	d226                	sw	s1,36(sp)
/home/xl_ci/toolchain/riscv-gnu-toolchain/riscv-gcc/libgcc/soft-fp/trunctfdf2.c:44
800054ae:	c036                	sw	a3,0(sp)
800054b0:	c836                	sw	a3,16(sp)
800054b2:	ce3e                	sw	a5,28(sp)
800054b4:	8345                	srli	a4,a4,0x11
800054b6:	807d                	srli	s0,s0,0x1f
800054b8:	0808                	addi	a0,sp,16
800054ba:	0870                	addi	a2,sp,28
/home/xl_ci/toolchain/riscv-gnu-toolchain/riscv-gcc/libgcc/soft-fp/trunctfdf2.c:44 (discriminator 8)
800054bc:	421c                	lw	a5,0(a2)
800054be:	ffc62683          	lw	a3,-4(a2) # 7feffffc <__stack_size+0x7feff7fc>
800054c2:	1671                	addi	a2,a2,-4
800054c4:	078e                	slli	a5,a5,0x3
800054c6:	82f5                	srli	a3,a3,0x1d
800054c8:	8fd5                	or	a5,a5,a3
800054ca:	c25c                	sw	a5,4(a2)
800054cc:	fec518e3          	bne	a0,a2,800054bc <__trunctfdf2+0x32>
/home/xl_ci/toolchain/riscv-gnu-toolchain/riscv-gcc/libgcc/soft-fp/trunctfdf2.c:44 (discriminator 9)
800054d0:	46c2                	lw	a3,16(sp)
/home/xl_ci/toolchain/riscv-gnu-toolchain/riscv-gcc/libgcc/soft-fp/trunctfdf2.c:46 (discriminator 9)
800054d2:	00170793          	addi	a5,a4,1
/home/xl_ci/toolchain/riscv-gnu-toolchain/riscv-gcc/libgcc/soft-fp/trunctfdf2.c:44 (discriminator 9)
800054d6:	00369593          	slli	a1,a3,0x3
/home/xl_ci/toolchain/riscv-gnu-toolchain/riscv-gcc/libgcc/soft-fp/trunctfdf2.c:46 (discriminator 9)
800054da:	66a1                	lui	a3,0x8
800054dc:	16f9                	addi	a3,a3,-2
/home/xl_ci/toolchain/riscv-gnu-toolchain/riscv-gcc/libgcc/soft-fp/trunctfdf2.c:44 (discriminator 9)
800054de:	c82e                	sw	a1,16(sp)
/home/xl_ci/toolchain/riscv-gnu-toolchain/riscv-gcc/libgcc/soft-fp/trunctfdf2.c:46 (discriminator 9)
800054e0:	8ff5                	and	a5,a5,a3
800054e2:	12078f63          	beqz	a5,80005620 <__trunctfdf2+0x196>
/home/xl_ci/toolchain/riscv-gnu-toolchain/riscv-gcc/libgcc/soft-fp/trunctfdf2.c:46 (discriminator 1)
800054e6:	77f1                	lui	a5,0xffffc
800054e8:	40078793          	addi	a5,a5,1024 # ffffc400 <_sp+0x6ffec400>
800054ec:	973e                	add	a4,a4,a5
800054ee:	7fe00793          	li	a5,2046
800054f2:	16e7c363          	blt	a5,a4,80005658 <__trunctfdf2+0x1ce>
/home/xl_ci/toolchain/riscv-gnu-toolchain/riscv-gcc/libgcc/soft-fp/trunctfdf2.c:46 (discriminator 4)
800054f6:	04e05663          	blez	a4,80005542 <__trunctfdf2+0xb8>
/home/xl_ci/toolchain/riscv-gnu-toolchain/riscv-gcc/libgcc/soft-fp/trunctfdf2.c:46
800054fa:	4562                	lw	a0,24(sp)
800054fc:	4672                	lw	a2,28(sp)
800054fe:	47d2                	lw	a5,20(sp)
80005500:	01c55693          	srli	a3,a0,0x1c
80005504:	0612                	slli	a2,a2,0x4
80005506:	8e55                	or	a2,a2,a3
80005508:	00479693          	slli	a3,a5,0x4
8000550c:	8ecd                	or	a3,a3,a1
8000550e:	83f1                	srli	a5,a5,0x1c
80005510:	0512                	slli	a0,a0,0x4
80005512:	00d036b3          	snez	a3,a3
80005516:	8fc9                	or	a5,a5,a0
80005518:	8edd                	or	a3,a3,a5
8000551a:	ca32                	sw	a2,20(sp)
8000551c:	c836                	sw	a3,16(sp)
/home/xl_ci/toolchain/riscv-gnu-toolchain/riscv-gcc/libgcc/soft-fp/trunctfdf2.c:46 (discriminator 59)
8000551e:	46c2                	lw	a3,16(sp)
80005520:	47d2                	lw	a5,20(sp)
/home/xl_ci/toolchain/riscv-gnu-toolchain/riscv-gcc/libgcc/soft-fp/trunctfdf2.c:50 (discriminator 117)
80005522:	0076f613          	andi	a2,a3,7
80005526:	12060d63          	beqz	a2,80005660 <__trunctfdf2+0x1d6>
/home/xl_ci/toolchain/riscv-gnu-toolchain/riscv-gcc/libgcc/soft-fp/trunctfdf2.c:50 (discriminator 37)
8000552a:	00f6f613          	andi	a2,a3,15
8000552e:	4591                	li	a1,4
80005530:	12b60863          	beq	a2,a1,80005660 <__trunctfdf2+0x1d6>
/home/xl_ci/toolchain/riscv-gnu-toolchain/riscv-gcc/libgcc/soft-fp/trunctfdf2.c:50 (discriminator 44)
80005534:	00468613          	addi	a2,a3,4 # 8004 <__stack_size+0x7804>
80005538:	00d636b3          	sltu	a3,a2,a3
8000553c:	97b6                	add	a5,a5,a3
8000553e:	86b2                	mv	a3,a2
80005540:	a205                	j	80005660 <__trunctfdf2+0x1d6>
/home/xl_ci/toolchain/riscv-gnu-toolchain/riscv-gcc/libgcc/soft-fp/trunctfdf2.c:46 (discriminator 18)
80005542:	fcc00793          	li	a5,-52
80005546:	00f75763          	bge	a4,a5,80005554 <__trunctfdf2+0xca>
/home/xl_ci/toolchain/riscv-gnu-toolchain/riscv-gcc/libgcc/soft-fp/trunctfdf2.c:46 (discriminator 20)
8000554a:	ca02                	sw	zero,20(sp)
8000554c:	4785                	li	a5,1
/home/xl_ci/toolchain/riscv-gnu-toolchain/riscv-gcc/libgcc/soft-fp/trunctfdf2.c:46 (discriminator 37)
8000554e:	c83e                	sw	a5,16(sp)
80005550:	4701                	li	a4,0
80005552:	b7f1                	j	8000551e <__trunctfdf2+0x94>
/home/xl_ci/toolchain/riscv-gnu-toolchain/riscv-gcc/libgcc/soft-fp/trunctfdf2.c:46 (discriminator 21)
80005554:	47f2                	lw	a5,28(sp)
80005556:	000808b7          	lui	a7,0x80
/home/xl_ci/toolchain/riscv-gnu-toolchain/riscv-gcc/libgcc/soft-fp/trunctfdf2.c:44 (discriminator 21)
8000555a:	85aa                	mv	a1,a0
/home/xl_ci/toolchain/riscv-gnu-toolchain/riscv-gcc/libgcc/soft-fp/trunctfdf2.c:46 (discriminator 21)
8000555c:	00f8e8b3          	or	a7,a7,a5
80005560:	03d00793          	li	a5,61
80005564:	40e78733          	sub	a4,a5,a4
80005568:	ce46                	sw	a7,28(sp)
8000556a:	40575793          	srai	a5,a4,0x5
8000556e:	4681                	li	a3,0
80005570:	4481                	li	s1,0
/home/xl_ci/toolchain/riscv-gnu-toolchain/riscv-gcc/libgcc/soft-fp/trunctfdf2.c:46 (discriminator 25)
80005572:	0005a803          	lw	a6,0(a1)
80005576:	0685                	addi	a3,a3,1
80005578:	0591                	addi	a1,a1,4
8000557a:	0104e4b3          	or	s1,s1,a6
8000557e:	fed79ae3          	bne	a5,a3,80005572 <__trunctfdf2+0xe8>
/home/xl_ci/toolchain/riscv-gnu-toolchain/riscv-gcc/libgcc/soft-fp/trunctfdf2.c:46 (discriminator 26)
80005582:	8b7d                	andi	a4,a4,31
80005584:	00279693          	slli	a3,a5,0x2
80005588:	e30d                	bnez	a4,800055aa <__trunctfdf2+0x120>
/home/xl_ci/toolchain/riscv-gnu-toolchain/riscv-gcc/libgcc/soft-fp/trunctfdf2.c:46
8000558a:	458d                	li	a1,3
8000558c:	8d9d                	sub	a1,a1,a5
/home/xl_ci/toolchain/riscv-gnu-toolchain/riscv-gcc/libgcc/soft-fp/trunctfdf2.c:46 (discriminator 31)
8000558e:	00d60833          	add	a6,a2,a3
80005592:	00082803          	lw	a6,0(a6)
80005596:	0705                	addi	a4,a4,1
80005598:	01062023          	sw	a6,0(a2)
8000559c:	0611                	addi	a2,a2,4
8000559e:	fee5d8e3          	bge	a1,a4,8000558e <__trunctfdf2+0x104>
800055a2:	4711                	li	a4,4
800055a4:	40f707b3          	sub	a5,a4,a5
800055a8:	a83d                	j	800055e6 <__trunctfdf2+0x15c>
800055aa:	5e71                	li	t3,-4
800055ac:	03c78e33          	mul	t3,a5,t3
/home/xl_ci/toolchain/riscv-gnu-toolchain/riscv-gcc/libgcc/soft-fp/trunctfdf2.c:46 (discriminator 28)
800055b0:	1010                	addi	a2,sp,32
800055b2:	9636                	add	a2,a2,a3
800055b4:	ff062603          	lw	a2,-16(a2)
800055b8:	02000813          	li	a6,32
800055bc:	40e80833          	sub	a6,a6,a4
800055c0:	01061633          	sll	a2,a2,a6
800055c4:	8cd1                	or	s1,s1,a2
800055c6:	460d                	li	a2,3
800055c8:	96aa                	add	a3,a3,a0
800055ca:	4301                	li	t1,0
800055cc:	8e1d                	sub	a2,a2,a5
/home/xl_ci/toolchain/riscv-gnu-toolchain/riscv-gcc/libgcc/soft-fp/trunctfdf2.c:46 (discriminator 32)
800055ce:	02c34963          	blt	t1,a2,80005600 <__trunctfdf2+0x176>
/home/xl_ci/toolchain/riscv-gnu-toolchain/riscv-gcc/libgcc/soft-fp/trunctfdf2.c:46 (discriminator 35)
800055d2:	4691                	li	a3,4
800055d4:	40f687b3          	sub	a5,a3,a5
800055d8:	060a                	slli	a2,a2,0x2
800055da:	1014                	addi	a3,sp,32
800055dc:	9636                	add	a2,a2,a3
800055de:	00e8d733          	srl	a4,a7,a4
800055e2:	fee62823          	sw	a4,-16(a2)
/home/xl_ci/toolchain/riscv-gnu-toolchain/riscv-gcc/libgcc/soft-fp/trunctfdf2.c:46 (discriminator 37)
800055e6:	4611                	li	a2,4
800055e8:	8e1d                	sub	a2,a2,a5
800055ea:	078a                	slli	a5,a5,0x2
800055ec:	953e                	add	a0,a0,a5
800055ee:	060a                	slli	a2,a2,0x2
800055f0:	4581                	li	a1,0
800055f2:	cccfd0ef          	jal	ra,80002abe <memset>
800055f6:	4742                	lw	a4,16(sp)
800055f8:	009037b3          	snez	a5,s1
800055fc:	8fd9                	or	a5,a5,a4
800055fe:	bf81                	j	8000554e <__trunctfdf2+0xc4>
/home/xl_ci/toolchain/riscv-gnu-toolchain/riscv-gcc/libgcc/soft-fp/trunctfdf2.c:46 (discriminator 34)
80005600:	428c                	lw	a1,0(a3)
80005602:	0046ae83          	lw	t4,4(a3)
80005606:	01c68f33          	add	t5,a3,t3
8000560a:	00e5d5b3          	srl	a1,a1,a4
8000560e:	010e9eb3          	sll	t4,t4,a6
80005612:	01d5e5b3          	or	a1,a1,t4
80005616:	00bf2023          	sw	a1,0(t5)
8000561a:	0305                	addi	t1,t1,1
8000561c:	0691                	addi	a3,a3,4
8000561e:	bf45                	j	800055ce <__trunctfdf2+0x144>
/home/xl_ci/toolchain/riscv-gnu-toolchain/riscv-gcc/libgcc/soft-fp/trunctfdf2.c:46 (discriminator 2)
80005620:	4652                	lw	a2,20(sp)
80005622:	47e2                	lw	a5,24(sp)
80005624:	4572                	lw	a0,28(sp)
80005626:	00f666b3          	or	a3,a2,a5
8000562a:	8ec9                	or	a3,a3,a0
8000562c:	8ecd                	or	a3,a3,a1
8000562e:	e709                	bnez	a4,80005638 <__trunctfdf2+0x1ae>
/home/xl_ci/toolchain/riscv-gnu-toolchain/riscv-gcc/libgcc/soft-fp/trunctfdf2.c:46 (discriminator 65)
80005630:	00d036b3          	snez	a3,a3
80005634:	4781                	li	a5,0
80005636:	b5f5                	j	80005522 <__trunctfdf2+0x98>
/home/xl_ci/toolchain/riscv-gnu-toolchain/riscv-gcc/libgcc/soft-fp/trunctfdf2.c:46 (discriminator 62)
80005638:	c2d1                	beqz	a3,800056bc <__trunctfdf2+0x232>
/home/xl_ci/toolchain/riscv-gnu-toolchain/riscv-gcc/libgcc/soft-fp/trunctfdf2.c:46
8000563a:	01c65693          	srli	a3,a2,0x1c
8000563e:	0512                	slli	a0,a0,0x4
80005640:	00479613          	slli	a2,a5,0x4
80005644:	83f1                	srli	a5,a5,0x1c
80005646:	00400737          	lui	a4,0x400
8000564a:	8ed1                	or	a3,a3,a2
8000564c:	8fc9                	or	a5,a5,a0
8000564e:	8fd9                	or	a5,a5,a4
80005650:	9ae1                	andi	a3,a3,-8
80005652:	7ff00713          	li	a4,2047
80005656:	b5f1                	j	80005522 <__trunctfdf2+0x98>
80005658:	4781                	li	a5,0
8000565a:	4681                	li	a3,0
8000565c:	7ff00713          	li	a4,2047
/home/xl_ci/toolchain/riscv-gnu-toolchain/riscv-gcc/libgcc/soft-fp/trunctfdf2.c:50 (discriminator 47)
80005660:	00800637          	lui	a2,0x800
80005664:	8e7d                	and	a2,a2,a5
80005666:	ca11                	beqz	a2,8000567a <__trunctfdf2+0x1f0>
/home/xl_ci/toolchain/riscv-gnu-toolchain/riscv-gcc/libgcc/soft-fp/trunctfdf2.c:50 (discriminator 63)
80005668:	0705                	addi	a4,a4,1
8000566a:	7ff00613          	li	a2,2047
8000566e:	04c70963          	beq	a4,a2,800056c0 <__trunctfdf2+0x236>
/home/xl_ci/toolchain/riscv-gnu-toolchain/riscv-gcc/libgcc/soft-fp/trunctfdf2.c:50
80005672:	ff800637          	lui	a2,0xff800
80005676:	167d                	addi	a2,a2,-1
80005678:	8ff1                	and	a5,a5,a2
/home/xl_ci/toolchain/riscv-gnu-toolchain/riscv-gcc/libgcc/soft-fp/trunctfdf2.c:50 (discriminator 79)
8000567a:	01d79613          	slli	a2,a5,0x1d
8000567e:	828d                	srli	a3,a3,0x3
80005680:	8ed1                	or	a3,a3,a2
80005682:	7ff00613          	li	a2,2047
80005686:	838d                	srli	a5,a5,0x3
80005688:	00c71963          	bne	a4,a2,8000569a <__trunctfdf2+0x210>
/home/xl_ci/toolchain/riscv-gnu-toolchain/riscv-gcc/libgcc/soft-fp/trunctfdf2.c:50 (discriminator 80)
8000568c:	8edd                	or	a3,a3,a5
8000568e:	4781                	li	a5,0
80005690:	c689                	beqz	a3,8000569a <__trunctfdf2+0x210>
/home/xl_ci/toolchain/riscv-gnu-toolchain/riscv-gcc/libgcc/soft-fp/trunctfdf2.c:50
80005692:	000807b7          	lui	a5,0x80
80005696:	4681                	li	a3,0
80005698:	4401                	li	s0,0
/home/xl_ci/toolchain/riscv-gnu-toolchain/riscv-gcc/libgcc/soft-fp/trunctfdf2.c:50 (discriminator 90)
8000569a:	0752                	slli	a4,a4,0x14
8000569c:	7ff00637          	lui	a2,0x7ff00
800056a0:	07b2                	slli	a5,a5,0xc
800056a2:	8f71                	and	a4,a4,a2
800056a4:	83b1                	srli	a5,a5,0xc
800056a6:	047e                	slli	s0,s0,0x1f
800056a8:	8fd9                	or	a5,a5,a4
/home/xl_ci/toolchain/riscv-gnu-toolchain/riscv-gcc/libgcc/soft-fp/trunctfdf2.c:54 (discriminator 90)
800056aa:	50b2                	lw	ra,44(sp)
/home/xl_ci/toolchain/riscv-gnu-toolchain/riscv-gcc/libgcc/soft-fp/trunctfdf2.c:50 (discriminator 90)
800056ac:	0087e733          	or	a4,a5,s0
/home/xl_ci/toolchain/riscv-gnu-toolchain/riscv-gcc/libgcc/soft-fp/trunctfdf2.c:54 (discriminator 90)
800056b0:	5422                	lw	s0,40(sp)
800056b2:	5492                	lw	s1,36(sp)
800056b4:	8536                	mv	a0,a3
800056b6:	85ba                	mv	a1,a4
800056b8:	6145                	addi	sp,sp,48
800056ba:	8082                	ret
800056bc:	4781                	li	a5,0
800056be:	bf79                	j	8000565c <__trunctfdf2+0x1d2>
800056c0:	4781                	li	a5,0
800056c2:	4681                	li	a3,0
800056c4:	bf5d                	j	8000567a <__trunctfdf2+0x1f0>

800056c6 <__clzsi2>:
__clzsi2():
/home/xl_ci/toolchain/riscv-gnu-toolchain/riscv-gcc/libgcc/libgcc2.c:710
800056c6:	67c1                	lui	a5,0x10
800056c8:	02f57663          	bgeu	a0,a5,800056f4 <__clzsi2+0x2e>
/home/xl_ci/toolchain/riscv-gnu-toolchain/riscv-gcc/libgcc/libgcc2.c:710 (discriminator 3)
800056cc:	0ff00793          	li	a5,255
800056d0:	00a7b7b3          	sltu	a5,a5,a0
800056d4:	078e                	slli	a5,a5,0x3
/home/xl_ci/toolchain/riscv-gnu-toolchain/riscv-gcc/libgcc/libgcc2.c:710 (discriminator 14)
800056d6:	02000713          	li	a4,32
800056da:	8f1d                	sub	a4,a4,a5
800056dc:	00f55533          	srl	a0,a0,a5
800056e0:	00000797          	auipc	a5,0x0
800056e4:	0f478793          	addi	a5,a5,244 # 800057d4 <__clz_tab>
800056e8:	953e                	add	a0,a0,a5
800056ea:	00054503          	lbu	a0,0(a0)
/home/xl_ci/toolchain/riscv-gnu-toolchain/riscv-gcc/libgcc/libgcc2.c:713 (discriminator 14)
800056ee:	40a70533          	sub	a0,a4,a0
800056f2:	8082                	ret
/home/xl_ci/toolchain/riscv-gnu-toolchain/riscv-gcc/libgcc/libgcc2.c:710 (discriminator 4)
800056f4:	01000737          	lui	a4,0x1000
800056f8:	47c1                	li	a5,16
800056fa:	fce56ee3          	bltu	a0,a4,800056d6 <__clzsi2+0x10>
/home/xl_ci/toolchain/riscv-gnu-toolchain/riscv-gcc/libgcc/libgcc2.c:710
800056fe:	47e1                	li	a5,24
80005700:	bfd9                	j	800056d6 <__clzsi2+0x10>
